
PROJETO-DESAFIO-261.elf:     file format elf32-littlearm

Sections:
Idx Name          Size      VMA       LMA       File off  Algn
  0 .isr_vector   0000010c  08000000  08000000  00001000  2**0
                  CONTENTS, ALLOC, LOAD, READONLY, DATA
  1 .text         0000621c  08000110  08000110  00001110  2**3
                  CONTENTS, ALLOC, LOAD, READONLY, CODE
  2 .rodata       000003ac  08006330  08006330  00007330  2**3
                  CONTENTS, ALLOC, LOAD, READONLY, DATA
  3 .ARM.extab    00000000  080066dc  080066dc  000081d8  2**0
                  CONTENTS, READONLY
  4 .ARM          00000008  080066dc  080066dc  000076dc  2**2
                  CONTENTS, ALLOC, LOAD, READONLY, DATA
  5 .preinit_array 00000000  080066e4  080066e4  000081d8  2**0
                  CONTENTS, ALLOC, LOAD, DATA
  6 .init_array   00000004  080066e4  080066e4  000076e4  2**2
                  CONTENTS, ALLOC, LOAD, READONLY, DATA
  7 .fini_array   00000004  080066e8  080066e8  000076e8  2**2
                  CONTENTS, ALLOC, LOAD, READONLY, DATA
  8 .data         000001d8  20000000  080066ec  00008000  2**2
                  CONTENTS, ALLOC, LOAD, DATA
  9 .bss          00000254  200001d8  080068c4  000081d8  2**2
                  ALLOC
 10 ._user_heap_stack 00000604  2000042c  080068c4  0000842c  2**0
                  ALLOC
 11 .ARM.attributes 00000029  00000000  00000000  000081d8  2**0
                  CONTENTS, READONLY
 12 .debug_info   0000be11  00000000  00000000  00008201  2**0
                  CONTENTS, READONLY, DEBUGGING, OCTETS
 13 .debug_abbrev 00001c19  00000000  00000000  00014012  2**0
                  CONTENTS, READONLY, DEBUGGING, OCTETS
 14 .debug_aranges 00000c48  00000000  00000000  00015c30  2**3
                  CONTENTS, READONLY, DEBUGGING, OCTETS
 15 .debug_rnglists 000009a3  00000000  00000000  00016878  2**0
                  CONTENTS, READONLY, DEBUGGING, OCTETS
 16 .debug_macro  0001853f  00000000  00000000  0001721b  2**0
                  CONTENTS, READONLY, DEBUGGING, OCTETS
 17 .debug_line   0000cff7  00000000  00000000  0002f75a  2**0
                  CONTENTS, READONLY, DEBUGGING, OCTETS
 18 .debug_str    0008c06b  00000000  00000000  0003c751  2**0
                  CONTENTS, READONLY, DEBUGGING, OCTETS
 19 .comment      00000043  00000000  00000000  000c87bc  2**0
                  CONTENTS, READONLY
 20 .debug_frame  000041a8  00000000  00000000  000c8800  2**2
                  CONTENTS, READONLY, DEBUGGING, OCTETS
 21 .debug_line_str 00000069  00000000  00000000  000cc9a8  2**0
                  CONTENTS, READONLY, DEBUGGING, OCTETS

Disassembly of section .text:

08000110 <__do_global_dtors_aux>:
 8000110:	b510      	push	{r4, lr}
 8000112:	4c05      	ldr	r4, [pc, #20]	@ (8000128 <__do_global_dtors_aux+0x18>)
 8000114:	7823      	ldrb	r3, [r4, #0]
 8000116:	b933      	cbnz	r3, 8000126 <__do_global_dtors_aux+0x16>
 8000118:	4b04      	ldr	r3, [pc, #16]	@ (800012c <__do_global_dtors_aux+0x1c>)
 800011a:	b113      	cbz	r3, 8000122 <__do_global_dtors_aux+0x12>
 800011c:	4804      	ldr	r0, [pc, #16]	@ (8000130 <__do_global_dtors_aux+0x20>)
 800011e:	f3af 8000 	nop.w
 8000122:	2301      	movs	r3, #1
 8000124:	7023      	strb	r3, [r4, #0]
 8000126:	bd10      	pop	{r4, pc}
 8000128:	200001d8 	.word	0x200001d8
 800012c:	00000000 	.word	0x00000000
 8000130:	08006314 	.word	0x08006314

08000134 <frame_dummy>:
 8000134:	b508      	push	{r3, lr}
 8000136:	4b03      	ldr	r3, [pc, #12]	@ (8000144 <frame_dummy+0x10>)
 8000138:	b11b      	cbz	r3, 8000142 <frame_dummy+0xe>
 800013a:	4903      	ldr	r1, [pc, #12]	@ (8000148 <frame_dummy+0x14>)
 800013c:	4803      	ldr	r0, [pc, #12]	@ (800014c <frame_dummy+0x18>)
 800013e:	f3af 8000 	nop.w
 8000142:	bd08      	pop	{r3, pc}
 8000144:	00000000 	.word	0x00000000
 8000148:	200001dc 	.word	0x200001dc
 800014c:	08006314 	.word	0x08006314

08000150 <strlen>:
 8000150:	4603      	mov	r3, r0
 8000152:	f813 2b01 	ldrb.w	r2, [r3], #1
 8000156:	2a00      	cmp	r2, #0
 8000158:	d1fb      	bne.n	8000152 <strlen+0x2>
 800015a:	1a18      	subs	r0, r3, r0
 800015c:	3801      	subs	r0, #1
 800015e:	4770      	bx	lr

08000160 <__aeabi_drsub>:
 8000160:	f081 4100 	eor.w	r1, r1, #2147483648	@ 0x80000000
 8000164:	e002      	b.n	800016c <__adddf3>
 8000166:	bf00      	nop

08000168 <__aeabi_dsub>:
 8000168:	f083 4300 	eor.w	r3, r3, #2147483648	@ 0x80000000

0800016c <__adddf3>:
 800016c:	b530      	push	{r4, r5, lr}
 800016e:	ea4f 0441 	mov.w	r4, r1, lsl #1
 8000172:	ea4f 0543 	mov.w	r5, r3, lsl #1
 8000176:	ea94 0f05 	teq	r4, r5
 800017a:	bf08      	it	eq
 800017c:	ea90 0f02 	teqeq	r0, r2
 8000180:	bf1f      	itttt	ne
 8000182:	ea54 0c00 	orrsne.w	ip, r4, r0
 8000186:	ea55 0c02 	orrsne.w	ip, r5, r2
 800018a:	ea7f 5c64 	mvnsne.w	ip, r4, asr #21
 800018e:	ea7f 5c65 	mvnsne.w	ip, r5, asr #21
 8000192:	f000 80e2 	beq.w	800035a <__adddf3+0x1ee>
 8000196:	ea4f 5454 	mov.w	r4, r4, lsr #21
 800019a:	ebd4 5555 	rsbs	r5, r4, r5, lsr #21
 800019e:	bfb8      	it	lt
 80001a0:	426d      	neglt	r5, r5
 80001a2:	dd0c      	ble.n	80001be <__adddf3+0x52>
 80001a4:	442c      	add	r4, r5
 80001a6:	ea80 0202 	eor.w	r2, r0, r2
 80001aa:	ea81 0303 	eor.w	r3, r1, r3
 80001ae:	ea82 0000 	eor.w	r0, r2, r0
 80001b2:	ea83 0101 	eor.w	r1, r3, r1
 80001b6:	ea80 0202 	eor.w	r2, r0, r2
 80001ba:	ea81 0303 	eor.w	r3, r1, r3
 80001be:	2d36      	cmp	r5, #54	@ 0x36
 80001c0:	bf88      	it	hi
 80001c2:	bd30      	pophi	{r4, r5, pc}
 80001c4:	f011 4f00 	tst.w	r1, #2147483648	@ 0x80000000
 80001c8:	ea4f 3101 	mov.w	r1, r1, lsl #12
 80001cc:	f44f 1c80 	mov.w	ip, #1048576	@ 0x100000
 80001d0:	ea4c 3111 	orr.w	r1, ip, r1, lsr #12
 80001d4:	d002      	beq.n	80001dc <__adddf3+0x70>
 80001d6:	4240      	negs	r0, r0
 80001d8:	eb61 0141 	sbc.w	r1, r1, r1, lsl #1
 80001dc:	f013 4f00 	tst.w	r3, #2147483648	@ 0x80000000
 80001e0:	ea4f 3303 	mov.w	r3, r3, lsl #12
 80001e4:	ea4c 3313 	orr.w	r3, ip, r3, lsr #12
 80001e8:	d002      	beq.n	80001f0 <__adddf3+0x84>
 80001ea:	4252      	negs	r2, r2
 80001ec:	eb63 0343 	sbc.w	r3, r3, r3, lsl #1
 80001f0:	ea94 0f05 	teq	r4, r5
 80001f4:	f000 80a7 	beq.w	8000346 <__adddf3+0x1da>
 80001f8:	f1a4 0401 	sub.w	r4, r4, #1
 80001fc:	f1d5 0e20 	rsbs	lr, r5, #32
 8000200:	db0d      	blt.n	800021e <__adddf3+0xb2>
 8000202:	fa02 fc0e 	lsl.w	ip, r2, lr
 8000206:	fa22 f205 	lsr.w	r2, r2, r5
 800020a:	1880      	adds	r0, r0, r2
 800020c:	f141 0100 	adc.w	r1, r1, #0
 8000210:	fa03 f20e 	lsl.w	r2, r3, lr
 8000214:	1880      	adds	r0, r0, r2
 8000216:	fa43 f305 	asr.w	r3, r3, r5
 800021a:	4159      	adcs	r1, r3
 800021c:	e00e      	b.n	800023c <__adddf3+0xd0>
 800021e:	f1a5 0520 	sub.w	r5, r5, #32
 8000222:	f10e 0e20 	add.w	lr, lr, #32
 8000226:	2a01      	cmp	r2, #1
 8000228:	fa03 fc0e 	lsl.w	ip, r3, lr
 800022c:	bf28      	it	cs
 800022e:	f04c 0c02 	orrcs.w	ip, ip, #2
 8000232:	fa43 f305 	asr.w	r3, r3, r5
 8000236:	18c0      	adds	r0, r0, r3
 8000238:	eb51 71e3 	adcs.w	r1, r1, r3, asr #31
 800023c:	f001 4500 	and.w	r5, r1, #2147483648	@ 0x80000000
 8000240:	d507      	bpl.n	8000252 <__adddf3+0xe6>
 8000242:	f04f 0e00 	mov.w	lr, #0
 8000246:	f1dc 0c00 	rsbs	ip, ip, #0
 800024a:	eb7e 0000 	sbcs.w	r0, lr, r0
 800024e:	eb6e 0101 	sbc.w	r1, lr, r1
 8000252:	f5b1 1f80 	cmp.w	r1, #1048576	@ 0x100000
 8000256:	d31b      	bcc.n	8000290 <__adddf3+0x124>
 8000258:	f5b1 1f00 	cmp.w	r1, #2097152	@ 0x200000
 800025c:	d30c      	bcc.n	8000278 <__adddf3+0x10c>
 800025e:	0849      	lsrs	r1, r1, #1
 8000260:	ea5f 0030 	movs.w	r0, r0, rrx
 8000264:	ea4f 0c3c 	mov.w	ip, ip, rrx
 8000268:	f104 0401 	add.w	r4, r4, #1
 800026c:	ea4f 5244 	mov.w	r2, r4, lsl #21
 8000270:	f512 0f80 	cmn.w	r2, #4194304	@ 0x400000
 8000274:	f080 809a 	bcs.w	80003ac <__adddf3+0x240>
 8000278:	f1bc 4f00 	cmp.w	ip, #2147483648	@ 0x80000000
 800027c:	bf08      	it	eq
 800027e:	ea5f 0c50 	movseq.w	ip, r0, lsr #1
 8000282:	f150 0000 	adcs.w	r0, r0, #0
 8000286:	eb41 5104 	adc.w	r1, r1, r4, lsl #20
 800028a:	ea41 0105 	orr.w	r1, r1, r5
 800028e:	bd30      	pop	{r4, r5, pc}
 8000290:	ea5f 0c4c 	movs.w	ip, ip, lsl #1
 8000294:	4140      	adcs	r0, r0
 8000296:	eb41 0101 	adc.w	r1, r1, r1
 800029a:	3c01      	subs	r4, #1
 800029c:	bf28      	it	cs
 800029e:	f5b1 1f80 	cmpcs.w	r1, #1048576	@ 0x100000
 80002a2:	d2e9      	bcs.n	8000278 <__adddf3+0x10c>
 80002a4:	f091 0f00 	teq	r1, #0
 80002a8:	bf04      	itt	eq
 80002aa:	4601      	moveq	r1, r0
 80002ac:	2000      	moveq	r0, #0
 80002ae:	fab1 f381 	clz	r3, r1
 80002b2:	bf08      	it	eq
 80002b4:	3320      	addeq	r3, #32
 80002b6:	f1a3 030b 	sub.w	r3, r3, #11
 80002ba:	f1b3 0220 	subs.w	r2, r3, #32
 80002be:	da0c      	bge.n	80002da <__adddf3+0x16e>
 80002c0:	320c      	adds	r2, #12
 80002c2:	dd08      	ble.n	80002d6 <__adddf3+0x16a>
 80002c4:	f102 0c14 	add.w	ip, r2, #20
 80002c8:	f1c2 020c 	rsb	r2, r2, #12
 80002cc:	fa01 f00c 	lsl.w	r0, r1, ip
 80002d0:	fa21 f102 	lsr.w	r1, r1, r2
 80002d4:	e00c      	b.n	80002f0 <__adddf3+0x184>
 80002d6:	f102 0214 	add.w	r2, r2, #20
 80002da:	bfd8      	it	le
 80002dc:	f1c2 0c20 	rsble	ip, r2, #32
 80002e0:	fa01 f102 	lsl.w	r1, r1, r2
 80002e4:	fa20 fc0c 	lsr.w	ip, r0, ip
 80002e8:	bfdc      	itt	le
 80002ea:	ea41 010c 	orrle.w	r1, r1, ip
 80002ee:	4090      	lslle	r0, r2
 80002f0:	1ae4      	subs	r4, r4, r3
 80002f2:	bfa2      	ittt	ge
 80002f4:	eb01 5104 	addge.w	r1, r1, r4, lsl #20
 80002f8:	4329      	orrge	r1, r5
 80002fa:	bd30      	popge	{r4, r5, pc}
 80002fc:	ea6f 0404 	mvn.w	r4, r4
 8000300:	3c1f      	subs	r4, #31
 8000302:	da1c      	bge.n	800033e <__adddf3+0x1d2>
 8000304:	340c      	adds	r4, #12
 8000306:	dc0e      	bgt.n	8000326 <__adddf3+0x1ba>
 8000308:	f104 0414 	add.w	r4, r4, #20
 800030c:	f1c4 0220 	rsb	r2, r4, #32
 8000310:	fa20 f004 	lsr.w	r0, r0, r4
 8000314:	fa01 f302 	lsl.w	r3, r1, r2
 8000318:	ea40 0003 	orr.w	r0, r0, r3
 800031c:	fa21 f304 	lsr.w	r3, r1, r4
 8000320:	ea45 0103 	orr.w	r1, r5, r3
 8000324:	bd30      	pop	{r4, r5, pc}
 8000326:	f1c4 040c 	rsb	r4, r4, #12
 800032a:	f1c4 0220 	rsb	r2, r4, #32
 800032e:	fa20 f002 	lsr.w	r0, r0, r2
 8000332:	fa01 f304 	lsl.w	r3, r1, r4
 8000336:	ea40 0003 	orr.w	r0, r0, r3
 800033a:	4629      	mov	r1, r5
 800033c:	bd30      	pop	{r4, r5, pc}
 800033e:	fa21 f004 	lsr.w	r0, r1, r4
 8000342:	4629      	mov	r1, r5
 8000344:	bd30      	pop	{r4, r5, pc}
 8000346:	f094 0f00 	teq	r4, #0
 800034a:	f483 1380 	eor.w	r3, r3, #1048576	@ 0x100000
 800034e:	bf06      	itte	eq
 8000350:	f481 1180 	eoreq.w	r1, r1, #1048576	@ 0x100000
 8000354:	3401      	addeq	r4, #1
 8000356:	3d01      	subne	r5, #1
 8000358:	e74e      	b.n	80001f8 <__adddf3+0x8c>
 800035a:	ea7f 5c64 	mvns.w	ip, r4, asr #21
 800035e:	bf18      	it	ne
 8000360:	ea7f 5c65 	mvnsne.w	ip, r5, asr #21
 8000364:	d029      	beq.n	80003ba <__adddf3+0x24e>
 8000366:	ea94 0f05 	teq	r4, r5
 800036a:	bf08      	it	eq
 800036c:	ea90 0f02 	teqeq	r0, r2
 8000370:	d005      	beq.n	800037e <__adddf3+0x212>
 8000372:	ea54 0c00 	orrs.w	ip, r4, r0
 8000376:	bf04      	itt	eq
 8000378:	4619      	moveq	r1, r3
 800037a:	4610      	moveq	r0, r2
 800037c:	bd30      	pop	{r4, r5, pc}
 800037e:	ea91 0f03 	teq	r1, r3
 8000382:	bf1e      	ittt	ne
 8000384:	2100      	movne	r1, #0
 8000386:	2000      	movne	r0, #0
 8000388:	bd30      	popne	{r4, r5, pc}
 800038a:	ea5f 5c54 	movs.w	ip, r4, lsr #21
 800038e:	d105      	bne.n	800039c <__adddf3+0x230>
 8000390:	0040      	lsls	r0, r0, #1
 8000392:	4149      	adcs	r1, r1
 8000394:	bf28      	it	cs
 8000396:	f041 4100 	orrcs.w	r1, r1, #2147483648	@ 0x80000000
 800039a:	bd30      	pop	{r4, r5, pc}
 800039c:	f514 0480 	adds.w	r4, r4, #4194304	@ 0x400000
 80003a0:	bf3c      	itt	cc
 80003a2:	f501 1180 	addcc.w	r1, r1, #1048576	@ 0x100000
 80003a6:	bd30      	popcc	{r4, r5, pc}
 80003a8:	f001 4500 	and.w	r5, r1, #2147483648	@ 0x80000000
 80003ac:	f045 41fe 	orr.w	r1, r5, #2130706432	@ 0x7f000000
 80003b0:	f441 0170 	orr.w	r1, r1, #15728640	@ 0xf00000
 80003b4:	f04f 0000 	mov.w	r0, #0
 80003b8:	bd30      	pop	{r4, r5, pc}
 80003ba:	ea7f 5c64 	mvns.w	ip, r4, asr #21
 80003be:	bf1a      	itte	ne
 80003c0:	4619      	movne	r1, r3
 80003c2:	4610      	movne	r0, r2
 80003c4:	ea7f 5c65 	mvnseq.w	ip, r5, asr #21
 80003c8:	bf1c      	itt	ne
 80003ca:	460b      	movne	r3, r1
 80003cc:	4602      	movne	r2, r0
 80003ce:	ea50 3401 	orrs.w	r4, r0, r1, lsl #12
 80003d2:	bf06      	itte	eq
 80003d4:	ea52 3503 	orrseq.w	r5, r2, r3, lsl #12
 80003d8:	ea91 0f03 	teqeq	r1, r3
 80003dc:	f441 2100 	orrne.w	r1, r1, #524288	@ 0x80000
 80003e0:	bd30      	pop	{r4, r5, pc}
 80003e2:	bf00      	nop

080003e4 <__aeabi_ui2d>:
 80003e4:	f090 0f00 	teq	r0, #0
 80003e8:	bf04      	itt	eq
 80003ea:	2100      	moveq	r1, #0
 80003ec:	4770      	bxeq	lr
 80003ee:	b530      	push	{r4, r5, lr}
 80003f0:	f44f 6480 	mov.w	r4, #1024	@ 0x400
 80003f4:	f104 0432 	add.w	r4, r4, #50	@ 0x32
 80003f8:	f04f 0500 	mov.w	r5, #0
 80003fc:	f04f 0100 	mov.w	r1, #0
 8000400:	e750      	b.n	80002a4 <__adddf3+0x138>
 8000402:	bf00      	nop

08000404 <__aeabi_i2d>:
 8000404:	f090 0f00 	teq	r0, #0
 8000408:	bf04      	itt	eq
 800040a:	2100      	moveq	r1, #0
 800040c:	4770      	bxeq	lr
 800040e:	b530      	push	{r4, r5, lr}
 8000410:	f44f 6480 	mov.w	r4, #1024	@ 0x400
 8000414:	f104 0432 	add.w	r4, r4, #50	@ 0x32
 8000418:	f010 4500 	ands.w	r5, r0, #2147483648	@ 0x80000000
 800041c:	bf48      	it	mi
 800041e:	4240      	negmi	r0, r0
 8000420:	f04f 0100 	mov.w	r1, #0
 8000424:	e73e      	b.n	80002a4 <__adddf3+0x138>
 8000426:	bf00      	nop

08000428 <__aeabi_f2d>:
 8000428:	0042      	lsls	r2, r0, #1
 800042a:	ea4f 01e2 	mov.w	r1, r2, asr #3
 800042e:	ea4f 0131 	mov.w	r1, r1, rrx
 8000432:	ea4f 7002 	mov.w	r0, r2, lsl #28
 8000436:	bf1f      	itttt	ne
 8000438:	f012 437f 	andsne.w	r3, r2, #4278190080	@ 0xff000000
 800043c:	f093 4f7f 	teqne	r3, #4278190080	@ 0xff000000
 8000440:	f081 5160 	eorne.w	r1, r1, #939524096	@ 0x38000000
 8000444:	4770      	bxne	lr
 8000446:	f032 427f 	bics.w	r2, r2, #4278190080	@ 0xff000000
 800044a:	bf08      	it	eq
 800044c:	4770      	bxeq	lr
 800044e:	f093 4f7f 	teq	r3, #4278190080	@ 0xff000000
 8000452:	bf04      	itt	eq
 8000454:	f441 2100 	orreq.w	r1, r1, #524288	@ 0x80000
 8000458:	4770      	bxeq	lr
 800045a:	b530      	push	{r4, r5, lr}
 800045c:	f44f 7460 	mov.w	r4, #896	@ 0x380
 8000460:	f001 4500 	and.w	r5, r1, #2147483648	@ 0x80000000
 8000464:	f021 4100 	bic.w	r1, r1, #2147483648	@ 0x80000000
 8000468:	e71c      	b.n	80002a4 <__adddf3+0x138>
 800046a:	bf00      	nop

0800046c <__aeabi_ul2d>:
 800046c:	ea50 0201 	orrs.w	r2, r0, r1
 8000470:	bf08      	it	eq
 8000472:	4770      	bxeq	lr
 8000474:	b530      	push	{r4, r5, lr}
 8000476:	f04f 0500 	mov.w	r5, #0
 800047a:	e00a      	b.n	8000492 <__aeabi_l2d+0x16>

0800047c <__aeabi_l2d>:
 800047c:	ea50 0201 	orrs.w	r2, r0, r1
 8000480:	bf08      	it	eq
 8000482:	4770      	bxeq	lr
 8000484:	b530      	push	{r4, r5, lr}
 8000486:	f011 4500 	ands.w	r5, r1, #2147483648	@ 0x80000000
 800048a:	d502      	bpl.n	8000492 <__aeabi_l2d+0x16>
 800048c:	4240      	negs	r0, r0
 800048e:	eb61 0141 	sbc.w	r1, r1, r1, lsl #1
 8000492:	f44f 6480 	mov.w	r4, #1024	@ 0x400
 8000496:	f104 0432 	add.w	r4, r4, #50	@ 0x32
 800049a:	ea5f 5c91 	movs.w	ip, r1, lsr #22
 800049e:	f43f aed8 	beq.w	8000252 <__adddf3+0xe6>
 80004a2:	f04f 0203 	mov.w	r2, #3
 80004a6:	ea5f 0cdc 	movs.w	ip, ip, lsr #3
 80004aa:	bf18      	it	ne
 80004ac:	3203      	addne	r2, #3
 80004ae:	ea5f 0cdc 	movs.w	ip, ip, lsr #3
 80004b2:	bf18      	it	ne
 80004b4:	3203      	addne	r2, #3
 80004b6:	eb02 02dc 	add.w	r2, r2, ip, lsr #3
 80004ba:	f1c2 0320 	rsb	r3, r2, #32
 80004be:	fa00 fc03 	lsl.w	ip, r0, r3
 80004c2:	fa20 f002 	lsr.w	r0, r0, r2
 80004c6:	fa01 fe03 	lsl.w	lr, r1, r3
 80004ca:	ea40 000e 	orr.w	r0, r0, lr
 80004ce:	fa21 f102 	lsr.w	r1, r1, r2
 80004d2:	4414      	add	r4, r2
 80004d4:	e6bd      	b.n	8000252 <__adddf3+0xe6>
 80004d6:	bf00      	nop

080004d8 <__aeabi_dmul>:
 80004d8:	b570      	push	{r4, r5, r6, lr}
 80004da:	f04f 0cff 	mov.w	ip, #255	@ 0xff
 80004de:	f44c 6ce0 	orr.w	ip, ip, #1792	@ 0x700
 80004e2:	ea1c 5411 	ands.w	r4, ip, r1, lsr #20
 80004e6:	bf1d      	ittte	ne
 80004e8:	ea1c 5513 	andsne.w	r5, ip, r3, lsr #20
 80004ec:	ea94 0f0c 	teqne	r4, ip
 80004f0:	ea95 0f0c 	teqne	r5, ip
 80004f4:	f000 f8de 	bleq	80006b4 <__aeabi_dmul+0x1dc>
 80004f8:	442c      	add	r4, r5
 80004fa:	ea81 0603 	eor.w	r6, r1, r3
 80004fe:	ea21 514c 	bic.w	r1, r1, ip, lsl #21
 8000502:	ea23 534c 	bic.w	r3, r3, ip, lsl #21
 8000506:	ea50 3501 	orrs.w	r5, r0, r1, lsl #12
 800050a:	bf18      	it	ne
 800050c:	ea52 3503 	orrsne.w	r5, r2, r3, lsl #12
 8000510:	f441 1180 	orr.w	r1, r1, #1048576	@ 0x100000
 8000514:	f443 1380 	orr.w	r3, r3, #1048576	@ 0x100000
 8000518:	d038      	beq.n	800058c <__aeabi_dmul+0xb4>
 800051a:	fba0 ce02 	umull	ip, lr, r0, r2
 800051e:	f04f 0500 	mov.w	r5, #0
 8000522:	fbe1 e502 	umlal	lr, r5, r1, r2
 8000526:	f006 4200 	and.w	r2, r6, #2147483648	@ 0x80000000
 800052a:	fbe0 e503 	umlal	lr, r5, r0, r3
 800052e:	f04f 0600 	mov.w	r6, #0
 8000532:	fbe1 5603 	umlal	r5, r6, r1, r3
 8000536:	f09c 0f00 	teq	ip, #0
 800053a:	bf18      	it	ne
 800053c:	f04e 0e01 	orrne.w	lr, lr, #1
 8000540:	f1a4 04ff 	sub.w	r4, r4, #255	@ 0xff
 8000544:	f5b6 7f00 	cmp.w	r6, #512	@ 0x200
 8000548:	f564 7440 	sbc.w	r4, r4, #768	@ 0x300
 800054c:	d204      	bcs.n	8000558 <__aeabi_dmul+0x80>
 800054e:	ea5f 0e4e 	movs.w	lr, lr, lsl #1
 8000552:	416d      	adcs	r5, r5
 8000554:	eb46 0606 	adc.w	r6, r6, r6
 8000558:	ea42 21c6 	orr.w	r1, r2, r6, lsl #11
 800055c:	ea41 5155 	orr.w	r1, r1, r5, lsr #21
 8000560:	ea4f 20c5 	mov.w	r0, r5, lsl #11
 8000564:	ea40 505e 	orr.w	r0, r0, lr, lsr #21
 8000568:	ea4f 2ece 	mov.w	lr, lr, lsl #11
 800056c:	f1b4 0cfd 	subs.w	ip, r4, #253	@ 0xfd
 8000570:	bf88      	it	hi
 8000572:	f5bc 6fe0 	cmphi.w	ip, #1792	@ 0x700
 8000576:	d81e      	bhi.n	80005b6 <__aeabi_dmul+0xde>
 8000578:	f1be 4f00 	cmp.w	lr, #2147483648	@ 0x80000000
 800057c:	bf08      	it	eq
 800057e:	ea5f 0e50 	movseq.w	lr, r0, lsr #1
 8000582:	f150 0000 	adcs.w	r0, r0, #0
 8000586:	eb41 5104 	adc.w	r1, r1, r4, lsl #20
 800058a:	bd70      	pop	{r4, r5, r6, pc}
 800058c:	f006 4600 	and.w	r6, r6, #2147483648	@ 0x80000000
 8000590:	ea46 0101 	orr.w	r1, r6, r1
 8000594:	ea40 0002 	orr.w	r0, r0, r2
 8000598:	ea81 0103 	eor.w	r1, r1, r3
 800059c:	ebb4 045c 	subs.w	r4, r4, ip, lsr #1
 80005a0:	bfc2      	ittt	gt
 80005a2:	ebd4 050c 	rsbsgt	r5, r4, ip
 80005a6:	ea41 5104 	orrgt.w	r1, r1, r4, lsl #20
 80005aa:	bd70      	popgt	{r4, r5, r6, pc}
 80005ac:	f441 1180 	orr.w	r1, r1, #1048576	@ 0x100000
 80005b0:	f04f 0e00 	mov.w	lr, #0
 80005b4:	3c01      	subs	r4, #1
 80005b6:	f300 80ab 	bgt.w	8000710 <__aeabi_dmul+0x238>
 80005ba:	f114 0f36 	cmn.w	r4, #54	@ 0x36
 80005be:	bfde      	ittt	le
 80005c0:	2000      	movle	r0, #0
 80005c2:	f001 4100 	andle.w	r1, r1, #2147483648	@ 0x80000000
 80005c6:	bd70      	pople	{r4, r5, r6, pc}
 80005c8:	f1c4 0400 	rsb	r4, r4, #0
 80005cc:	3c20      	subs	r4, #32
 80005ce:	da35      	bge.n	800063c <__aeabi_dmul+0x164>
 80005d0:	340c      	adds	r4, #12
 80005d2:	dc1b      	bgt.n	800060c <__aeabi_dmul+0x134>
 80005d4:	f104 0414 	add.w	r4, r4, #20
 80005d8:	f1c4 0520 	rsb	r5, r4, #32
 80005dc:	fa00 f305 	lsl.w	r3, r0, r5
 80005e0:	fa20 f004 	lsr.w	r0, r0, r4
 80005e4:	fa01 f205 	lsl.w	r2, r1, r5
 80005e8:	ea40 0002 	orr.w	r0, r0, r2
 80005ec:	f001 4200 	and.w	r2, r1, #2147483648	@ 0x80000000
 80005f0:	f021 4100 	bic.w	r1, r1, #2147483648	@ 0x80000000
 80005f4:	eb10 70d3 	adds.w	r0, r0, r3, lsr #31
 80005f8:	fa21 f604 	lsr.w	r6, r1, r4
 80005fc:	eb42 0106 	adc.w	r1, r2, r6
 8000600:	ea5e 0e43 	orrs.w	lr, lr, r3, lsl #1
 8000604:	bf08      	it	eq
 8000606:	ea20 70d3 	biceq.w	r0, r0, r3, lsr #31
 800060a:	bd70      	pop	{r4, r5, r6, pc}
 800060c:	f1c4 040c 	rsb	r4, r4, #12
 8000610:	f1c4 0520 	rsb	r5, r4, #32
 8000614:	fa00 f304 	lsl.w	r3, r0, r4
 8000618:	fa20 f005 	lsr.w	r0, r0, r5
 800061c:	fa01 f204 	lsl.w	r2, r1, r4
 8000620:	ea40 0002 	orr.w	r0, r0, r2
 8000624:	f001 4100 	and.w	r1, r1, #2147483648	@ 0x80000000
 8000628:	eb10 70d3 	adds.w	r0, r0, r3, lsr #31
 800062c:	f141 0100 	adc.w	r1, r1, #0
 8000630:	ea5e 0e43 	orrs.w	lr, lr, r3, lsl #1
 8000634:	bf08      	it	eq
 8000636:	ea20 70d3 	biceq.w	r0, r0, r3, lsr #31
 800063a:	bd70      	pop	{r4, r5, r6, pc}
 800063c:	f1c4 0520 	rsb	r5, r4, #32
 8000640:	fa00 f205 	lsl.w	r2, r0, r5
 8000644:	ea4e 0e02 	orr.w	lr, lr, r2
 8000648:	fa20 f304 	lsr.w	r3, r0, r4
 800064c:	fa01 f205 	lsl.w	r2, r1, r5
 8000650:	ea43 0302 	orr.w	r3, r3, r2
 8000654:	fa21 f004 	lsr.w	r0, r1, r4
 8000658:	f001 4100 	and.w	r1, r1, #2147483648	@ 0x80000000
 800065c:	fa21 f204 	lsr.w	r2, r1, r4
 8000660:	ea20 0002 	bic.w	r0, r0, r2
 8000664:	eb00 70d3 	add.w	r0, r0, r3, lsr #31
 8000668:	ea5e 0e43 	orrs.w	lr, lr, r3, lsl #1
 800066c:	bf08      	it	eq
 800066e:	ea20 70d3 	biceq.w	r0, r0, r3, lsr #31
 8000672:	bd70      	pop	{r4, r5, r6, pc}
 8000674:	f094 0f00 	teq	r4, #0
 8000678:	d10f      	bne.n	800069a <__aeabi_dmul+0x1c2>
 800067a:	f001 4600 	and.w	r6, r1, #2147483648	@ 0x80000000
 800067e:	0040      	lsls	r0, r0, #1
 8000680:	eb41 0101 	adc.w	r1, r1, r1
 8000684:	f411 1f80 	tst.w	r1, #1048576	@ 0x100000
 8000688:	bf08      	it	eq
 800068a:	3c01      	subeq	r4, #1
 800068c:	d0f7      	beq.n	800067e <__aeabi_dmul+0x1a6>
 800068e:	ea41 0106 	orr.w	r1, r1, r6
 8000692:	f095 0f00 	teq	r5, #0
 8000696:	bf18      	it	ne
 8000698:	4770      	bxne	lr
 800069a:	f003 4600 	and.w	r6, r3, #2147483648	@ 0x80000000
 800069e:	0052      	lsls	r2, r2, #1
 80006a0:	eb43 0303 	adc.w	r3, r3, r3
 80006a4:	f413 1f80 	tst.w	r3, #1048576	@ 0x100000
 80006a8:	bf08      	it	eq
 80006aa:	3d01      	subeq	r5, #1
 80006ac:	d0f7      	beq.n	800069e <__aeabi_dmul+0x1c6>
 80006ae:	ea43 0306 	orr.w	r3, r3, r6
 80006b2:	4770      	bx	lr
 80006b4:	ea94 0f0c 	teq	r4, ip
 80006b8:	ea0c 5513 	and.w	r5, ip, r3, lsr #20
 80006bc:	bf18      	it	ne
 80006be:	ea95 0f0c 	teqne	r5, ip
 80006c2:	d00c      	beq.n	80006de <__aeabi_dmul+0x206>
 80006c4:	ea50 0641 	orrs.w	r6, r0, r1, lsl #1
 80006c8:	bf18      	it	ne
 80006ca:	ea52 0643 	orrsne.w	r6, r2, r3, lsl #1
 80006ce:	d1d1      	bne.n	8000674 <__aeabi_dmul+0x19c>
 80006d0:	ea81 0103 	eor.w	r1, r1, r3
 80006d4:	f001 4100 	and.w	r1, r1, #2147483648	@ 0x80000000
 80006d8:	f04f 0000 	mov.w	r0, #0
 80006dc:	bd70      	pop	{r4, r5, r6, pc}
 80006de:	ea50 0641 	orrs.w	r6, r0, r1, lsl #1
 80006e2:	bf06      	itte	eq
 80006e4:	4610      	moveq	r0, r2
 80006e6:	4619      	moveq	r1, r3
 80006e8:	ea52 0643 	orrsne.w	r6, r2, r3, lsl #1
 80006ec:	d019      	beq.n	8000722 <__aeabi_dmul+0x24a>
 80006ee:	ea94 0f0c 	teq	r4, ip
 80006f2:	d102      	bne.n	80006fa <__aeabi_dmul+0x222>
 80006f4:	ea50 3601 	orrs.w	r6, r0, r1, lsl #12
 80006f8:	d113      	bne.n	8000722 <__aeabi_dmul+0x24a>
 80006fa:	ea95 0f0c 	teq	r5, ip
 80006fe:	d105      	bne.n	800070c <__aeabi_dmul+0x234>
 8000700:	ea52 3603 	orrs.w	r6, r2, r3, lsl #12
 8000704:	bf1c      	itt	ne
 8000706:	4610      	movne	r0, r2
 8000708:	4619      	movne	r1, r3
 800070a:	d10a      	bne.n	8000722 <__aeabi_dmul+0x24a>
 800070c:	ea81 0103 	eor.w	r1, r1, r3
 8000710:	f001 4100 	and.w	r1, r1, #2147483648	@ 0x80000000
 8000714:	f041 41fe 	orr.w	r1, r1, #2130706432	@ 0x7f000000
 8000718:	f441 0170 	orr.w	r1, r1, #15728640	@ 0xf00000
 800071c:	f04f 0000 	mov.w	r0, #0
 8000720:	bd70      	pop	{r4, r5, r6, pc}
 8000722:	f041 41fe 	orr.w	r1, r1, #2130706432	@ 0x7f000000
 8000726:	f441 0178 	orr.w	r1, r1, #16252928	@ 0xf80000
 800072a:	bd70      	pop	{r4, r5, r6, pc}

0800072c <__aeabi_ddiv>:
 800072c:	b570      	push	{r4, r5, r6, lr}
 800072e:	f04f 0cff 	mov.w	ip, #255	@ 0xff
 8000732:	f44c 6ce0 	orr.w	ip, ip, #1792	@ 0x700
 8000736:	ea1c 5411 	ands.w	r4, ip, r1, lsr #20
 800073a:	bf1d      	ittte	ne
 800073c:	ea1c 5513 	andsne.w	r5, ip, r3, lsr #20
 8000740:	ea94 0f0c 	teqne	r4, ip
 8000744:	ea95 0f0c 	teqne	r5, ip
 8000748:	f000 f8a7 	bleq	800089a <__aeabi_ddiv+0x16e>
 800074c:	eba4 0405 	sub.w	r4, r4, r5
 8000750:	ea81 0e03 	eor.w	lr, r1, r3
 8000754:	ea52 3503 	orrs.w	r5, r2, r3, lsl #12
 8000758:	ea4f 3101 	mov.w	r1, r1, lsl #12
 800075c:	f000 8088 	beq.w	8000870 <__aeabi_ddiv+0x144>
 8000760:	ea4f 3303 	mov.w	r3, r3, lsl #12
 8000764:	f04f 5580 	mov.w	r5, #268435456	@ 0x10000000
 8000768:	ea45 1313 	orr.w	r3, r5, r3, lsr #4
 800076c:	ea43 6312 	orr.w	r3, r3, r2, lsr #24
 8000770:	ea4f 2202 	mov.w	r2, r2, lsl #8
 8000774:	ea45 1511 	orr.w	r5, r5, r1, lsr #4
 8000778:	ea45 6510 	orr.w	r5, r5, r0, lsr #24
 800077c:	ea4f 2600 	mov.w	r6, r0, lsl #8
 8000780:	f00e 4100 	and.w	r1, lr, #2147483648	@ 0x80000000
 8000784:	429d      	cmp	r5, r3
 8000786:	bf08      	it	eq
 8000788:	4296      	cmpeq	r6, r2
 800078a:	f144 04fd 	adc.w	r4, r4, #253	@ 0xfd
 800078e:	f504 7440 	add.w	r4, r4, #768	@ 0x300
 8000792:	d202      	bcs.n	800079a <__aeabi_ddiv+0x6e>
 8000794:	085b      	lsrs	r3, r3, #1
 8000796:	ea4f 0232 	mov.w	r2, r2, rrx
 800079a:	1ab6      	subs	r6, r6, r2
 800079c:	eb65 0503 	sbc.w	r5, r5, r3
 80007a0:	085b      	lsrs	r3, r3, #1
 80007a2:	ea4f 0232 	mov.w	r2, r2, rrx
 80007a6:	f44f 1080 	mov.w	r0, #1048576	@ 0x100000
 80007aa:	f44f 2c00 	mov.w	ip, #524288	@ 0x80000
 80007ae:	ebb6 0e02 	subs.w	lr, r6, r2
 80007b2:	eb75 0e03 	sbcs.w	lr, r5, r3
 80007b6:	bf22      	ittt	cs
 80007b8:	1ab6      	subcs	r6, r6, r2
 80007ba:	4675      	movcs	r5, lr
 80007bc:	ea40 000c 	orrcs.w	r0, r0, ip
 80007c0:	085b      	lsrs	r3, r3, #1
 80007c2:	ea4f 0232 	mov.w	r2, r2, rrx
 80007c6:	ebb6 0e02 	subs.w	lr, r6, r2
 80007ca:	eb75 0e03 	sbcs.w	lr, r5, r3
 80007ce:	bf22      	ittt	cs
 80007d0:	1ab6      	subcs	r6, r6, r2
 80007d2:	4675      	movcs	r5, lr
 80007d4:	ea40 005c 	orrcs.w	r0, r0, ip, lsr #1
 80007d8:	085b      	lsrs	r3, r3, #1
 80007da:	ea4f 0232 	mov.w	r2, r2, rrx
 80007de:	ebb6 0e02 	subs.w	lr, r6, r2
 80007e2:	eb75 0e03 	sbcs.w	lr, r5, r3
 80007e6:	bf22      	ittt	cs
 80007e8:	1ab6      	subcs	r6, r6, r2
 80007ea:	4675      	movcs	r5, lr
 80007ec:	ea40 009c 	orrcs.w	r0, r0, ip, lsr #2
 80007f0:	085b      	lsrs	r3, r3, #1
 80007f2:	ea4f 0232 	mov.w	r2, r2, rrx
 80007f6:	ebb6 0e02 	subs.w	lr, r6, r2
 80007fa:	eb75 0e03 	sbcs.w	lr, r5, r3
 80007fe:	bf22      	ittt	cs
 8000800:	1ab6      	subcs	r6, r6, r2
 8000802:	4675      	movcs	r5, lr
 8000804:	ea40 00dc 	orrcs.w	r0, r0, ip, lsr #3
 8000808:	ea55 0e06 	orrs.w	lr, r5, r6
 800080c:	d018      	beq.n	8000840 <__aeabi_ddiv+0x114>
 800080e:	ea4f 1505 	mov.w	r5, r5, lsl #4
 8000812:	ea45 7516 	orr.w	r5, r5, r6, lsr #28
 8000816:	ea4f 1606 	mov.w	r6, r6, lsl #4
 800081a:	ea4f 03c3 	mov.w	r3, r3, lsl #3
 800081e:	ea43 7352 	orr.w	r3, r3, r2, lsr #29
 8000822:	ea4f 02c2 	mov.w	r2, r2, lsl #3
 8000826:	ea5f 1c1c 	movs.w	ip, ip, lsr #4
 800082a:	d1c0      	bne.n	80007ae <__aeabi_ddiv+0x82>
 800082c:	f411 1f80 	tst.w	r1, #1048576	@ 0x100000
 8000830:	d10b      	bne.n	800084a <__aeabi_ddiv+0x11e>
 8000832:	ea41 0100 	orr.w	r1, r1, r0
 8000836:	f04f 0000 	mov.w	r0, #0
 800083a:	f04f 4c00 	mov.w	ip, #2147483648	@ 0x80000000
 800083e:	e7b6      	b.n	80007ae <__aeabi_ddiv+0x82>
 8000840:	f411 1f80 	tst.w	r1, #1048576	@ 0x100000
 8000844:	bf04      	itt	eq
 8000846:	4301      	orreq	r1, r0
 8000848:	2000      	moveq	r0, #0
 800084a:	f1b4 0cfd 	subs.w	ip, r4, #253	@ 0xfd
 800084e:	bf88      	it	hi
 8000850:	f5bc 6fe0 	cmphi.w	ip, #1792	@ 0x700
 8000854:	f63f aeaf 	bhi.w	80005b6 <__aeabi_dmul+0xde>
 8000858:	ebb5 0c03 	subs.w	ip, r5, r3
 800085c:	bf04      	itt	eq
 800085e:	ebb6 0c02 	subseq.w	ip, r6, r2
 8000862:	ea5f 0c50 	movseq.w	ip, r0, lsr #1
 8000866:	f150 0000 	adcs.w	r0, r0, #0
 800086a:	eb41 5104 	adc.w	r1, r1, r4, lsl #20
 800086e:	bd70      	pop	{r4, r5, r6, pc}
 8000870:	f00e 4e00 	and.w	lr, lr, #2147483648	@ 0x80000000
 8000874:	ea4e 3111 	orr.w	r1, lr, r1, lsr #12
 8000878:	eb14 045c 	adds.w	r4, r4, ip, lsr #1
 800087c:	bfc2      	ittt	gt
 800087e:	ebd4 050c 	rsbsgt	r5, r4, ip
 8000882:	ea41 5104 	orrgt.w	r1, r1, r4, lsl #20
 8000886:	bd70      	popgt	{r4, r5, r6, pc}
 8000888:	f441 1180 	orr.w	r1, r1, #1048576	@ 0x100000
 800088c:	f04f 0e00 	mov.w	lr, #0
 8000890:	3c01      	subs	r4, #1
 8000892:	e690      	b.n	80005b6 <__aeabi_dmul+0xde>
 8000894:	ea45 0e06 	orr.w	lr, r5, r6
 8000898:	e68d      	b.n	80005b6 <__aeabi_dmul+0xde>
 800089a:	ea0c 5513 	and.w	r5, ip, r3, lsr #20
 800089e:	ea94 0f0c 	teq	r4, ip
 80008a2:	bf08      	it	eq
 80008a4:	ea95 0f0c 	teqeq	r5, ip
 80008a8:	f43f af3b 	beq.w	8000722 <__aeabi_dmul+0x24a>
 80008ac:	ea94 0f0c 	teq	r4, ip
 80008b0:	d10a      	bne.n	80008c8 <__aeabi_ddiv+0x19c>
 80008b2:	ea50 3401 	orrs.w	r4, r0, r1, lsl #12
 80008b6:	f47f af34 	bne.w	8000722 <__aeabi_dmul+0x24a>
 80008ba:	ea95 0f0c 	teq	r5, ip
 80008be:	f47f af25 	bne.w	800070c <__aeabi_dmul+0x234>
 80008c2:	4610      	mov	r0, r2
 80008c4:	4619      	mov	r1, r3
 80008c6:	e72c      	b.n	8000722 <__aeabi_dmul+0x24a>
 80008c8:	ea95 0f0c 	teq	r5, ip
 80008cc:	d106      	bne.n	80008dc <__aeabi_ddiv+0x1b0>
 80008ce:	ea52 3503 	orrs.w	r5, r2, r3, lsl #12
 80008d2:	f43f aefd 	beq.w	80006d0 <__aeabi_dmul+0x1f8>
 80008d6:	4610      	mov	r0, r2
 80008d8:	4619      	mov	r1, r3
 80008da:	e722      	b.n	8000722 <__aeabi_dmul+0x24a>
 80008dc:	ea50 0641 	orrs.w	r6, r0, r1, lsl #1
 80008e0:	bf18      	it	ne
 80008e2:	ea52 0643 	orrsne.w	r6, r2, r3, lsl #1
 80008e6:	f47f aec5 	bne.w	8000674 <__aeabi_dmul+0x19c>
 80008ea:	ea50 0441 	orrs.w	r4, r0, r1, lsl #1
 80008ee:	f47f af0d 	bne.w	800070c <__aeabi_dmul+0x234>
 80008f2:	ea52 0543 	orrs.w	r5, r2, r3, lsl #1
 80008f6:	f47f aeeb 	bne.w	80006d0 <__aeabi_dmul+0x1f8>
 80008fa:	e712      	b.n	8000722 <__aeabi_dmul+0x24a>

080008fc <__gedf2>:
 80008fc:	f04f 3cff 	mov.w	ip, #4294967295	@ 0xffffffff
 8000900:	e006      	b.n	8000910 <__cmpdf2+0x4>
 8000902:	bf00      	nop

08000904 <__ledf2>:
 8000904:	f04f 0c01 	mov.w	ip, #1
 8000908:	e002      	b.n	8000910 <__cmpdf2+0x4>
 800090a:	bf00      	nop

0800090c <__cmpdf2>:
 800090c:	f04f 0c01 	mov.w	ip, #1
 8000910:	f84d cd04 	str.w	ip, [sp, #-4]!
 8000914:	ea4f 0c41 	mov.w	ip, r1, lsl #1
 8000918:	ea7f 5c6c 	mvns.w	ip, ip, asr #21
 800091c:	ea4f 0c43 	mov.w	ip, r3, lsl #1
 8000920:	bf18      	it	ne
 8000922:	ea7f 5c6c 	mvnsne.w	ip, ip, asr #21
 8000926:	d01b      	beq.n	8000960 <__cmpdf2+0x54>
 8000928:	b001      	add	sp, #4
 800092a:	ea50 0c41 	orrs.w	ip, r0, r1, lsl #1
 800092e:	bf0c      	ite	eq
 8000930:	ea52 0c43 	orrseq.w	ip, r2, r3, lsl #1
 8000934:	ea91 0f03 	teqne	r1, r3
 8000938:	bf02      	ittt	eq
 800093a:	ea90 0f02 	teqeq	r0, r2
 800093e:	2000      	moveq	r0, #0
 8000940:	4770      	bxeq	lr
 8000942:	f110 0f00 	cmn.w	r0, #0
 8000946:	ea91 0f03 	teq	r1, r3
 800094a:	bf58      	it	pl
 800094c:	4299      	cmppl	r1, r3
 800094e:	bf08      	it	eq
 8000950:	4290      	cmpeq	r0, r2
 8000952:	bf2c      	ite	cs
 8000954:	17d8      	asrcs	r0, r3, #31
 8000956:	ea6f 70e3 	mvncc.w	r0, r3, asr #31
 800095a:	f040 0001 	orr.w	r0, r0, #1
 800095e:	4770      	bx	lr
 8000960:	ea4f 0c41 	mov.w	ip, r1, lsl #1
 8000964:	ea7f 5c6c 	mvns.w	ip, ip, asr #21
 8000968:	d102      	bne.n	8000970 <__cmpdf2+0x64>
 800096a:	ea50 3c01 	orrs.w	ip, r0, r1, lsl #12
 800096e:	d107      	bne.n	8000980 <__cmpdf2+0x74>
 8000970:	ea4f 0c43 	mov.w	ip, r3, lsl #1
 8000974:	ea7f 5c6c 	mvns.w	ip, ip, asr #21
 8000978:	d1d6      	bne.n	8000928 <__cmpdf2+0x1c>
 800097a:	ea52 3c03 	orrs.w	ip, r2, r3, lsl #12
 800097e:	d0d3      	beq.n	8000928 <__cmpdf2+0x1c>
 8000980:	f85d 0b04 	ldr.w	r0, [sp], #4
 8000984:	4770      	bx	lr
 8000986:	bf00      	nop

08000988 <__aeabi_cdrcmple>:
 8000988:	4684      	mov	ip, r0
 800098a:	4610      	mov	r0, r2
 800098c:	4662      	mov	r2, ip
 800098e:	468c      	mov	ip, r1
 8000990:	4619      	mov	r1, r3
 8000992:	4663      	mov	r3, ip
 8000994:	e000      	b.n	8000998 <__aeabi_cdcmpeq>
 8000996:	bf00      	nop

08000998 <__aeabi_cdcmpeq>:
 8000998:	b501      	push	{r0, lr}
 800099a:	f7ff ffb7 	bl	800090c <__cmpdf2>
 800099e:	2800      	cmp	r0, #0
 80009a0:	bf48      	it	mi
 80009a2:	f110 0f00 	cmnmi.w	r0, #0
 80009a6:	bd01      	pop	{r0, pc}

080009a8 <__aeabi_dcmpeq>:
 80009a8:	f84d ed08 	str.w	lr, [sp, #-8]!
 80009ac:	f7ff fff4 	bl	8000998 <__aeabi_cdcmpeq>
 80009b0:	bf0c      	ite	eq
 80009b2:	2001      	moveq	r0, #1
 80009b4:	2000      	movne	r0, #0
 80009b6:	f85d fb08 	ldr.w	pc, [sp], #8
 80009ba:	bf00      	nop

080009bc <__aeabi_dcmplt>:
 80009bc:	f84d ed08 	str.w	lr, [sp, #-8]!
 80009c0:	f7ff ffea 	bl	8000998 <__aeabi_cdcmpeq>
 80009c4:	bf34      	ite	cc
 80009c6:	2001      	movcc	r0, #1
 80009c8:	2000      	movcs	r0, #0
 80009ca:	f85d fb08 	ldr.w	pc, [sp], #8
 80009ce:	bf00      	nop

080009d0 <__aeabi_dcmple>:
 80009d0:	f84d ed08 	str.w	lr, [sp, #-8]!
 80009d4:	f7ff ffe0 	bl	8000998 <__aeabi_cdcmpeq>
 80009d8:	bf94      	ite	ls
 80009da:	2001      	movls	r0, #1
 80009dc:	2000      	movhi	r0, #0
 80009de:	f85d fb08 	ldr.w	pc, [sp], #8
 80009e2:	bf00      	nop

080009e4 <__aeabi_dcmpge>:
 80009e4:	f84d ed08 	str.w	lr, [sp, #-8]!
 80009e8:	f7ff ffce 	bl	8000988 <__aeabi_cdrcmple>
 80009ec:	bf94      	ite	ls
 80009ee:	2001      	movls	r0, #1
 80009f0:	2000      	movhi	r0, #0
 80009f2:	f85d fb08 	ldr.w	pc, [sp], #8
 80009f6:	bf00      	nop

080009f8 <__aeabi_dcmpgt>:
 80009f8:	f84d ed08 	str.w	lr, [sp, #-8]!
 80009fc:	f7ff ffc4 	bl	8000988 <__aeabi_cdrcmple>
 8000a00:	bf34      	ite	cc
 8000a02:	2001      	movcc	r0, #1
 8000a04:	2000      	movcs	r0, #0
 8000a06:	f85d fb08 	ldr.w	pc, [sp], #8
 8000a0a:	bf00      	nop

08000a0c <__aeabi_dcmpun>:
 8000a0c:	ea4f 0c41 	mov.w	ip, r1, lsl #1
 8000a10:	ea7f 5c6c 	mvns.w	ip, ip, asr #21
 8000a14:	d102      	bne.n	8000a1c <__aeabi_dcmpun+0x10>
 8000a16:	ea50 3c01 	orrs.w	ip, r0, r1, lsl #12
 8000a1a:	d10a      	bne.n	8000a32 <__aeabi_dcmpun+0x26>
 8000a1c:	ea4f 0c43 	mov.w	ip, r3, lsl #1
 8000a20:	ea7f 5c6c 	mvns.w	ip, ip, asr #21
 8000a24:	d102      	bne.n	8000a2c <__aeabi_dcmpun+0x20>
 8000a26:	ea52 3c03 	orrs.w	ip, r2, r3, lsl #12
 8000a2a:	d102      	bne.n	8000a32 <__aeabi_dcmpun+0x26>
 8000a2c:	f04f 0000 	mov.w	r0, #0
 8000a30:	4770      	bx	lr
 8000a32:	f04f 0001 	mov.w	r0, #1
 8000a36:	4770      	bx	lr

08000a38 <__aeabi_d2iz>:
 8000a38:	ea4f 0241 	mov.w	r2, r1, lsl #1
 8000a3c:	f512 1200 	adds.w	r2, r2, #2097152	@ 0x200000
 8000a40:	d215      	bcs.n	8000a6e <__aeabi_d2iz+0x36>
 8000a42:	d511      	bpl.n	8000a68 <__aeabi_d2iz+0x30>
 8000a44:	f46f 7378 	mvn.w	r3, #992	@ 0x3e0
 8000a48:	ebb3 5262 	subs.w	r2, r3, r2, asr #21
 8000a4c:	d912      	bls.n	8000a74 <__aeabi_d2iz+0x3c>
 8000a4e:	ea4f 23c1 	mov.w	r3, r1, lsl #11
 8000a52:	f043 4300 	orr.w	r3, r3, #2147483648	@ 0x80000000
 8000a56:	ea43 5350 	orr.w	r3, r3, r0, lsr #21
 8000a5a:	f011 4f00 	tst.w	r1, #2147483648	@ 0x80000000
 8000a5e:	fa23 f002 	lsr.w	r0, r3, r2
 8000a62:	bf18      	it	ne
 8000a64:	4240      	negne	r0, r0
 8000a66:	4770      	bx	lr
 8000a68:	f04f 0000 	mov.w	r0, #0
 8000a6c:	4770      	bx	lr
 8000a6e:	ea50 3001 	orrs.w	r0, r0, r1, lsl #12
 8000a72:	d105      	bne.n	8000a80 <__aeabi_d2iz+0x48>
 8000a74:	f011 4000 	ands.w	r0, r1, #2147483648	@ 0x80000000
 8000a78:	bf08      	it	eq
 8000a7a:	f06f 4000 	mvneq.w	r0, #2147483648	@ 0x80000000
 8000a7e:	4770      	bx	lr
 8000a80:	f04f 0000 	mov.w	r0, #0
 8000a84:	4770      	bx	lr
 8000a86:	bf00      	nop

08000a88 <__aeabi_frsub>:
 8000a88:	f080 4000 	eor.w	r0, r0, #2147483648	@ 0x80000000
 8000a8c:	e002      	b.n	8000a94 <__addsf3>
 8000a8e:	bf00      	nop

08000a90 <__aeabi_fsub>:
 8000a90:	f081 4100 	eor.w	r1, r1, #2147483648	@ 0x80000000

08000a94 <__addsf3>:
 8000a94:	0042      	lsls	r2, r0, #1
 8000a96:	bf1f      	itttt	ne
 8000a98:	ea5f 0341 	movsne.w	r3, r1, lsl #1
 8000a9c:	ea92 0f03 	teqne	r2, r3
 8000aa0:	ea7f 6c22 	mvnsne.w	ip, r2, asr #24
 8000aa4:	ea7f 6c23 	mvnsne.w	ip, r3, asr #24
 8000aa8:	d06a      	beq.n	8000b80 <__addsf3+0xec>
 8000aaa:	ea4f 6212 	mov.w	r2, r2, lsr #24
 8000aae:	ebd2 6313 	rsbs	r3, r2, r3, lsr #24
 8000ab2:	bfc1      	itttt	gt
 8000ab4:	18d2      	addgt	r2, r2, r3
 8000ab6:	4041      	eorgt	r1, r0
 8000ab8:	4048      	eorgt	r0, r1
 8000aba:	4041      	eorgt	r1, r0
 8000abc:	bfb8      	it	lt
 8000abe:	425b      	neglt	r3, r3
 8000ac0:	2b19      	cmp	r3, #25
 8000ac2:	bf88      	it	hi
 8000ac4:	4770      	bxhi	lr
 8000ac6:	f010 4f00 	tst.w	r0, #2147483648	@ 0x80000000
 8000aca:	f440 0000 	orr.w	r0, r0, #8388608	@ 0x800000
 8000ace:	f020 407f 	bic.w	r0, r0, #4278190080	@ 0xff000000
 8000ad2:	bf18      	it	ne
 8000ad4:	4240      	negne	r0, r0
 8000ad6:	f011 4f00 	tst.w	r1, #2147483648	@ 0x80000000
 8000ada:	f441 0100 	orr.w	r1, r1, #8388608	@ 0x800000
 8000ade:	f021 417f 	bic.w	r1, r1, #4278190080	@ 0xff000000
 8000ae2:	bf18      	it	ne
 8000ae4:	4249      	negne	r1, r1
 8000ae6:	ea92 0f03 	teq	r2, r3
 8000aea:	d03f      	beq.n	8000b6c <__addsf3+0xd8>
 8000aec:	f1a2 0201 	sub.w	r2, r2, #1
 8000af0:	fa41 fc03 	asr.w	ip, r1, r3
 8000af4:	eb10 000c 	adds.w	r0, r0, ip
 8000af8:	f1c3 0320 	rsb	r3, r3, #32
 8000afc:	fa01 f103 	lsl.w	r1, r1, r3
 8000b00:	f000 4300 	and.w	r3, r0, #2147483648	@ 0x80000000
 8000b04:	d502      	bpl.n	8000b0c <__addsf3+0x78>
 8000b06:	4249      	negs	r1, r1
 8000b08:	eb60 0040 	sbc.w	r0, r0, r0, lsl #1
 8000b0c:	f5b0 0f00 	cmp.w	r0, #8388608	@ 0x800000
 8000b10:	d313      	bcc.n	8000b3a <__addsf3+0xa6>
 8000b12:	f1b0 7f80 	cmp.w	r0, #16777216	@ 0x1000000
 8000b16:	d306      	bcc.n	8000b26 <__addsf3+0x92>
 8000b18:	0840      	lsrs	r0, r0, #1
 8000b1a:	ea4f 0131 	mov.w	r1, r1, rrx
 8000b1e:	f102 0201 	add.w	r2, r2, #1
 8000b22:	2afe      	cmp	r2, #254	@ 0xfe
 8000b24:	d251      	bcs.n	8000bca <__addsf3+0x136>
 8000b26:	f1b1 4f00 	cmp.w	r1, #2147483648	@ 0x80000000
 8000b2a:	eb40 50c2 	adc.w	r0, r0, r2, lsl #23
 8000b2e:	bf08      	it	eq
 8000b30:	f020 0001 	biceq.w	r0, r0, #1
 8000b34:	ea40 0003 	orr.w	r0, r0, r3
 8000b38:	4770      	bx	lr
 8000b3a:	0049      	lsls	r1, r1, #1
 8000b3c:	eb40 0000 	adc.w	r0, r0, r0
 8000b40:	3a01      	subs	r2, #1
 8000b42:	bf28      	it	cs
 8000b44:	f5b0 0f00 	cmpcs.w	r0, #8388608	@ 0x800000
 8000b48:	d2ed      	bcs.n	8000b26 <__addsf3+0x92>
 8000b4a:	fab0 fc80 	clz	ip, r0
 8000b4e:	f1ac 0c08 	sub.w	ip, ip, #8
 8000b52:	ebb2 020c 	subs.w	r2, r2, ip
 8000b56:	fa00 f00c 	lsl.w	r0, r0, ip
 8000b5a:	bfaa      	itet	ge
 8000b5c:	eb00 50c2 	addge.w	r0, r0, r2, lsl #23
 8000b60:	4252      	neglt	r2, r2
 8000b62:	4318      	orrge	r0, r3
 8000b64:	bfbc      	itt	lt
 8000b66:	40d0      	lsrlt	r0, r2
 8000b68:	4318      	orrlt	r0, r3
 8000b6a:	4770      	bx	lr
 8000b6c:	f092 0f00 	teq	r2, #0
 8000b70:	f481 0100 	eor.w	r1, r1, #8388608	@ 0x800000
 8000b74:	bf06      	itte	eq
 8000b76:	f480 0000 	eoreq.w	r0, r0, #8388608	@ 0x800000
 8000b7a:	3201      	addeq	r2, #1
 8000b7c:	3b01      	subne	r3, #1
 8000b7e:	e7b5      	b.n	8000aec <__addsf3+0x58>
 8000b80:	ea4f 0341 	mov.w	r3, r1, lsl #1
 8000b84:	ea7f 6c22 	mvns.w	ip, r2, asr #24
 8000b88:	bf18      	it	ne
 8000b8a:	ea7f 6c23 	mvnsne.w	ip, r3, asr #24
 8000b8e:	d021      	beq.n	8000bd4 <__addsf3+0x140>
 8000b90:	ea92 0f03 	teq	r2, r3
 8000b94:	d004      	beq.n	8000ba0 <__addsf3+0x10c>
 8000b96:	f092 0f00 	teq	r2, #0
 8000b9a:	bf08      	it	eq
 8000b9c:	4608      	moveq	r0, r1
 8000b9e:	4770      	bx	lr
 8000ba0:	ea90 0f01 	teq	r0, r1
 8000ba4:	bf1c      	itt	ne
 8000ba6:	2000      	movne	r0, #0
 8000ba8:	4770      	bxne	lr
 8000baa:	f012 4f7f 	tst.w	r2, #4278190080	@ 0xff000000
 8000bae:	d104      	bne.n	8000bba <__addsf3+0x126>
 8000bb0:	0040      	lsls	r0, r0, #1
 8000bb2:	bf28      	it	cs
 8000bb4:	f040 4000 	orrcs.w	r0, r0, #2147483648	@ 0x80000000
 8000bb8:	4770      	bx	lr
 8000bba:	f112 7200 	adds.w	r2, r2, #33554432	@ 0x2000000
 8000bbe:	bf3c      	itt	cc
 8000bc0:	f500 0000 	addcc.w	r0, r0, #8388608	@ 0x800000
 8000bc4:	4770      	bxcc	lr
 8000bc6:	f000 4300 	and.w	r3, r0, #2147483648	@ 0x80000000
 8000bca:	f043 40fe 	orr.w	r0, r3, #2130706432	@ 0x7f000000
 8000bce:	f440 0000 	orr.w	r0, r0, #8388608	@ 0x800000
 8000bd2:	4770      	bx	lr
 8000bd4:	ea7f 6222 	mvns.w	r2, r2, asr #24
 8000bd8:	bf16      	itet	ne
 8000bda:	4608      	movne	r0, r1
 8000bdc:	ea7f 6323 	mvnseq.w	r3, r3, asr #24
 8000be0:	4601      	movne	r1, r0
 8000be2:	0242      	lsls	r2, r0, #9
 8000be4:	bf06      	itte	eq
 8000be6:	ea5f 2341 	movseq.w	r3, r1, lsl #9
 8000bea:	ea90 0f01 	teqeq	r0, r1
 8000bee:	f440 0080 	orrne.w	r0, r0, #4194304	@ 0x400000
 8000bf2:	4770      	bx	lr

08000bf4 <__aeabi_ui2f>:
 8000bf4:	f04f 0300 	mov.w	r3, #0
 8000bf8:	e004      	b.n	8000c04 <__aeabi_i2f+0x8>
 8000bfa:	bf00      	nop

08000bfc <__aeabi_i2f>:
 8000bfc:	f010 4300 	ands.w	r3, r0, #2147483648	@ 0x80000000
 8000c00:	bf48      	it	mi
 8000c02:	4240      	negmi	r0, r0
 8000c04:	ea5f 0c00 	movs.w	ip, r0
 8000c08:	bf08      	it	eq
 8000c0a:	4770      	bxeq	lr
 8000c0c:	f043 4396 	orr.w	r3, r3, #1258291200	@ 0x4b000000
 8000c10:	4601      	mov	r1, r0
 8000c12:	f04f 0000 	mov.w	r0, #0
 8000c16:	e01c      	b.n	8000c52 <__aeabi_l2f+0x2a>

08000c18 <__aeabi_ul2f>:
 8000c18:	ea50 0201 	orrs.w	r2, r0, r1
 8000c1c:	bf08      	it	eq
 8000c1e:	4770      	bxeq	lr
 8000c20:	f04f 0300 	mov.w	r3, #0
 8000c24:	e00a      	b.n	8000c3c <__aeabi_l2f+0x14>
 8000c26:	bf00      	nop

08000c28 <__aeabi_l2f>:
 8000c28:	ea50 0201 	orrs.w	r2, r0, r1
 8000c2c:	bf08      	it	eq
 8000c2e:	4770      	bxeq	lr
 8000c30:	f011 4300 	ands.w	r3, r1, #2147483648	@ 0x80000000
 8000c34:	d502      	bpl.n	8000c3c <__aeabi_l2f+0x14>
 8000c36:	4240      	negs	r0, r0
 8000c38:	eb61 0141 	sbc.w	r1, r1, r1, lsl #1
 8000c3c:	ea5f 0c01 	movs.w	ip, r1
 8000c40:	bf02      	ittt	eq
 8000c42:	4684      	moveq	ip, r0
 8000c44:	4601      	moveq	r1, r0
 8000c46:	2000      	moveq	r0, #0
 8000c48:	f043 43b6 	orr.w	r3, r3, #1526726656	@ 0x5b000000
 8000c4c:	bf08      	it	eq
 8000c4e:	f1a3 5380 	subeq.w	r3, r3, #268435456	@ 0x10000000
 8000c52:	f5a3 0300 	sub.w	r3, r3, #8388608	@ 0x800000
 8000c56:	fabc f28c 	clz	r2, ip
 8000c5a:	3a08      	subs	r2, #8
 8000c5c:	eba3 53c2 	sub.w	r3, r3, r2, lsl #23
 8000c60:	db10      	blt.n	8000c84 <__aeabi_l2f+0x5c>
 8000c62:	fa01 fc02 	lsl.w	ip, r1, r2
 8000c66:	4463      	add	r3, ip
 8000c68:	fa00 fc02 	lsl.w	ip, r0, r2
 8000c6c:	f1c2 0220 	rsb	r2, r2, #32
 8000c70:	f1bc 4f00 	cmp.w	ip, #2147483648	@ 0x80000000
 8000c74:	fa20 f202 	lsr.w	r2, r0, r2
 8000c78:	eb43 0002 	adc.w	r0, r3, r2
 8000c7c:	bf08      	it	eq
 8000c7e:	f020 0001 	biceq.w	r0, r0, #1
 8000c82:	4770      	bx	lr
 8000c84:	f102 0220 	add.w	r2, r2, #32
 8000c88:	fa01 fc02 	lsl.w	ip, r1, r2
 8000c8c:	f1c2 0220 	rsb	r2, r2, #32
 8000c90:	ea50 004c 	orrs.w	r0, r0, ip, lsl #1
 8000c94:	fa21 f202 	lsr.w	r2, r1, r2
 8000c98:	eb43 0002 	adc.w	r0, r3, r2
 8000c9c:	bf08      	it	eq
 8000c9e:	ea20 70dc 	biceq.w	r0, r0, ip, lsr #31
 8000ca2:	4770      	bx	lr

08000ca4 <__aeabi_fmul>:
 8000ca4:	f04f 0cff 	mov.w	ip, #255	@ 0xff
 8000ca8:	ea1c 52d0 	ands.w	r2, ip, r0, lsr #23
 8000cac:	bf1e      	ittt	ne
 8000cae:	ea1c 53d1 	andsne.w	r3, ip, r1, lsr #23
 8000cb2:	ea92 0f0c 	teqne	r2, ip
 8000cb6:	ea93 0f0c 	teqne	r3, ip
 8000cba:	d06f      	beq.n	8000d9c <__aeabi_fmul+0xf8>
 8000cbc:	441a      	add	r2, r3
 8000cbe:	ea80 0c01 	eor.w	ip, r0, r1
 8000cc2:	0240      	lsls	r0, r0, #9
 8000cc4:	bf18      	it	ne
 8000cc6:	ea5f 2141 	movsne.w	r1, r1, lsl #9
 8000cca:	d01e      	beq.n	8000d0a <__aeabi_fmul+0x66>
 8000ccc:	f04f 6300 	mov.w	r3, #134217728	@ 0x8000000
 8000cd0:	ea43 1050 	orr.w	r0, r3, r0, lsr #5
 8000cd4:	ea43 1151 	orr.w	r1, r3, r1, lsr #5
 8000cd8:	fba0 3101 	umull	r3, r1, r0, r1
 8000cdc:	f00c 4000 	and.w	r0, ip, #2147483648	@ 0x80000000
 8000ce0:	f5b1 0f00 	cmp.w	r1, #8388608	@ 0x800000
 8000ce4:	bf3e      	ittt	cc
 8000ce6:	0049      	lslcc	r1, r1, #1
 8000ce8:	ea41 71d3 	orrcc.w	r1, r1, r3, lsr #31
 8000cec:	005b      	lslcc	r3, r3, #1
 8000cee:	ea40 0001 	orr.w	r0, r0, r1
 8000cf2:	f162 027f 	sbc.w	r2, r2, #127	@ 0x7f
 8000cf6:	2afd      	cmp	r2, #253	@ 0xfd
 8000cf8:	d81d      	bhi.n	8000d36 <__aeabi_fmul+0x92>
 8000cfa:	f1b3 4f00 	cmp.w	r3, #2147483648	@ 0x80000000
 8000cfe:	eb40 50c2 	adc.w	r0, r0, r2, lsl #23
 8000d02:	bf08      	it	eq
 8000d04:	f020 0001 	biceq.w	r0, r0, #1
 8000d08:	4770      	bx	lr
 8000d0a:	f090 0f00 	teq	r0, #0
 8000d0e:	f00c 4c00 	and.w	ip, ip, #2147483648	@ 0x80000000
 8000d12:	bf08      	it	eq
 8000d14:	0249      	lsleq	r1, r1, #9
 8000d16:	ea4c 2050 	orr.w	r0, ip, r0, lsr #9
 8000d1a:	ea40 2051 	orr.w	r0, r0, r1, lsr #9
 8000d1e:	3a7f      	subs	r2, #127	@ 0x7f
 8000d20:	bfc2      	ittt	gt
 8000d22:	f1d2 03ff 	rsbsgt	r3, r2, #255	@ 0xff
 8000d26:	ea40 50c2 	orrgt.w	r0, r0, r2, lsl #23
 8000d2a:	4770      	bxgt	lr
 8000d2c:	f440 0000 	orr.w	r0, r0, #8388608	@ 0x800000
 8000d30:	f04f 0300 	mov.w	r3, #0
 8000d34:	3a01      	subs	r2, #1
 8000d36:	dc5d      	bgt.n	8000df4 <__aeabi_fmul+0x150>
 8000d38:	f112 0f19 	cmn.w	r2, #25
 8000d3c:	bfdc      	itt	le
 8000d3e:	f000 4000 	andle.w	r0, r0, #2147483648	@ 0x80000000
 8000d42:	4770      	bxle	lr
 8000d44:	f1c2 0200 	rsb	r2, r2, #0
 8000d48:	0041      	lsls	r1, r0, #1
 8000d4a:	fa21 f102 	lsr.w	r1, r1, r2
 8000d4e:	f1c2 0220 	rsb	r2, r2, #32
 8000d52:	fa00 fc02 	lsl.w	ip, r0, r2
 8000d56:	ea5f 0031 	movs.w	r0, r1, rrx
 8000d5a:	f140 0000 	adc.w	r0, r0, #0
 8000d5e:	ea53 034c 	orrs.w	r3, r3, ip, lsl #1
 8000d62:	bf08      	it	eq
 8000d64:	ea20 70dc 	biceq.w	r0, r0, ip, lsr #31
 8000d68:	4770      	bx	lr
 8000d6a:	f092 0f00 	teq	r2, #0
 8000d6e:	f000 4c00 	and.w	ip, r0, #2147483648	@ 0x80000000
 8000d72:	bf02      	ittt	eq
 8000d74:	0040      	lsleq	r0, r0, #1
 8000d76:	f410 0f00 	tsteq.w	r0, #8388608	@ 0x800000
 8000d7a:	3a01      	subeq	r2, #1
 8000d7c:	d0f9      	beq.n	8000d72 <__aeabi_fmul+0xce>
 8000d7e:	ea40 000c 	orr.w	r0, r0, ip
 8000d82:	f093 0f00 	teq	r3, #0
 8000d86:	f001 4c00 	and.w	ip, r1, #2147483648	@ 0x80000000
 8000d8a:	bf02      	ittt	eq
 8000d8c:	0049      	lsleq	r1, r1, #1
 8000d8e:	f411 0f00 	tsteq.w	r1, #8388608	@ 0x800000
 8000d92:	3b01      	subeq	r3, #1
 8000d94:	d0f9      	beq.n	8000d8a <__aeabi_fmul+0xe6>
 8000d96:	ea41 010c 	orr.w	r1, r1, ip
 8000d9a:	e78f      	b.n	8000cbc <__aeabi_fmul+0x18>
 8000d9c:	ea0c 53d1 	and.w	r3, ip, r1, lsr #23
 8000da0:	ea92 0f0c 	teq	r2, ip
 8000da4:	bf18      	it	ne
 8000da6:	ea93 0f0c 	teqne	r3, ip
 8000daa:	d00a      	beq.n	8000dc2 <__aeabi_fmul+0x11e>
 8000dac:	f030 4c00 	bics.w	ip, r0, #2147483648	@ 0x80000000
 8000db0:	bf18      	it	ne
 8000db2:	f031 4c00 	bicsne.w	ip, r1, #2147483648	@ 0x80000000
 8000db6:	d1d8      	bne.n	8000d6a <__aeabi_fmul+0xc6>
 8000db8:	ea80 0001 	eor.w	r0, r0, r1
 8000dbc:	f000 4000 	and.w	r0, r0, #2147483648	@ 0x80000000
 8000dc0:	4770      	bx	lr
 8000dc2:	f090 0f00 	teq	r0, #0
 8000dc6:	bf17      	itett	ne
 8000dc8:	f090 4f00 	teqne	r0, #2147483648	@ 0x80000000
 8000dcc:	4608      	moveq	r0, r1
 8000dce:	f091 0f00 	teqne	r1, #0
 8000dd2:	f091 4f00 	teqne	r1, #2147483648	@ 0x80000000
 8000dd6:	d014      	beq.n	8000e02 <__aeabi_fmul+0x15e>
 8000dd8:	ea92 0f0c 	teq	r2, ip
 8000ddc:	d101      	bne.n	8000de2 <__aeabi_fmul+0x13e>
 8000dde:	0242      	lsls	r2, r0, #9
 8000de0:	d10f      	bne.n	8000e02 <__aeabi_fmul+0x15e>
 8000de2:	ea93 0f0c 	teq	r3, ip
 8000de6:	d103      	bne.n	8000df0 <__aeabi_fmul+0x14c>
 8000de8:	024b      	lsls	r3, r1, #9
 8000dea:	bf18      	it	ne
 8000dec:	4608      	movne	r0, r1
 8000dee:	d108      	bne.n	8000e02 <__aeabi_fmul+0x15e>
 8000df0:	ea80 0001 	eor.w	r0, r0, r1
 8000df4:	f000 4000 	and.w	r0, r0, #2147483648	@ 0x80000000
 8000df8:	f040 40fe 	orr.w	r0, r0, #2130706432	@ 0x7f000000
 8000dfc:	f440 0000 	orr.w	r0, r0, #8388608	@ 0x800000
 8000e00:	4770      	bx	lr
 8000e02:	f040 40fe 	orr.w	r0, r0, #2130706432	@ 0x7f000000
 8000e06:	f440 0040 	orr.w	r0, r0, #12582912	@ 0xc00000
 8000e0a:	4770      	bx	lr

08000e0c <__aeabi_fdiv>:
 8000e0c:	f04f 0cff 	mov.w	ip, #255	@ 0xff
 8000e10:	ea1c 52d0 	ands.w	r2, ip, r0, lsr #23
 8000e14:	bf1e      	ittt	ne
 8000e16:	ea1c 53d1 	andsne.w	r3, ip, r1, lsr #23
 8000e1a:	ea92 0f0c 	teqne	r2, ip
 8000e1e:	ea93 0f0c 	teqne	r3, ip
 8000e22:	d069      	beq.n	8000ef8 <__aeabi_fdiv+0xec>
 8000e24:	eba2 0203 	sub.w	r2, r2, r3
 8000e28:	ea80 0c01 	eor.w	ip, r0, r1
 8000e2c:	0249      	lsls	r1, r1, #9
 8000e2e:	ea4f 2040 	mov.w	r0, r0, lsl #9
 8000e32:	d037      	beq.n	8000ea4 <__aeabi_fdiv+0x98>
 8000e34:	f04f 5380 	mov.w	r3, #268435456	@ 0x10000000
 8000e38:	ea43 1111 	orr.w	r1, r3, r1, lsr #4
 8000e3c:	ea43 1310 	orr.w	r3, r3, r0, lsr #4
 8000e40:	f00c 4000 	and.w	r0, ip, #2147483648	@ 0x80000000
 8000e44:	428b      	cmp	r3, r1
 8000e46:	bf38      	it	cc
 8000e48:	005b      	lslcc	r3, r3, #1
 8000e4a:	f142 027d 	adc.w	r2, r2, #125	@ 0x7d
 8000e4e:	f44f 0c00 	mov.w	ip, #8388608	@ 0x800000
 8000e52:	428b      	cmp	r3, r1
 8000e54:	bf24      	itt	cs
 8000e56:	1a5b      	subcs	r3, r3, r1
 8000e58:	ea40 000c 	orrcs.w	r0, r0, ip
 8000e5c:	ebb3 0f51 	cmp.w	r3, r1, lsr #1
 8000e60:	bf24      	itt	cs
 8000e62:	eba3 0351 	subcs.w	r3, r3, r1, lsr #1
 8000e66:	ea40 005c 	orrcs.w	r0, r0, ip, lsr #1
 8000e6a:	ebb3 0f91 	cmp.w	r3, r1, lsr #2
 8000e6e:	bf24      	itt	cs
 8000e70:	eba3 0391 	subcs.w	r3, r3, r1, lsr #2
 8000e74:	ea40 009c 	orrcs.w	r0, r0, ip, lsr #2
 8000e78:	ebb3 0fd1 	cmp.w	r3, r1, lsr #3
 8000e7c:	bf24      	itt	cs
 8000e7e:	eba3 03d1 	subcs.w	r3, r3, r1, lsr #3
 8000e82:	ea40 00dc 	orrcs.w	r0, r0, ip, lsr #3
 8000e86:	011b      	lsls	r3, r3, #4
 8000e88:	bf18      	it	ne
 8000e8a:	ea5f 1c1c 	movsne.w	ip, ip, lsr #4
 8000e8e:	d1e0      	bne.n	8000e52 <__aeabi_fdiv+0x46>
 8000e90:	2afd      	cmp	r2, #253	@ 0xfd
 8000e92:	f63f af50 	bhi.w	8000d36 <__aeabi_fmul+0x92>
 8000e96:	428b      	cmp	r3, r1
 8000e98:	eb40 50c2 	adc.w	r0, r0, r2, lsl #23
 8000e9c:	bf08      	it	eq
 8000e9e:	f020 0001 	biceq.w	r0, r0, #1
 8000ea2:	4770      	bx	lr
 8000ea4:	f00c 4c00 	and.w	ip, ip, #2147483648	@ 0x80000000
 8000ea8:	ea4c 2050 	orr.w	r0, ip, r0, lsr #9
 8000eac:	327f      	adds	r2, #127	@ 0x7f
 8000eae:	bfc2      	ittt	gt
 8000eb0:	f1d2 03ff 	rsbsgt	r3, r2, #255	@ 0xff
 8000eb4:	ea40 50c2 	orrgt.w	r0, r0, r2, lsl #23
 8000eb8:	4770      	bxgt	lr
 8000eba:	f440 0000 	orr.w	r0, r0, #8388608	@ 0x800000
 8000ebe:	f04f 0300 	mov.w	r3, #0
 8000ec2:	3a01      	subs	r2, #1
 8000ec4:	e737      	b.n	8000d36 <__aeabi_fmul+0x92>
 8000ec6:	f092 0f00 	teq	r2, #0
 8000eca:	f000 4c00 	and.w	ip, r0, #2147483648	@ 0x80000000
 8000ece:	bf02      	ittt	eq
 8000ed0:	0040      	lsleq	r0, r0, #1
 8000ed2:	f410 0f00 	tsteq.w	r0, #8388608	@ 0x800000
 8000ed6:	3a01      	subeq	r2, #1
 8000ed8:	d0f9      	beq.n	8000ece <__aeabi_fdiv+0xc2>
 8000eda:	ea40 000c 	orr.w	r0, r0, ip
 8000ede:	f093 0f00 	teq	r3, #0
 8000ee2:	f001 4c00 	and.w	ip, r1, #2147483648	@ 0x80000000
 8000ee6:	bf02      	ittt	eq
 8000ee8:	0049      	lsleq	r1, r1, #1
 8000eea:	f411 0f00 	tsteq.w	r1, #8388608	@ 0x800000
 8000eee:	3b01      	subeq	r3, #1
 8000ef0:	d0f9      	beq.n	8000ee6 <__aeabi_fdiv+0xda>
 8000ef2:	ea41 010c 	orr.w	r1, r1, ip
 8000ef6:	e795      	b.n	8000e24 <__aeabi_fdiv+0x18>
 8000ef8:	ea0c 53d1 	and.w	r3, ip, r1, lsr #23
 8000efc:	ea92 0f0c 	teq	r2, ip
 8000f00:	d108      	bne.n	8000f14 <__aeabi_fdiv+0x108>
 8000f02:	0242      	lsls	r2, r0, #9
 8000f04:	f47f af7d 	bne.w	8000e02 <__aeabi_fmul+0x15e>
 8000f08:	ea93 0f0c 	teq	r3, ip
 8000f0c:	f47f af70 	bne.w	8000df0 <__aeabi_fmul+0x14c>
 8000f10:	4608      	mov	r0, r1
 8000f12:	e776      	b.n	8000e02 <__aeabi_fmul+0x15e>
 8000f14:	ea93 0f0c 	teq	r3, ip
 8000f18:	d104      	bne.n	8000f24 <__aeabi_fdiv+0x118>
 8000f1a:	024b      	lsls	r3, r1, #9
 8000f1c:	f43f af4c 	beq.w	8000db8 <__aeabi_fmul+0x114>
 8000f20:	4608      	mov	r0, r1
 8000f22:	e76e      	b.n	8000e02 <__aeabi_fmul+0x15e>
 8000f24:	f030 4c00 	bics.w	ip, r0, #2147483648	@ 0x80000000
 8000f28:	bf18      	it	ne
 8000f2a:	f031 4c00 	bicsne.w	ip, r1, #2147483648	@ 0x80000000
 8000f2e:	d1ca      	bne.n	8000ec6 <__aeabi_fdiv+0xba>
 8000f30:	f030 4200 	bics.w	r2, r0, #2147483648	@ 0x80000000
 8000f34:	f47f af5c 	bne.w	8000df0 <__aeabi_fmul+0x14c>
 8000f38:	f031 4300 	bics.w	r3, r1, #2147483648	@ 0x80000000
 8000f3c:	f47f af3c 	bne.w	8000db8 <__aeabi_fmul+0x114>
 8000f40:	e75f      	b.n	8000e02 <__aeabi_fmul+0x15e>
 8000f42:	bf00      	nop

08000f44 <main>:
/**
  * @brief  The application entry point.
  * @retval int
  */
int main(void)
{
 8000f44:	b580      	push	{r7, lr}
 8000f46:	af00      	add	r7, sp, #0
  /* USER CODE END 1 */

  /* MCU Configuration--------------------------------------------------------*/

  /* Reset of all peripherals, Initializes the Flash interface and the Systick. */
  HAL_Init();
 8000f48:	f000 fc30 	bl	80017ac <HAL_Init>
  /* USER CODE BEGIN Init */

  /* USER CODE END Init */

  /* Configure the system clock */
  SystemClock_Config();
 8000f4c:	f000 f852 	bl	8000ff4 <SystemClock_Config>
  /* USER CODE BEGIN SysInit */

  /* USER CODE END SysInit */

  /* Initialize all configured peripherals */
  MX_GPIO_Init();
 8000f50:	f000 f97c 	bl	800124c <MX_GPIO_Init>
  MX_TIM1_Init();
 8000f54:	f000 f88a 	bl	800106c <MX_TIM1_Init>
  MX_TIM2_Init();
 8000f58:	f000 f8d8 	bl	800110c <MX_TIM2_Init>
  MX_USART2_UART_Init();
 8000f5c:	f000 f94c 	bl	80011f8 <MX_USART2_UART_Init>
  /* USER CODE BEGIN 2 */
  HAL_TIM_Base_Start(&htim1);
 8000f60:	481d      	ldr	r0, [pc, #116]	@ (8000fd8 <main+0x94>)
 8000f62:	f001 fbe5 	bl	8002730 <HAL_TIM_Base_Start>
  HAL_TIM_PWM_Start(&htim2, TIM_CHANNEL_4);
 8000f66:	210c      	movs	r1, #12
 8000f68:	481c      	ldr	r0, [pc, #112]	@ (8000fdc <main+0x98>)
 8000f6a:	f001 fc83 	bl	8002874 <HAL_TIM_PWM_Start>
  __HAL_TIM_SET_COMPARE(&htim2, TIM_CHANNEL_4, 320); /*Duty Cycle PWM fixo*/
 8000f6e:	4b1b      	ldr	r3, [pc, #108]	@ (8000fdc <main+0x98>)
 8000f70:	681b      	ldr	r3, [r3, #0]
 8000f72:	f44f 72a0 	mov.w	r2, #320	@ 0x140
 8000f76:	641a      	str	r2, [r3, #64]	@ 0x40
  {

    /* USER CODE END WHILE */

    /* USER CODE BEGIN 3 */
	  if (new_rpm_measurement)
 8000f78:	4b19      	ldr	r3, [pc, #100]	@ (8000fe0 <main+0x9c>)
 8000f7a:	781b      	ldrb	r3, [r3, #0]
 8000f7c:	b2db      	uxtb	r3, r3
 8000f7e:	2b00      	cmp	r3, #0
 8000f80:	d0fa      	beq.n	8000f78 <main+0x34>
	  {
	      new_rpm_measurement = 0;
 8000f82:	4b17      	ldr	r3, [pc, #92]	@ (8000fe0 <main+0x9c>)
 8000f84:	2200      	movs	r2, #0
 8000f86:	701a      	strb	r2, [r3, #0]

	      if (delta_ticks > 0)
 8000f88:	4b16      	ldr	r3, [pc, #88]	@ (8000fe4 <main+0xa0>)
 8000f8a:	881b      	ldrh	r3, [r3, #0]
 8000f8c:	b29b      	uxth	r3, r3
 8000f8e:	2b00      	cmp	r3, #0
 8000f90:	d0f2      	beq.n	8000f78 <main+0x34>
	      {
	          rpm = (60.0f * TIMER_FREQ) / (NUM_FUROS * delta_ticks);
 8000f92:	4b14      	ldr	r3, [pc, #80]	@ (8000fe4 <main+0xa0>)
 8000f94:	881b      	ldrh	r3, [r3, #0]
 8000f96:	b29b      	uxth	r3, r3
 8000f98:	461a      	mov	r2, r3
 8000f9a:	4613      	mov	r3, r2
 8000f9c:	009b      	lsls	r3, r3, #2
 8000f9e:	4413      	add	r3, r2
 8000fa0:	009b      	lsls	r3, r3, #2
 8000fa2:	4618      	mov	r0, r3
 8000fa4:	f7ff fe2a 	bl	8000bfc <__aeabi_i2f>
 8000fa8:	4603      	mov	r3, r0
 8000faa:	4619      	mov	r1, r3
 8000fac:	480e      	ldr	r0, [pc, #56]	@ (8000fe8 <main+0xa4>)
 8000fae:	f7ff ff2d 	bl	8000e0c <__aeabi_fdiv>
 8000fb2:	4603      	mov	r3, r0
 8000fb4:	461a      	mov	r2, r3
 8000fb6:	4b0d      	ldr	r3, [pc, #52]	@ (8000fec <main+0xa8>)
 8000fb8:	601a      	str	r2, [r3, #0]
	    	  printf("RPM: %2.f\n", rpm);
 8000fba:	4b0c      	ldr	r3, [pc, #48]	@ (8000fec <main+0xa8>)
 8000fbc:	681b      	ldr	r3, [r3, #0]
 8000fbe:	4618      	mov	r0, r3
 8000fc0:	f7ff fa32 	bl	8000428 <__aeabi_f2d>
 8000fc4:	4602      	mov	r2, r0
 8000fc6:	460b      	mov	r3, r1
 8000fc8:	4809      	ldr	r0, [pc, #36]	@ (8000ff0 <main+0xac>)
 8000fca:	f003 fa0d 	bl	80043e8 <iprintf>
	    	  HAL_Delay(1000);
 8000fce:	f44f 707a 	mov.w	r0, #1000	@ 0x3e8
 8000fd2:	f000 fc4d 	bl	8001870 <HAL_Delay>
	  if (new_rpm_measurement)
 8000fd6:	e7cf      	b.n	8000f78 <main+0x34>
 8000fd8:	20000200 	.word	0x20000200
 8000fdc:	20000248 	.word	0x20000248
 8000fe0:	200001f8 	.word	0x200001f8
 8000fe4:	200001f6 	.word	0x200001f6
 8000fe8:	4ab71b00 	.word	0x4ab71b00
 8000fec:	200001fc 	.word	0x200001fc
 8000ff0:	08006330 	.word	0x08006330

08000ff4 <SystemClock_Config>:
/**
  * @brief System Clock Configuration
  * @retval None
  */
void SystemClock_Config(void)
{
 8000ff4:	b580      	push	{r7, lr}
 8000ff6:	b090      	sub	sp, #64	@ 0x40
 8000ff8:	af00      	add	r7, sp, #0
  RCC_OscInitTypeDef RCC_OscInitStruct = {0};
 8000ffa:	f107 0318 	add.w	r3, r7, #24
 8000ffe:	2228      	movs	r2, #40	@ 0x28
 8001000:	2100      	movs	r1, #0
 8001002:	4618      	mov	r0, r3
 8001004:	f003 fa46 	bl	8004494 <memset>
  RCC_ClkInitTypeDef RCC_ClkInitStruct = {0};
 8001008:	1d3b      	adds	r3, r7, #4
 800100a:	2200      	movs	r2, #0
 800100c:	601a      	str	r2, [r3, #0]
 800100e:	605a      	str	r2, [r3, #4]
 8001010:	609a      	str	r2, [r3, #8]
 8001012:	60da      	str	r2, [r3, #12]
 8001014:	611a      	str	r2, [r3, #16]

  /** Initializes the RCC Oscillators according to the specified parameters
  * in the RCC_OscInitTypeDef structure.
  */
  RCC_OscInitStruct.OscillatorType = RCC_OSCILLATORTYPE_HSI;
 8001016:	2302      	movs	r3, #2
 8001018:	61bb      	str	r3, [r7, #24]
  RCC_OscInitStruct.HSIState = RCC_HSI_ON;
 800101a:	2301      	movs	r3, #1
 800101c:	62bb      	str	r3, [r7, #40]	@ 0x28
  RCC_OscInitStruct.HSICalibrationValue = RCC_HSICALIBRATION_DEFAULT;
 800101e:	2310      	movs	r3, #16
 8001020:	62fb      	str	r3, [r7, #44]	@ 0x2c
  RCC_OscInitStruct.PLL.PLLState = RCC_PLL_NONE;
 8001022:	2300      	movs	r3, #0
 8001024:	637b      	str	r3, [r7, #52]	@ 0x34
  if (HAL_RCC_OscConfig(&RCC_OscInitStruct) != HAL_OK)
 8001026:	f107 0318 	add.w	r3, r7, #24
 800102a:	4618      	mov	r0, r3
 800102c:	f000 ff20 	bl	8001e70 <HAL_RCC_OscConfig>
 8001030:	4603      	mov	r3, r0
 8001032:	2b00      	cmp	r3, #0
 8001034:	d001      	beq.n	800103a <SystemClock_Config+0x46>
  {
    Error_Handler();
 8001036:	f000 f9af 	bl	8001398 <Error_Handler>
  }

  /** Initializes the CPU, AHB and APB buses clocks
  */
  RCC_ClkInitStruct.ClockType = RCC_CLOCKTYPE_HCLK|RCC_CLOCKTYPE_SYSCLK
 800103a:	230f      	movs	r3, #15
 800103c:	607b      	str	r3, [r7, #4]
                              |RCC_CLOCKTYPE_PCLK1|RCC_CLOCKTYPE_PCLK2;
  RCC_ClkInitStruct.SYSCLKSource = RCC_SYSCLKSOURCE_HSI;
 800103e:	2300      	movs	r3, #0
 8001040:	60bb      	str	r3, [r7, #8]
  RCC_ClkInitStruct.AHBCLKDivider = RCC_SYSCLK_DIV1;
 8001042:	2300      	movs	r3, #0
 8001044:	60fb      	str	r3, [r7, #12]
  RCC_ClkInitStruct.APB1CLKDivider = RCC_HCLK_DIV1;
 8001046:	2300      	movs	r3, #0
 8001048:	613b      	str	r3, [r7, #16]
  RCC_ClkInitStruct.APB2CLKDivider = RCC_HCLK_DIV1;
 800104a:	2300      	movs	r3, #0
 800104c:	617b      	str	r3, [r7, #20]

  if (HAL_RCC_ClockConfig(&RCC_ClkInitStruct, FLASH_LATENCY_0) != HAL_OK)
 800104e:	1d3b      	adds	r3, r7, #4
 8001050:	2100      	movs	r1, #0
 8001052:	4618      	mov	r0, r3
 8001054:	f001 f98e 	bl	8002374 <HAL_RCC_ClockConfig>
 8001058:	4603      	mov	r3, r0
 800105a:	2b00      	cmp	r3, #0
 800105c:	d001      	beq.n	8001062 <SystemClock_Config+0x6e>
  {
    Error_Handler();
 800105e:	f000 f99b 	bl	8001398 <Error_Handler>
  }
}
 8001062:	bf00      	nop
 8001064:	3740      	adds	r7, #64	@ 0x40
 8001066:	46bd      	mov	sp, r7
 8001068:	bd80      	pop	{r7, pc}
	...

0800106c <MX_TIM1_Init>:
  * @brief TIM1 Initialization Function
  * @param None
  * @retval None
  */
static void MX_TIM1_Init(void)
{
 800106c:	b580      	push	{r7, lr}
 800106e:	b086      	sub	sp, #24
 8001070:	af00      	add	r7, sp, #0

  /* USER CODE BEGIN TIM1_Init 0 */

  /* USER CODE END TIM1_Init 0 */

  TIM_ClockConfigTypeDef sClockSourceConfig = {0};
 8001072:	f107 0308 	add.w	r3, r7, #8
 8001076:	2200      	movs	r2, #0
 8001078:	601a      	str	r2, [r3, #0]
 800107a:	605a      	str	r2, [r3, #4]
 800107c:	609a      	str	r2, [r3, #8]
 800107e:	60da      	str	r2, [r3, #12]
  TIM_MasterConfigTypeDef sMasterConfig = {0};
 8001080:	463b      	mov	r3, r7
 8001082:	2200      	movs	r2, #0
 8001084:	601a      	str	r2, [r3, #0]
 8001086:	605a      	str	r2, [r3, #4]

  /* USER CODE BEGIN TIM1_Init 1 */

  /* USER CODE END TIM1_Init 1 */
  htim1.Instance = TIM1;
 8001088:	4b1e      	ldr	r3, [pc, #120]	@ (8001104 <MX_TIM1_Init+0x98>)
 800108a:	4a1f      	ldr	r2, [pc, #124]	@ (8001108 <MX_TIM1_Init+0x9c>)
 800108c:	601a      	str	r2, [r3, #0]
  htim1.Init.Prescaler = 79;
 800108e:	4b1d      	ldr	r3, [pc, #116]	@ (8001104 <MX_TIM1_Init+0x98>)
 8001090:	224f      	movs	r2, #79	@ 0x4f
 8001092:	605a      	str	r2, [r3, #4]
  htim1.Init.CounterMode = TIM_COUNTERMODE_UP;
 8001094:	4b1b      	ldr	r3, [pc, #108]	@ (8001104 <MX_TIM1_Init+0x98>)
 8001096:	2200      	movs	r2, #0
 8001098:	609a      	str	r2, [r3, #8]
  htim1.Init.Period = 65535;
 800109a:	4b1a      	ldr	r3, [pc, #104]	@ (8001104 <MX_TIM1_Init+0x98>)
 800109c:	f64f 72ff 	movw	r2, #65535	@ 0xffff
 80010a0:	60da      	str	r2, [r3, #12]
  htim1.Init.ClockDivision = TIM_CLOCKDIVISION_DIV1;
 80010a2:	4b18      	ldr	r3, [pc, #96]	@ (8001104 <MX_TIM1_Init+0x98>)
 80010a4:	2200      	movs	r2, #0
 80010a6:	611a      	str	r2, [r3, #16]
  htim1.Init.RepetitionCounter = 0;
 80010a8:	4b16      	ldr	r3, [pc, #88]	@ (8001104 <MX_TIM1_Init+0x98>)
 80010aa:	2200      	movs	r2, #0
 80010ac:	615a      	str	r2, [r3, #20]
  htim1.Init.AutoReloadPreload = TIM_AUTORELOAD_PRELOAD_DISABLE;
 80010ae:	4b15      	ldr	r3, [pc, #84]	@ (8001104 <MX_TIM1_Init+0x98>)
 80010b0:	2200      	movs	r2, #0
 80010b2:	619a      	str	r2, [r3, #24]
  if (HAL_TIM_Base_Init(&htim1) != HAL_OK)
 80010b4:	4813      	ldr	r0, [pc, #76]	@ (8001104 <MX_TIM1_Init+0x98>)
 80010b6:	f001 faeb 	bl	8002690 <HAL_TIM_Base_Init>
 80010ba:	4603      	mov	r3, r0
 80010bc:	2b00      	cmp	r3, #0
 80010be:	d001      	beq.n	80010c4 <MX_TIM1_Init+0x58>
  {
    Error_Handler();
 80010c0:	f000 f96a 	bl	8001398 <Error_Handler>
  }
  sClockSourceConfig.ClockSource = TIM_CLOCKSOURCE_INTERNAL;
 80010c4:	f44f 5380 	mov.w	r3, #4096	@ 0x1000
 80010c8:	60bb      	str	r3, [r7, #8]
  if (HAL_TIM_ConfigClockSource(&htim1, &sClockSourceConfig) != HAL_OK)
 80010ca:	f107 0308 	add.w	r3, r7, #8
 80010ce:	4619      	mov	r1, r3
 80010d0:	480c      	ldr	r0, [pc, #48]	@ (8001104 <MX_TIM1_Init+0x98>)
 80010d2:	f001 fe23 	bl	8002d1c <HAL_TIM_ConfigClockSource>
 80010d6:	4603      	mov	r3, r0
 80010d8:	2b00      	cmp	r3, #0
 80010da:	d001      	beq.n	80010e0 <MX_TIM1_Init+0x74>
  {
    Error_Handler();
 80010dc:	f000 f95c 	bl	8001398 <Error_Handler>
  }
  sMasterConfig.MasterOutputTrigger = TIM_TRGO_RESET;
 80010e0:	2300      	movs	r3, #0
 80010e2:	603b      	str	r3, [r7, #0]
  sMasterConfig.MasterSlaveMode = TIM_MASTERSLAVEMODE_DISABLE;
 80010e4:	2300      	movs	r3, #0
 80010e6:	607b      	str	r3, [r7, #4]
  if (HAL_TIMEx_MasterConfigSynchronization(&htim1, &sMasterConfig) != HAL_OK)
 80010e8:	463b      	mov	r3, r7
 80010ea:	4619      	mov	r1, r3
 80010ec:	4805      	ldr	r0, [pc, #20]	@ (8001104 <MX_TIM1_Init+0x98>)
 80010ee:	f002 f9b9 	bl	8003464 <HAL_TIMEx_MasterConfigSynchronization>
 80010f2:	4603      	mov	r3, r0
 80010f4:	2b00      	cmp	r3, #0
 80010f6:	d001      	beq.n	80010fc <MX_TIM1_Init+0x90>
  {
    Error_Handler();
 80010f8:	f000 f94e 	bl	8001398 <Error_Handler>
  }
  /* USER CODE BEGIN TIM1_Init 2 */

  /* USER CODE END TIM1_Init 2 */

}
 80010fc:	bf00      	nop
 80010fe:	3718      	adds	r7, #24
 8001100:	46bd      	mov	sp, r7
 8001102:	bd80      	pop	{r7, pc}
 8001104:	20000200 	.word	0x20000200
 8001108:	40012c00 	.word	0x40012c00

0800110c <MX_TIM2_Init>:
  * @brief TIM2 Initialization Function
  * @param None
  * @retval None
  */
static void MX_TIM2_Init(void)
{
 800110c:	b580      	push	{r7, lr}
 800110e:	b08e      	sub	sp, #56	@ 0x38
 8001110:	af00      	add	r7, sp, #0

  /* USER CODE BEGIN TIM2_Init 0 */

  /* USER CODE END TIM2_Init 0 */

  TIM_ClockConfigTypeDef sClockSourceConfig = {0};
 8001112:	f107 0328 	add.w	r3, r7, #40	@ 0x28
 8001116:	2200      	movs	r2, #0
 8001118:	601a      	str	r2, [r3, #0]
 800111a:	605a      	str	r2, [r3, #4]
 800111c:	609a      	str	r2, [r3, #8]
 800111e:	60da      	str	r2, [r3, #12]
  TIM_MasterConfigTypeDef sMasterConfig = {0};
 8001120:	f107 0320 	add.w	r3, r7, #32
 8001124:	2200      	movs	r2, #0
 8001126:	601a      	str	r2, [r3, #0]
 8001128:	605a      	str	r2, [r3, #4]
  TIM_OC_InitTypeDef sConfigOC = {0};
 800112a:	1d3b      	adds	r3, r7, #4
 800112c:	2200      	movs	r2, #0
 800112e:	601a      	str	r2, [r3, #0]
 8001130:	605a      	str	r2, [r3, #4]
 8001132:	609a      	str	r2, [r3, #8]
 8001134:	60da      	str	r2, [r3, #12]
 8001136:	611a      	str	r2, [r3, #16]
 8001138:	615a      	str	r2, [r3, #20]
 800113a:	619a      	str	r2, [r3, #24]

  /* USER CODE BEGIN TIM2_Init 1 */

  /* USER CODE END TIM2_Init 1 */
  htim2.Instance = TIM2;
 800113c:	4b2d      	ldr	r3, [pc, #180]	@ (80011f4 <MX_TIM2_Init+0xe8>)
 800113e:	f04f 4280 	mov.w	r2, #1073741824	@ 0x40000000
 8001142:	601a      	str	r2, [r3, #0]
  htim2.Init.Prescaler = 0;
 8001144:	4b2b      	ldr	r3, [pc, #172]	@ (80011f4 <MX_TIM2_Init+0xe8>)
 8001146:	2200      	movs	r2, #0
 8001148:	605a      	str	r2, [r3, #4]
  htim2.Init.CounterMode = TIM_COUNTERMODE_UP;
 800114a:	4b2a      	ldr	r3, [pc, #168]	@ (80011f4 <MX_TIM2_Init+0xe8>)
 800114c:	2200      	movs	r2, #0
 800114e:	609a      	str	r2, [r3, #8]
  htim2.Init.Period = 799;
 8001150:	4b28      	ldr	r3, [pc, #160]	@ (80011f4 <MX_TIM2_Init+0xe8>)
 8001152:	f240 321f 	movw	r2, #799	@ 0x31f
 8001156:	60da      	str	r2, [r3, #12]
  htim2.Init.ClockDivision = TIM_CLOCKDIVISION_DIV1;
 8001158:	4b26      	ldr	r3, [pc, #152]	@ (80011f4 <MX_TIM2_Init+0xe8>)
 800115a:	2200      	movs	r2, #0
 800115c:	611a      	str	r2, [r3, #16]
  htim2.Init.AutoReloadPreload = TIM_AUTORELOAD_PRELOAD_DISABLE;
 800115e:	4b25      	ldr	r3, [pc, #148]	@ (80011f4 <MX_TIM2_Init+0xe8>)
 8001160:	2200      	movs	r2, #0
 8001162:	619a      	str	r2, [r3, #24]
  if (HAL_TIM_Base_Init(&htim2) != HAL_OK)
 8001164:	4823      	ldr	r0, [pc, #140]	@ (80011f4 <MX_TIM2_Init+0xe8>)
 8001166:	f001 fa93 	bl	8002690 <HAL_TIM_Base_Init>
 800116a:	4603      	mov	r3, r0
 800116c:	2b00      	cmp	r3, #0
 800116e:	d001      	beq.n	8001174 <MX_TIM2_Init+0x68>
  {
    Error_Handler();
 8001170:	f000 f912 	bl	8001398 <Error_Handler>
  }
  sClockSourceConfig.ClockSource = TIM_CLOCKSOURCE_INTERNAL;
 8001174:	f44f 5380 	mov.w	r3, #4096	@ 0x1000
 8001178:	62bb      	str	r3, [r7, #40]	@ 0x28
  if (HAL_TIM_ConfigClockSource(&htim2, &sClockSourceConfig) != HAL_OK)
 800117a:	f107 0328 	add.w	r3, r7, #40	@ 0x28
 800117e:	4619      	mov	r1, r3
 8001180:	481c      	ldr	r0, [pc, #112]	@ (80011f4 <MX_TIM2_Init+0xe8>)
 8001182:	f001 fdcb 	bl	8002d1c <HAL_TIM_ConfigClockSource>
 8001186:	4603      	mov	r3, r0
 8001188:	2b00      	cmp	r3, #0
 800118a:	d001      	beq.n	8001190 <MX_TIM2_Init+0x84>
  {
    Error_Handler();
 800118c:	f000 f904 	bl	8001398 <Error_Handler>
  }
  if (HAL_TIM_PWM_Init(&htim2) != HAL_OK)
 8001190:	4818      	ldr	r0, [pc, #96]	@ (80011f4 <MX_TIM2_Init+0xe8>)
 8001192:	f001 fb17 	bl	80027c4 <HAL_TIM_PWM_Init>
 8001196:	4603      	mov	r3, r0
 8001198:	2b00      	cmp	r3, #0
 800119a:	d001      	beq.n	80011a0 <MX_TIM2_Init+0x94>
  {
    Error_Handler();
 800119c:	f000 f8fc 	bl	8001398 <Error_Handler>
  }
  sMasterConfig.MasterOutputTrigger = TIM_TRGO_RESET;
 80011a0:	2300      	movs	r3, #0
 80011a2:	623b      	str	r3, [r7, #32]
  sMasterConfig.MasterSlaveMode = TIM_MASTERSLAVEMODE_DISABLE;
 80011a4:	2300      	movs	r3, #0
 80011a6:	627b      	str	r3, [r7, #36]	@ 0x24
  if (HAL_TIMEx_MasterConfigSynchronization(&htim2, &sMasterConfig) != HAL_OK)
 80011a8:	f107 0320 	add.w	r3, r7, #32
 80011ac:	4619      	mov	r1, r3
 80011ae:	4811      	ldr	r0, [pc, #68]	@ (80011f4 <MX_TIM2_Init+0xe8>)
 80011b0:	f002 f958 	bl	8003464 <HAL_TIMEx_MasterConfigSynchronization>
 80011b4:	4603      	mov	r3, r0
 80011b6:	2b00      	cmp	r3, #0
 80011b8:	d001      	beq.n	80011be <MX_TIM2_Init+0xb2>
  {
    Error_Handler();
 80011ba:	f000 f8ed 	bl	8001398 <Error_Handler>
  }
  sConfigOC.OCMode = TIM_OCMODE_PWM1;
 80011be:	2360      	movs	r3, #96	@ 0x60
 80011c0:	607b      	str	r3, [r7, #4]
  sConfigOC.Pulse = 0;
 80011c2:	2300      	movs	r3, #0
 80011c4:	60bb      	str	r3, [r7, #8]
  sConfigOC.OCPolarity = TIM_OCPOLARITY_HIGH;
 80011c6:	2300      	movs	r3, #0
 80011c8:	60fb      	str	r3, [r7, #12]
  sConfigOC.OCFastMode = TIM_OCFAST_DISABLE;
 80011ca:	2300      	movs	r3, #0
 80011cc:	617b      	str	r3, [r7, #20]
  if (HAL_TIM_PWM_ConfigChannel(&htim2, &sConfigOC, TIM_CHANNEL_4) != HAL_OK)
 80011ce:	1d3b      	adds	r3, r7, #4
 80011d0:	220c      	movs	r2, #12
 80011d2:	4619      	mov	r1, r3
 80011d4:	4807      	ldr	r0, [pc, #28]	@ (80011f4 <MX_TIM2_Init+0xe8>)
 80011d6:	f001 fcdf 	bl	8002b98 <HAL_TIM_PWM_ConfigChannel>
 80011da:	4603      	mov	r3, r0
 80011dc:	2b00      	cmp	r3, #0
 80011de:	d001      	beq.n	80011e4 <MX_TIM2_Init+0xd8>
  {
    Error_Handler();
 80011e0:	f000 f8da 	bl	8001398 <Error_Handler>
  }
  /* USER CODE BEGIN TIM2_Init 2 */

  /* USER CODE END TIM2_Init 2 */
  HAL_TIM_MspPostInit(&htim2);
 80011e4:	4803      	ldr	r0, [pc, #12]	@ (80011f4 <MX_TIM2_Init+0xe8>)
 80011e6:	f000 f947 	bl	8001478 <HAL_TIM_MspPostInit>

}
 80011ea:	bf00      	nop
 80011ec:	3738      	adds	r7, #56	@ 0x38
 80011ee:	46bd      	mov	sp, r7
 80011f0:	bd80      	pop	{r7, pc}
 80011f2:	bf00      	nop
 80011f4:	20000248 	.word	0x20000248

080011f8 <MX_USART2_UART_Init>:
  * @brief USART2 Initialization Function
  * @param None
  * @retval None
  */
static void MX_USART2_UART_Init(void)
{
 80011f8:	b580      	push	{r7, lr}
 80011fa:	af00      	add	r7, sp, #0
  /* USER CODE END USART2_Init 0 */

  /* USER CODE BEGIN USART2_Init 1 */

  /* USER CODE END USART2_Init 1 */
  huart2.Instance = USART2;
 80011fc:	4b11      	ldr	r3, [pc, #68]	@ (8001244 <MX_USART2_UART_Init+0x4c>)
 80011fe:	4a12      	ldr	r2, [pc, #72]	@ (8001248 <MX_USART2_UART_Init+0x50>)
 8001200:	601a      	str	r2, [r3, #0]
  huart2.Init.BaudRate = 115200;
 8001202:	4b10      	ldr	r3, [pc, #64]	@ (8001244 <MX_USART2_UART_Init+0x4c>)
 8001204:	f44f 32e1 	mov.w	r2, #115200	@ 0x1c200
 8001208:	605a      	str	r2, [r3, #4]
  huart2.Init.WordLength = UART_WORDLENGTH_8B;
 800120a:	4b0e      	ldr	r3, [pc, #56]	@ (8001244 <MX_USART2_UART_Init+0x4c>)
 800120c:	2200      	movs	r2, #0
 800120e:	609a      	str	r2, [r3, #8]
  huart2.Init.StopBits = UART_STOPBITS_1;
 8001210:	4b0c      	ldr	r3, [pc, #48]	@ (8001244 <MX_USART2_UART_Init+0x4c>)
 8001212:	2200      	movs	r2, #0
 8001214:	60da      	str	r2, [r3, #12]
  huart2.Init.Parity = UART_PARITY_NONE;
 8001216:	4b0b      	ldr	r3, [pc, #44]	@ (8001244 <MX_USART2_UART_Init+0x4c>)
 8001218:	2200      	movs	r2, #0
 800121a:	611a      	str	r2, [r3, #16]
  huart2.Init.Mode = UART_MODE_TX;
 800121c:	4b09      	ldr	r3, [pc, #36]	@ (8001244 <MX_USART2_UART_Init+0x4c>)
 800121e:	2208      	movs	r2, #8
 8001220:	615a      	str	r2, [r3, #20]
  huart2.Init.HwFlowCtl = UART_HWCONTROL_NONE;
 8001222:	4b08      	ldr	r3, [pc, #32]	@ (8001244 <MX_USART2_UART_Init+0x4c>)
 8001224:	2200      	movs	r2, #0
 8001226:	619a      	str	r2, [r3, #24]
  huart2.Init.OverSampling = UART_OVERSAMPLING_16;
 8001228:	4b06      	ldr	r3, [pc, #24]	@ (8001244 <MX_USART2_UART_Init+0x4c>)
 800122a:	2200      	movs	r2, #0
 800122c:	61da      	str	r2, [r3, #28]
  if (HAL_HalfDuplex_Init(&huart2) != HAL_OK)
 800122e:	4805      	ldr	r0, [pc, #20]	@ (8001244 <MX_USART2_UART_Init+0x4c>)
 8001230:	f002 f988 	bl	8003544 <HAL_HalfDuplex_Init>
 8001234:	4603      	mov	r3, r0
 8001236:	2b00      	cmp	r3, #0
 8001238:	d001      	beq.n	800123e <MX_USART2_UART_Init+0x46>
  {
    Error_Handler();
 800123a:	f000 f8ad 	bl	8001398 <Error_Handler>
  }
  /* USER CODE BEGIN USART2_Init 2 */

  /* USER CODE END USART2_Init 2 */

}
 800123e:	bf00      	nop
 8001240:	bd80      	pop	{r7, pc}
 8001242:	bf00      	nop
 8001244:	20000290 	.word	0x20000290
 8001248:	40004400 	.word	0x40004400

0800124c <MX_GPIO_Init>:
  * @brief GPIO Initialization Function
  * @param None
  * @retval None
  */
static void MX_GPIO_Init(void)
{
 800124c:	b580      	push	{r7, lr}
 800124e:	b086      	sub	sp, #24
 8001250:	af00      	add	r7, sp, #0
  GPIO_InitTypeDef GPIO_InitStruct = {0};
 8001252:	f107 0308 	add.w	r3, r7, #8
 8001256:	2200      	movs	r2, #0
 8001258:	601a      	str	r2, [r3, #0]
 800125a:	605a      	str	r2, [r3, #4]
 800125c:	609a      	str	r2, [r3, #8]
 800125e:	60da      	str	r2, [r3, #12]
  /* USER CODE BEGIN MX_GPIO_Init_1 */

  /* USER CODE END MX_GPIO_Init_1 */

  /* GPIO Ports Clock Enable */
  __HAL_RCC_GPIOC_CLK_ENABLE();
 8001260:	4b22      	ldr	r3, [pc, #136]	@ (80012ec <MX_GPIO_Init+0xa0>)
 8001262:	699b      	ldr	r3, [r3, #24]
 8001264:	4a21      	ldr	r2, [pc, #132]	@ (80012ec <MX_GPIO_Init+0xa0>)
 8001266:	f043 0310 	orr.w	r3, r3, #16
 800126a:	6193      	str	r3, [r2, #24]
 800126c:	4b1f      	ldr	r3, [pc, #124]	@ (80012ec <MX_GPIO_Init+0xa0>)
 800126e:	699b      	ldr	r3, [r3, #24]
 8001270:	f003 0310 	and.w	r3, r3, #16
 8001274:	607b      	str	r3, [r7, #4]
 8001276:	687b      	ldr	r3, [r7, #4]
  __HAL_RCC_GPIOA_CLK_ENABLE();
 8001278:	4b1c      	ldr	r3, [pc, #112]	@ (80012ec <MX_GPIO_Init+0xa0>)
 800127a:	699b      	ldr	r3, [r3, #24]
 800127c:	4a1b      	ldr	r2, [pc, #108]	@ (80012ec <MX_GPIO_Init+0xa0>)
 800127e:	f043 0304 	orr.w	r3, r3, #4
 8001282:	6193      	str	r3, [r2, #24]
 8001284:	4b19      	ldr	r3, [pc, #100]	@ (80012ec <MX_GPIO_Init+0xa0>)
 8001286:	699b      	ldr	r3, [r3, #24]
 8001288:	f003 0304 	and.w	r3, r3, #4
 800128c:	603b      	str	r3, [r7, #0]
 800128e:	683b      	ldr	r3, [r7, #0]

  /*Configure GPIO pin Output Level */
  HAL_GPIO_WritePin(GPIOC, GPIO_PIN_13, GPIO_PIN_SET);
 8001290:	2201      	movs	r2, #1
 8001292:	f44f 5100 	mov.w	r1, #8192	@ 0x2000
 8001296:	4816      	ldr	r0, [pc, #88]	@ (80012f0 <MX_GPIO_Init+0xa4>)
 8001298:	f000 fda0 	bl	8001ddc <HAL_GPIO_WritePin>

  /*Configure GPIO pin : PC13 */
  GPIO_InitStruct.Pin = GPIO_PIN_13;
 800129c:	f44f 5300 	mov.w	r3, #8192	@ 0x2000
 80012a0:	60bb      	str	r3, [r7, #8]
  GPIO_InitStruct.Mode = GPIO_MODE_OUTPUT_PP;
 80012a2:	2301      	movs	r3, #1
 80012a4:	60fb      	str	r3, [r7, #12]
  GPIO_InitStruct.Pull = GPIO_NOPULL;
 80012a6:	2300      	movs	r3, #0
 80012a8:	613b      	str	r3, [r7, #16]
  GPIO_InitStruct.Speed = GPIO_SPEED_FREQ_LOW;
 80012aa:	2302      	movs	r3, #2
 80012ac:	617b      	str	r3, [r7, #20]
  HAL_GPIO_Init(GPIOC, &GPIO_InitStruct);
 80012ae:	f107 0308 	add.w	r3, r7, #8
 80012b2:	4619      	mov	r1, r3
 80012b4:	480e      	ldr	r0, [pc, #56]	@ (80012f0 <MX_GPIO_Init+0xa4>)
 80012b6:	f000 fc0d 	bl	8001ad4 <HAL_GPIO_Init>

  /*Configure GPIO pin : Hall_Pin */
  GPIO_InitStruct.Pin = Hall_Pin;
 80012ba:	f44f 7300 	mov.w	r3, #512	@ 0x200
 80012be:	60bb      	str	r3, [r7, #8]
  GPIO_InitStruct.Mode = GPIO_MODE_IT_FALLING;
 80012c0:	4b0c      	ldr	r3, [pc, #48]	@ (80012f4 <MX_GPIO_Init+0xa8>)
 80012c2:	60fb      	str	r3, [r7, #12]
  GPIO_InitStruct.Pull = GPIO_NOPULL;
 80012c4:	2300      	movs	r3, #0
 80012c6:	613b      	str	r3, [r7, #16]
  HAL_GPIO_Init(Hall_GPIO_Port, &GPIO_InitStruct);
 80012c8:	f107 0308 	add.w	r3, r7, #8
 80012cc:	4619      	mov	r1, r3
 80012ce:	480a      	ldr	r0, [pc, #40]	@ (80012f8 <MX_GPIO_Init+0xac>)
 80012d0:	f000 fc00 	bl	8001ad4 <HAL_GPIO_Init>

  /* EXTI interrupt init*/
  HAL_NVIC_SetPriority(EXTI9_5_IRQn, 0, 0);
 80012d4:	2200      	movs	r2, #0
 80012d6:	2100      	movs	r1, #0
 80012d8:	2017      	movs	r0, #23
 80012da:	f000 fbc4 	bl	8001a66 <HAL_NVIC_SetPriority>
  HAL_NVIC_EnableIRQ(EXTI9_5_IRQn);
 80012de:	2017      	movs	r0, #23
 80012e0:	f000 fbdd 	bl	8001a9e <HAL_NVIC_EnableIRQ>

  /* USER CODE BEGIN MX_GPIO_Init_2 */

  /* USER CODE END MX_GPIO_Init_2 */
}
 80012e4:	bf00      	nop
 80012e6:	3718      	adds	r7, #24
 80012e8:	46bd      	mov	sp, r7
 80012ea:	bd80      	pop	{r7, pc}
 80012ec:	40021000 	.word	0x40021000
 80012f0:	40011000 	.word	0x40011000
 80012f4:	10210000 	.word	0x10210000
 80012f8:	40010800 	.word	0x40010800

080012fc <HAL_GPIO_EXTI_Callback>:

/* USER CODE BEGIN 4 */
void HAL_GPIO_EXTI_Callback(uint16_t GPIO_Pin)
{
 80012fc:	b580      	push	{r7, lr}
 80012fe:	b084      	sub	sp, #16
 8001300:	af00      	add	r7, sp, #0
 8001302:	4603      	mov	r3, r0
 8001304:	80fb      	strh	r3, [r7, #6]
    if (GPIO_Pin == Hall_Pin)
 8001306:	88fb      	ldrh	r3, [r7, #6]
 8001308:	f5b3 7f00 	cmp.w	r3, #512	@ 0x200
 800130c:	d122      	bne.n	8001354 <HAL_GPIO_EXTI_Callback+0x58>
    {
        uint16_t current_capture = __HAL_TIM_GET_COUNTER(&htim1);
 800130e:	4b13      	ldr	r3, [pc, #76]	@ (800135c <HAL_GPIO_EXTI_Callback+0x60>)
 8001310:	681b      	ldr	r3, [r3, #0]
 8001312:	6a5b      	ldr	r3, [r3, #36]	@ 0x24
 8001314:	81fb      	strh	r3, [r7, #14]

        /*Toggle Led_Pin*/
        HAL_GPIO_TogglePin(GPIOC, GPIO_PIN_13);
 8001316:	f44f 5100 	mov.w	r1, #8192	@ 0x2000
 800131a:	4811      	ldr	r0, [pc, #68]	@ (8001360 <HAL_GPIO_EXTI_Callback+0x64>)
 800131c:	f000 fd76 	bl	8001e0c <HAL_GPIO_TogglePin>


        /*First Pulse logic*/
        if (first_pulse)
 8001320:	4b10      	ldr	r3, [pc, #64]	@ (8001364 <HAL_GPIO_EXTI_Callback+0x68>)
 8001322:	781b      	ldrb	r3, [r3, #0]
 8001324:	b2db      	uxtb	r3, r3
 8001326:	2b00      	cmp	r3, #0
 8001328:	d006      	beq.n	8001338 <HAL_GPIO_EXTI_Callback+0x3c>
        {
            last_capture = current_capture;
 800132a:	4a0f      	ldr	r2, [pc, #60]	@ (8001368 <HAL_GPIO_EXTI_Callback+0x6c>)
 800132c:	89fb      	ldrh	r3, [r7, #14]
 800132e:	8013      	strh	r3, [r2, #0]
            first_pulse = 0;
 8001330:	4b0c      	ldr	r3, [pc, #48]	@ (8001364 <HAL_GPIO_EXTI_Callback+0x68>)
 8001332:	2200      	movs	r2, #0
 8001334:	701a      	strb	r2, [r3, #0]
            delta_ticks = (uint16_t)(current_capture - last_capture);
            last_capture = current_capture;
            new_rpm_measurement = 1;
        }
    }
}
 8001336:	e00d      	b.n	8001354 <HAL_GPIO_EXTI_Callback+0x58>
            delta_ticks = (uint16_t)(current_capture - last_capture);
 8001338:	4b0b      	ldr	r3, [pc, #44]	@ (8001368 <HAL_GPIO_EXTI_Callback+0x6c>)
 800133a:	881b      	ldrh	r3, [r3, #0]
 800133c:	b29b      	uxth	r3, r3
 800133e:	89fa      	ldrh	r2, [r7, #14]
 8001340:	1ad3      	subs	r3, r2, r3
 8001342:	b29a      	uxth	r2, r3
 8001344:	4b09      	ldr	r3, [pc, #36]	@ (800136c <HAL_GPIO_EXTI_Callback+0x70>)
 8001346:	801a      	strh	r2, [r3, #0]
            last_capture = current_capture;
 8001348:	4a07      	ldr	r2, [pc, #28]	@ (8001368 <HAL_GPIO_EXTI_Callback+0x6c>)
 800134a:	89fb      	ldrh	r3, [r7, #14]
 800134c:	8013      	strh	r3, [r2, #0]
            new_rpm_measurement = 1;
 800134e:	4b08      	ldr	r3, [pc, #32]	@ (8001370 <HAL_GPIO_EXTI_Callback+0x74>)
 8001350:	2201      	movs	r2, #1
 8001352:	701a      	strb	r2, [r3, #0]
}
 8001354:	bf00      	nop
 8001356:	3710      	adds	r7, #16
 8001358:	46bd      	mov	sp, r7
 800135a:	bd80      	pop	{r7, pc}
 800135c:	20000200 	.word	0x20000200
 8001360:	40011000 	.word	0x40011000
 8001364:	20000000 	.word	0x20000000
 8001368:	200001f4 	.word	0x200001f4
 800136c:	200001f6 	.word	0x200001f6
 8001370:	200001f8 	.word	0x200001f8

08001374 <__io_putchar>:
	}

	return output;
}

int __io_putchar(int ch){
 8001374:	b580      	push	{r7, lr}
 8001376:	b082      	sub	sp, #8
 8001378:	af00      	add	r7, sp, #0
 800137a:	6078      	str	r0, [r7, #4]

	HAL_UART_Transmit(&huart2, (uint8_t*)&ch, 1, HAL_MAX_DELAY);
 800137c:	1d39      	adds	r1, r7, #4
 800137e:	f04f 33ff 	mov.w	r3, #4294967295	@ 0xffffffff
 8001382:	2201      	movs	r2, #1
 8001384:	4803      	ldr	r0, [pc, #12]	@ (8001394 <__io_putchar+0x20>)
 8001386:	f002 f935 	bl	80035f4 <HAL_UART_Transmit>

	return ch;
 800138a:	687b      	ldr	r3, [r7, #4]
}
 800138c:	4618      	mov	r0, r3
 800138e:	3708      	adds	r7, #8
 8001390:	46bd      	mov	sp, r7
 8001392:	bd80      	pop	{r7, pc}
 8001394:	20000290 	.word	0x20000290

08001398 <Error_Handler>:
/**
  * @brief  This function is executed in case of error occurrence.
  * @retval None
  */
void Error_Handler(void)
{
 8001398:	b480      	push	{r7}
 800139a:	af00      	add	r7, sp, #0
  \details Disables IRQ interrupts by setting the I-bit in the CPSR.
           Can only be executed in Privileged modes.
 */
__STATIC_FORCEINLINE void __disable_irq(void)
{
  __ASM volatile ("cpsid i" : : : "memory");
 800139c:	b672      	cpsid	i
}
 800139e:	bf00      	nop
  /* USER CODE BEGIN Error_Handler_Debug */
  /* User can add his own implementation to report the HAL error return state */
  __disable_irq();
  while (1)
 80013a0:	bf00      	nop
 80013a2:	e7fd      	b.n	80013a0 <Error_Handler+0x8>

080013a4 <HAL_MspInit>:
 80013a4:	b480      	push	{r7}
 80013a6:	b085      	sub	sp, #20
 80013a8:	af00      	add	r7, sp, #0
 80013aa:	4b15      	ldr	r3, [pc, #84]	@ (8001400 <HAL_MspInit+0x5c>)
 80013ac:	699b      	ldr	r3, [r3, #24]
 80013ae:	4a14      	ldr	r2, [pc, #80]	@ (8001400 <HAL_MspInit+0x5c>)
 80013b0:	f043 0301 	orr.w	r3, r3, #1
 80013b4:	6193      	str	r3, [r2, #24]
 80013b6:	4b12      	ldr	r3, [pc, #72]	@ (8001400 <HAL_MspInit+0x5c>)
 80013b8:	699b      	ldr	r3, [r3, #24]
 80013ba:	f003 0301 	and.w	r3, r3, #1
 80013be:	60bb      	str	r3, [r7, #8]
 80013c0:	68bb      	ldr	r3, [r7, #8]
 80013c2:	4b0f      	ldr	r3, [pc, #60]	@ (8001400 <HAL_MspInit+0x5c>)
 80013c4:	69db      	ldr	r3, [r3, #28]
 80013c6:	4a0e      	ldr	r2, [pc, #56]	@ (8001400 <HAL_MspInit+0x5c>)
 80013c8:	f043 5380 	orr.w	r3, r3, #268435456	@ 0x10000000
 80013cc:	61d3      	str	r3, [r2, #28]
 80013ce:	4b0c      	ldr	r3, [pc, #48]	@ (8001400 <HAL_MspInit+0x5c>)
 80013d0:	69db      	ldr	r3, [r3, #28]
 80013d2:	f003 5380 	and.w	r3, r3, #268435456	@ 0x10000000
 80013d6:	607b      	str	r3, [r7, #4]
 80013d8:	687b      	ldr	r3, [r7, #4]
 80013da:	4b0a      	ldr	r3, [pc, #40]	@ (8001404 <HAL_MspInit+0x60>)
 80013dc:	685b      	ldr	r3, [r3, #4]
 80013de:	60fb      	str	r3, [r7, #12]
 80013e0:	68fb      	ldr	r3, [r7, #12]
 80013e2:	f023 63e0 	bic.w	r3, r3, #117440512	@ 0x7000000
 80013e6:	60fb      	str	r3, [r7, #12]
 80013e8:	68fb      	ldr	r3, [r7, #12]
 80013ea:	f043 7300 	orr.w	r3, r3, #33554432	@ 0x2000000
 80013ee:	60fb      	str	r3, [r7, #12]
 80013f0:	4a04      	ldr	r2, [pc, #16]	@ (8001404 <HAL_MspInit+0x60>)
 80013f2:	68fb      	ldr	r3, [r7, #12]
 80013f4:	6053      	str	r3, [r2, #4]
 80013f6:	bf00      	nop
 80013f8:	3714      	adds	r7, #20
 80013fa:	46bd      	mov	sp, r7
 80013fc:	bc80      	pop	{r7}
 80013fe:	4770      	bx	lr
 8001400:	40021000 	.word	0x40021000
 8001404:	40010000 	.word	0x40010000

08001408 <HAL_TIM_Base_MspInit>:
 8001408:	b580      	push	{r7, lr}
 800140a:	b084      	sub	sp, #16
 800140c:	af00      	add	r7, sp, #0
 800140e:	6078      	str	r0, [r7, #4]
 8001410:	687b      	ldr	r3, [r7, #4]
 8001412:	681b      	ldr	r3, [r3, #0]
 8001414:	4a16      	ldr	r2, [pc, #88]	@ (8001470 <HAL_TIM_Base_MspInit+0x68>)
 8001416:	4293      	cmp	r3, r2
 8001418:	d114      	bne.n	8001444 <HAL_TIM_Base_MspInit+0x3c>
 800141a:	4b16      	ldr	r3, [pc, #88]	@ (8001474 <HAL_TIM_Base_MspInit+0x6c>)
 800141c:	699b      	ldr	r3, [r3, #24]
 800141e:	4a15      	ldr	r2, [pc, #84]	@ (8001474 <HAL_TIM_Base_MspInit+0x6c>)
 8001420:	f443 6300 	orr.w	r3, r3, #2048	@ 0x800
 8001424:	6193      	str	r3, [r2, #24]
 8001426:	4b13      	ldr	r3, [pc, #76]	@ (8001474 <HAL_TIM_Base_MspInit+0x6c>)
 8001428:	699b      	ldr	r3, [r3, #24]
 800142a:	f403 6300 	and.w	r3, r3, #2048	@ 0x800
 800142e:	60fb      	str	r3, [r7, #12]
 8001430:	68fb      	ldr	r3, [r7, #12]
 8001432:	2200      	movs	r2, #0
 8001434:	2100      	movs	r1, #0
 8001436:	2019      	movs	r0, #25
 8001438:	f000 fb15 	bl	8001a66 <HAL_NVIC_SetPriority>
 800143c:	2019      	movs	r0, #25
 800143e:	f000 fb2e 	bl	8001a9e <HAL_NVIC_EnableIRQ>
 8001442:	e010      	b.n	8001466 <HAL_TIM_Base_MspInit+0x5e>
 8001444:	687b      	ldr	r3, [r7, #4]
 8001446:	681b      	ldr	r3, [r3, #0]
 8001448:	f1b3 4f80 	cmp.w	r3, #1073741824	@ 0x40000000
 800144c:	d10b      	bne.n	8001466 <HAL_TIM_Base_MspInit+0x5e>
 800144e:	4b09      	ldr	r3, [pc, #36]	@ (8001474 <HAL_TIM_Base_MspInit+0x6c>)
 8001450:	69db      	ldr	r3, [r3, #28]
 8001452:	4a08      	ldr	r2, [pc, #32]	@ (8001474 <HAL_TIM_Base_MspInit+0x6c>)
 8001454:	f043 0301 	orr.w	r3, r3, #1
 8001458:	61d3      	str	r3, [r2, #28]
 800145a:	4b06      	ldr	r3, [pc, #24]	@ (8001474 <HAL_TIM_Base_MspInit+0x6c>)
 800145c:	69db      	ldr	r3, [r3, #28]
 800145e:	f003 0301 	and.w	r3, r3, #1
 8001462:	60bb      	str	r3, [r7, #8]
 8001464:	68bb      	ldr	r3, [r7, #8]
 8001466:	bf00      	nop
 8001468:	3710      	adds	r7, #16
 800146a:	46bd      	mov	sp, r7
 800146c:	bd80      	pop	{r7, pc}
 800146e:	bf00      	nop
 8001470:	40012c00 	.word	0x40012c00
 8001474:	40021000 	.word	0x40021000

08001478 <HAL_TIM_MspPostInit>:
 8001478:	b580      	push	{r7, lr}
 800147a:	b088      	sub	sp, #32
 800147c:	af00      	add	r7, sp, #0
 800147e:	6078      	str	r0, [r7, #4]
 8001480:	f107 0310 	add.w	r3, r7, #16
 8001484:	2200      	movs	r2, #0
 8001486:	601a      	str	r2, [r3, #0]
 8001488:	605a      	str	r2, [r3, #4]
 800148a:	609a      	str	r2, [r3, #8]
 800148c:	60da      	str	r2, [r3, #12]
 800148e:	687b      	ldr	r3, [r7, #4]
 8001490:	681b      	ldr	r3, [r3, #0]
 8001492:	f1b3 4f80 	cmp.w	r3, #1073741824	@ 0x40000000
 8001496:	d117      	bne.n	80014c8 <HAL_TIM_MspPostInit+0x50>
 8001498:	4b0d      	ldr	r3, [pc, #52]	@ (80014d0 <HAL_TIM_MspPostInit+0x58>)
 800149a:	699b      	ldr	r3, [r3, #24]
 800149c:	4a0c      	ldr	r2, [pc, #48]	@ (80014d0 <HAL_TIM_MspPostInit+0x58>)
 800149e:	f043 0304 	orr.w	r3, r3, #4
 80014a2:	6193      	str	r3, [r2, #24]
 80014a4:	4b0a      	ldr	r3, [pc, #40]	@ (80014d0 <HAL_TIM_MspPostInit+0x58>)
 80014a6:	699b      	ldr	r3, [r3, #24]
 80014a8:	f003 0304 	and.w	r3, r3, #4
 80014ac:	60fb      	str	r3, [r7, #12]
 80014ae:	68fb      	ldr	r3, [r7, #12]
 80014b0:	2308      	movs	r3, #8
 80014b2:	613b      	str	r3, [r7, #16]
 80014b4:	2302      	movs	r3, #2
 80014b6:	617b      	str	r3, [r7, #20]
 80014b8:	2302      	movs	r3, #2
 80014ba:	61fb      	str	r3, [r7, #28]
 80014bc:	f107 0310 	add.w	r3, r7, #16
 80014c0:	4619      	mov	r1, r3
 80014c2:	4804      	ldr	r0, [pc, #16]	@ (80014d4 <HAL_TIM_MspPostInit+0x5c>)
 80014c4:	f000 fb06 	bl	8001ad4 <HAL_GPIO_Init>
 80014c8:	bf00      	nop
 80014ca:	3720      	adds	r7, #32
 80014cc:	46bd      	mov	sp, r7
 80014ce:	bd80      	pop	{r7, pc}
 80014d0:	40021000 	.word	0x40021000
 80014d4:	40010800 	.word	0x40010800

080014d8 <HAL_UART_MspInit>:
 80014d8:	b580      	push	{r7, lr}
 80014da:	b088      	sub	sp, #32
 80014dc:	af00      	add	r7, sp, #0
 80014de:	6078      	str	r0, [r7, #4]
 80014e0:	f107 0310 	add.w	r3, r7, #16
 80014e4:	2200      	movs	r2, #0
 80014e6:	601a      	str	r2, [r3, #0]
 80014e8:	605a      	str	r2, [r3, #4]
 80014ea:	609a      	str	r2, [r3, #8]
 80014ec:	60da      	str	r2, [r3, #12]
 80014ee:	687b      	ldr	r3, [r7, #4]
 80014f0:	681b      	ldr	r3, [r3, #0]
 80014f2:	4a15      	ldr	r2, [pc, #84]	@ (8001548 <HAL_UART_MspInit+0x70>)
 80014f4:	4293      	cmp	r3, r2
 80014f6:	d123      	bne.n	8001540 <HAL_UART_MspInit+0x68>
 80014f8:	4b14      	ldr	r3, [pc, #80]	@ (800154c <HAL_UART_MspInit+0x74>)
 80014fa:	69db      	ldr	r3, [r3, #28]
 80014fc:	4a13      	ldr	r2, [pc, #76]	@ (800154c <HAL_UART_MspInit+0x74>)
 80014fe:	f443 3300 	orr.w	r3, r3, #131072	@ 0x20000
 8001502:	61d3      	str	r3, [r2, #28]
 8001504:	4b11      	ldr	r3, [pc, #68]	@ (800154c <HAL_UART_MspInit+0x74>)
 8001506:	69db      	ldr	r3, [r3, #28]
 8001508:	f403 3300 	and.w	r3, r3, #131072	@ 0x20000
 800150c:	60fb      	str	r3, [r7, #12]
 800150e:	68fb      	ldr	r3, [r7, #12]
 8001510:	4b0e      	ldr	r3, [pc, #56]	@ (800154c <HAL_UART_MspInit+0x74>)
 8001512:	699b      	ldr	r3, [r3, #24]
 8001514:	4a0d      	ldr	r2, [pc, #52]	@ (800154c <HAL_UART_MspInit+0x74>)
 8001516:	f043 0304 	orr.w	r3, r3, #4
 800151a:	6193      	str	r3, [r2, #24]
 800151c:	4b0b      	ldr	r3, [pc, #44]	@ (800154c <HAL_UART_MspInit+0x74>)
 800151e:	699b      	ldr	r3, [r3, #24]
 8001520:	f003 0304 	and.w	r3, r3, #4
 8001524:	60bb      	str	r3, [r7, #8]
 8001526:	68bb      	ldr	r3, [r7, #8]
 8001528:	2304      	movs	r3, #4
 800152a:	613b      	str	r3, [r7, #16]
 800152c:	2312      	movs	r3, #18
 800152e:	617b      	str	r3, [r7, #20]
 8001530:	2303      	movs	r3, #3
 8001532:	61fb      	str	r3, [r7, #28]
 8001534:	f107 0310 	add.w	r3, r7, #16
 8001538:	4619      	mov	r1, r3
 800153a:	4805      	ldr	r0, [pc, #20]	@ (8001550 <HAL_UART_MspInit+0x78>)
 800153c:	f000 faca 	bl	8001ad4 <HAL_GPIO_Init>
 8001540:	bf00      	nop
 8001542:	3720      	adds	r7, #32
 8001544:	46bd      	mov	sp, r7
 8001546:	bd80      	pop	{r7, pc}
 8001548:	40004400 	.word	0x40004400
 800154c:	40021000 	.word	0x40021000
 8001550:	40010800 	.word	0x40010800

08001554 <NMI_Handler>:
 8001554:	b480      	push	{r7}
 8001556:	af00      	add	r7, sp, #0
 8001558:	bf00      	nop
 800155a:	e7fd      	b.n	8001558 <NMI_Handler+0x4>

0800155c <HardFault_Handler>:
 800155c:	b480      	push	{r7}
 800155e:	af00      	add	r7, sp, #0
 8001560:	bf00      	nop
 8001562:	e7fd      	b.n	8001560 <HardFault_Handler+0x4>

08001564 <MemManage_Handler>:
 8001564:	b480      	push	{r7}
 8001566:	af00      	add	r7, sp, #0
 8001568:	bf00      	nop
 800156a:	e7fd      	b.n	8001568 <MemManage_Handler+0x4>

0800156c <BusFault_Handler>:
 800156c:	b480      	push	{r7}
 800156e:	af00      	add	r7, sp, #0
 8001570:	bf00      	nop
 8001572:	e7fd      	b.n	8001570 <BusFault_Handler+0x4>

08001574 <UsageFault_Handler>:
 8001574:	b480      	push	{r7}
 8001576:	af00      	add	r7, sp, #0
 8001578:	bf00      	nop
 800157a:	e7fd      	b.n	8001578 <UsageFault_Handler+0x4>

0800157c <SVC_Handler>:
 800157c:	b480      	push	{r7}
 800157e:	af00      	add	r7, sp, #0
 8001580:	bf00      	nop
 8001582:	46bd      	mov	sp, r7
 8001584:	bc80      	pop	{r7}
 8001586:	4770      	bx	lr

08001588 <DebugMon_Handler>:
 8001588:	b480      	push	{r7}
 800158a:	af00      	add	r7, sp, #0
 800158c:	bf00      	nop
 800158e:	46bd      	mov	sp, r7
 8001590:	bc80      	pop	{r7}
 8001592:	4770      	bx	lr

08001594 <PendSV_Handler>:
 8001594:	b480      	push	{r7}
 8001596:	af00      	add	r7, sp, #0
 8001598:	bf00      	nop
 800159a:	46bd      	mov	sp, r7
 800159c:	bc80      	pop	{r7}
 800159e:	4770      	bx	lr

080015a0 <SysTick_Handler>:
 80015a0:	b580      	push	{r7, lr}
 80015a2:	af00      	add	r7, sp, #0
 80015a4:	f000 f948 	bl	8001838 <HAL_IncTick>
 80015a8:	bf00      	nop
 80015aa:	bd80      	pop	{r7, pc}

080015ac <EXTI9_5_IRQHandler>:
 80015ac:	b580      	push	{r7, lr}
 80015ae:	af00      	add	r7, sp, #0
 80015b0:	f44f 7000 	mov.w	r0, #512	@ 0x200
 80015b4:	f000 fc44 	bl	8001e40 <HAL_GPIO_EXTI_IRQHandler>
 80015b8:	bf00      	nop
 80015ba:	bd80      	pop	{r7, pc}

080015bc <TIM1_UP_IRQHandler>:
 80015bc:	b580      	push	{r7, lr}
 80015be:	af00      	add	r7, sp, #0
 80015c0:	4802      	ldr	r0, [pc, #8]	@ (80015cc <TIM1_UP_IRQHandler+0x10>)
 80015c2:	f001 f9f9 	bl	80029b8 <HAL_TIM_IRQHandler>
 80015c6:	bf00      	nop
 80015c8:	bd80      	pop	{r7, pc}
 80015ca:	bf00      	nop
 80015cc:	20000200 	.word	0x20000200

080015d0 <_getpid>:
 80015d0:	b480      	push	{r7}
 80015d2:	af00      	add	r7, sp, #0
 80015d4:	2301      	movs	r3, #1
 80015d6:	4618      	mov	r0, r3
 80015d8:	46bd      	mov	sp, r7
 80015da:	bc80      	pop	{r7}
 80015dc:	4770      	bx	lr

080015de <_kill>:
 80015de:	b580      	push	{r7, lr}
 80015e0:	b082      	sub	sp, #8
 80015e2:	af00      	add	r7, sp, #0
 80015e4:	6078      	str	r0, [r7, #4]
 80015e6:	6039      	str	r1, [r7, #0]
 80015e8:	f002 ffa6 	bl	8004538 <__errno>
 80015ec:	4603      	mov	r3, r0
 80015ee:	2216      	movs	r2, #22
 80015f0:	601a      	str	r2, [r3, #0]
 80015f2:	f04f 33ff 	mov.w	r3, #4294967295	@ 0xffffffff
 80015f6:	4618      	mov	r0, r3
 80015f8:	3708      	adds	r7, #8
 80015fa:	46bd      	mov	sp, r7
 80015fc:	bd80      	pop	{r7, pc}

080015fe <_exit>:
 80015fe:	b580      	push	{r7, lr}
 8001600:	b082      	sub	sp, #8
 8001602:	af00      	add	r7, sp, #0
 8001604:	6078      	str	r0, [r7, #4]
 8001606:	f04f 31ff 	mov.w	r1, #4294967295	@ 0xffffffff
 800160a:	6878      	ldr	r0, [r7, #4]
 800160c:	f7ff ffe7 	bl	80015de <_kill>
 8001610:	bf00      	nop
 8001612:	e7fd      	b.n	8001610 <_exit+0x12>

08001614 <_read>:
 8001614:	b580      	push	{r7, lr}
 8001616:	b086      	sub	sp, #24
 8001618:	af00      	add	r7, sp, #0
 800161a:	60f8      	str	r0, [r7, #12]
 800161c:	60b9      	str	r1, [r7, #8]
 800161e:	607a      	str	r2, [r7, #4]
 8001620:	2300      	movs	r3, #0
 8001622:	617b      	str	r3, [r7, #20]
 8001624:	e00a      	b.n	800163c <_read+0x28>
 8001626:	f3af 8000 	nop.w
 800162a:	4601      	mov	r1, r0
 800162c:	68bb      	ldr	r3, [r7, #8]
 800162e:	1c5a      	adds	r2, r3, #1
 8001630:	60ba      	str	r2, [r7, #8]
 8001632:	b2ca      	uxtb	r2, r1
 8001634:	701a      	strb	r2, [r3, #0]
 8001636:	697b      	ldr	r3, [r7, #20]
 8001638:	3301      	adds	r3, #1
 800163a:	617b      	str	r3, [r7, #20]
 800163c:	697a      	ldr	r2, [r7, #20]
 800163e:	687b      	ldr	r3, [r7, #4]
 8001640:	429a      	cmp	r2, r3
 8001642:	dbf0      	blt.n	8001626 <_read+0x12>
 8001644:	687b      	ldr	r3, [r7, #4]
 8001646:	4618      	mov	r0, r3
 8001648:	3718      	adds	r7, #24
 800164a:	46bd      	mov	sp, r7
 800164c:	bd80      	pop	{r7, pc}

0800164e <_write>:
 800164e:	b580      	push	{r7, lr}
 8001650:	b086      	sub	sp, #24
 8001652:	af00      	add	r7, sp, #0
 8001654:	60f8      	str	r0, [r7, #12]
 8001656:	60b9      	str	r1, [r7, #8]
 8001658:	607a      	str	r2, [r7, #4]
 800165a:	2300      	movs	r3, #0
 800165c:	617b      	str	r3, [r7, #20]
 800165e:	e009      	b.n	8001674 <_write+0x26>
 8001660:	68bb      	ldr	r3, [r7, #8]
 8001662:	1c5a      	adds	r2, r3, #1
 8001664:	60ba      	str	r2, [r7, #8]
 8001666:	781b      	ldrb	r3, [r3, #0]
 8001668:	4618      	mov	r0, r3
 800166a:	f7ff fe83 	bl	8001374 <__io_putchar>
 800166e:	697b      	ldr	r3, [r7, #20]
 8001670:	3301      	adds	r3, #1
 8001672:	617b      	str	r3, [r7, #20]
 8001674:	697a      	ldr	r2, [r7, #20]
 8001676:	687b      	ldr	r3, [r7, #4]
 8001678:	429a      	cmp	r2, r3
 800167a:	dbf1      	blt.n	8001660 <_write+0x12>
 800167c:	687b      	ldr	r3, [r7, #4]
 800167e:	4618      	mov	r0, r3
 8001680:	3718      	adds	r7, #24
 8001682:	46bd      	mov	sp, r7
 8001684:	bd80      	pop	{r7, pc}

08001686 <_close>:
 8001686:	b480      	push	{r7}
 8001688:	b083      	sub	sp, #12
 800168a:	af00      	add	r7, sp, #0
 800168c:	6078      	str	r0, [r7, #4]
 800168e:	f04f 33ff 	mov.w	r3, #4294967295	@ 0xffffffff
 8001692:	4618      	mov	r0, r3
 8001694:	370c      	adds	r7, #12
 8001696:	46bd      	mov	sp, r7
 8001698:	bc80      	pop	{r7}
 800169a:	4770      	bx	lr

0800169c <_fstat>:
 800169c:	b480      	push	{r7}
 800169e:	b083      	sub	sp, #12
 80016a0:	af00      	add	r7, sp, #0
 80016a2:	6078      	str	r0, [r7, #4]
 80016a4:	6039      	str	r1, [r7, #0]
 80016a6:	683b      	ldr	r3, [r7, #0]
 80016a8:	f44f 5200 	mov.w	r2, #8192	@ 0x2000
 80016ac:	605a      	str	r2, [r3, #4]
 80016ae:	2300      	movs	r3, #0
 80016b0:	4618      	mov	r0, r3
 80016b2:	370c      	adds	r7, #12
 80016b4:	46bd      	mov	sp, r7
 80016b6:	bc80      	pop	{r7}
 80016b8:	4770      	bx	lr

080016ba <_isatty>:
 80016ba:	b480      	push	{r7}
 80016bc:	b083      	sub	sp, #12
 80016be:	af00      	add	r7, sp, #0
 80016c0:	6078      	str	r0, [r7, #4]
 80016c2:	2301      	movs	r3, #1
 80016c4:	4618      	mov	r0, r3
 80016c6:	370c      	adds	r7, #12
 80016c8:	46bd      	mov	sp, r7
 80016ca:	bc80      	pop	{r7}
 80016cc:	4770      	bx	lr

080016ce <_lseek>:
 80016ce:	b480      	push	{r7}
 80016d0:	b085      	sub	sp, #20
 80016d2:	af00      	add	r7, sp, #0
 80016d4:	60f8      	str	r0, [r7, #12]
 80016d6:	60b9      	str	r1, [r7, #8]
 80016d8:	607a      	str	r2, [r7, #4]
 80016da:	2300      	movs	r3, #0
 80016dc:	4618      	mov	r0, r3
 80016de:	3714      	adds	r7, #20
 80016e0:	46bd      	mov	sp, r7
 80016e2:	bc80      	pop	{r7}
 80016e4:	4770      	bx	lr
	...

080016e8 <_sbrk>:
 80016e8:	b580      	push	{r7, lr}
 80016ea:	b086      	sub	sp, #24
 80016ec:	af00      	add	r7, sp, #0
 80016ee:	6078      	str	r0, [r7, #4]
 80016f0:	4a14      	ldr	r2, [pc, #80]	@ (8001744 <_sbrk+0x5c>)
 80016f2:	4b15      	ldr	r3, [pc, #84]	@ (8001748 <_sbrk+0x60>)
 80016f4:	1ad3      	subs	r3, r2, r3
 80016f6:	617b      	str	r3, [r7, #20]
 80016f8:	697b      	ldr	r3, [r7, #20]
 80016fa:	613b      	str	r3, [r7, #16]
 80016fc:	4b13      	ldr	r3, [pc, #76]	@ (800174c <_sbrk+0x64>)
 80016fe:	681b      	ldr	r3, [r3, #0]
 8001700:	2b00      	cmp	r3, #0
 8001702:	d102      	bne.n	800170a <_sbrk+0x22>
 8001704:	4b11      	ldr	r3, [pc, #68]	@ (800174c <_sbrk+0x64>)
 8001706:	4a12      	ldr	r2, [pc, #72]	@ (8001750 <_sbrk+0x68>)
 8001708:	601a      	str	r2, [r3, #0]
 800170a:	4b10      	ldr	r3, [pc, #64]	@ (800174c <_sbrk+0x64>)
 800170c:	681a      	ldr	r2, [r3, #0]
 800170e:	687b      	ldr	r3, [r7, #4]
 8001710:	4413      	add	r3, r2
 8001712:	693a      	ldr	r2, [r7, #16]
 8001714:	429a      	cmp	r2, r3
 8001716:	d207      	bcs.n	8001728 <_sbrk+0x40>
 8001718:	f002 ff0e 	bl	8004538 <__errno>
 800171c:	4603      	mov	r3, r0
 800171e:	220c      	movs	r2, #12
 8001720:	601a      	str	r2, [r3, #0]
 8001722:	f04f 33ff 	mov.w	r3, #4294967295	@ 0xffffffff
 8001726:	e009      	b.n	800173c <_sbrk+0x54>
 8001728:	4b08      	ldr	r3, [pc, #32]	@ (800174c <_sbrk+0x64>)
 800172a:	681b      	ldr	r3, [r3, #0]
 800172c:	60fb      	str	r3, [r7, #12]
 800172e:	4b07      	ldr	r3, [pc, #28]	@ (800174c <_sbrk+0x64>)
 8001730:	681a      	ldr	r2, [r3, #0]
 8001732:	687b      	ldr	r3, [r7, #4]
 8001734:	4413      	add	r3, r2
 8001736:	4a05      	ldr	r2, [pc, #20]	@ (800174c <_sbrk+0x64>)
 8001738:	6013      	str	r3, [r2, #0]
 800173a:	68fb      	ldr	r3, [r7, #12]
 800173c:	4618      	mov	r0, r3
 800173e:	3718      	adds	r7, #24
 8001740:	46bd      	mov	sp, r7
 8001742:	bd80      	pop	{r7, pc}
 8001744:	20005000 	.word	0x20005000
 8001748:	00000400 	.word	0x00000400
 800174c:	200002d8 	.word	0x200002d8
 8001750:	20000430 	.word	0x20000430

08001754 <SystemInit>:
 8001754:	b480      	push	{r7}
 8001756:	af00      	add	r7, sp, #0
 8001758:	bf00      	nop
 800175a:	46bd      	mov	sp, r7
 800175c:	bc80      	pop	{r7}
 800175e:	4770      	bx	lr

08001760 <Reset_Handler>:
 8001760:	f7ff fff8 	bl	8001754 <SystemInit>
 8001764:	480b      	ldr	r0, [pc, #44]	@ (8001794 <LoopFillZerobss+0xe>)
 8001766:	490c      	ldr	r1, [pc, #48]	@ (8001798 <LoopFillZerobss+0x12>)
 8001768:	4a0c      	ldr	r2, [pc, #48]	@ (800179c <LoopFillZerobss+0x16>)
 800176a:	2300      	movs	r3, #0
 800176c:	e002      	b.n	8001774 <LoopCopyDataInit>

0800176e <CopyDataInit>:
 800176e:	58d4      	ldr	r4, [r2, r3]
 8001770:	50c4      	str	r4, [r0, r3]
 8001772:	3304      	adds	r3, #4

08001774 <LoopCopyDataInit>:
 8001774:	18c4      	adds	r4, r0, r3
 8001776:	428c      	cmp	r4, r1
 8001778:	d3f9      	bcc.n	800176e <CopyDataInit>
 800177a:	4a09      	ldr	r2, [pc, #36]	@ (80017a0 <LoopFillZerobss+0x1a>)
 800177c:	4c09      	ldr	r4, [pc, #36]	@ (80017a4 <LoopFillZerobss+0x1e>)
 800177e:	2300      	movs	r3, #0
 8001780:	e001      	b.n	8001786 <LoopFillZerobss>

08001782 <FillZerobss>:
 8001782:	6013      	str	r3, [r2, #0]
 8001784:	3204      	adds	r2, #4

08001786 <LoopFillZerobss>:
 8001786:	42a2      	cmp	r2, r4
 8001788:	d3fb      	bcc.n	8001782 <FillZerobss>
 800178a:	f002 fedb 	bl	8004544 <__libc_init_array>
 800178e:	f7ff fbd9 	bl	8000f44 <main>
 8001792:	4770      	bx	lr
 8001794:	20000000 	.word	0x20000000
 8001798:	200001d8 	.word	0x200001d8
 800179c:	080066ec 	.word	0x080066ec
 80017a0:	200001d8 	.word	0x200001d8
 80017a4:	2000042c 	.word	0x2000042c

080017a8 <ADC1_2_IRQHandler>:
 80017a8:	e7fe      	b.n	80017a8 <ADC1_2_IRQHandler>
	...

080017ac <HAL_Init>:
 80017ac:	b580      	push	{r7, lr}
 80017ae:	af00      	add	r7, sp, #0
 80017b0:	4b08      	ldr	r3, [pc, #32]	@ (80017d4 <HAL_Init+0x28>)
 80017b2:	681b      	ldr	r3, [r3, #0]
 80017b4:	4a07      	ldr	r2, [pc, #28]	@ (80017d4 <HAL_Init+0x28>)
 80017b6:	f043 0310 	orr.w	r3, r3, #16
 80017ba:	6013      	str	r3, [r2, #0]
 80017bc:	2003      	movs	r0, #3
 80017be:	f000 f947 	bl	8001a50 <HAL_NVIC_SetPriorityGrouping>
 80017c2:	200f      	movs	r0, #15
 80017c4:	f000 f808 	bl	80017d8 <HAL_InitTick>
 80017c8:	f7ff fdec 	bl	80013a4 <HAL_MspInit>
 80017cc:	2300      	movs	r3, #0
 80017ce:	4618      	mov	r0, r3
 80017d0:	bd80      	pop	{r7, pc}
 80017d2:	bf00      	nop
 80017d4:	40022000 	.word	0x40022000

080017d8 <HAL_InitTick>:
 80017d8:	b580      	push	{r7, lr}
 80017da:	b082      	sub	sp, #8
 80017dc:	af00      	add	r7, sp, #0
 80017de:	6078      	str	r0, [r7, #4]
 80017e0:	4b12      	ldr	r3, [pc, #72]	@ (800182c <HAL_InitTick+0x54>)
 80017e2:	681a      	ldr	r2, [r3, #0]
 80017e4:	4b12      	ldr	r3, [pc, #72]	@ (8001830 <HAL_InitTick+0x58>)
 80017e6:	781b      	ldrb	r3, [r3, #0]
 80017e8:	4619      	mov	r1, r3
 80017ea:	f44f 737a 	mov.w	r3, #1000	@ 0x3e8
 80017ee:	fbb3 f3f1 	udiv	r3, r3, r1
 80017f2:	fbb2 f3f3 	udiv	r3, r2, r3
 80017f6:	4618      	mov	r0, r3
 80017f8:	f000 f95f 	bl	8001aba <HAL_SYSTICK_Config>
 80017fc:	4603      	mov	r3, r0
 80017fe:	2b00      	cmp	r3, #0
 8001800:	d001      	beq.n	8001806 <HAL_InitTick+0x2e>
 8001802:	2301      	movs	r3, #1
 8001804:	e00e      	b.n	8001824 <HAL_InitTick+0x4c>
 8001806:	687b      	ldr	r3, [r7, #4]
 8001808:	2b0f      	cmp	r3, #15
 800180a:	d80a      	bhi.n	8001822 <HAL_InitTick+0x4a>
 800180c:	2200      	movs	r2, #0
 800180e:	6879      	ldr	r1, [r7, #4]
 8001810:	f04f 30ff 	mov.w	r0, #4294967295	@ 0xffffffff
 8001814:	f000 f927 	bl	8001a66 <HAL_NVIC_SetPriority>
 8001818:	4a06      	ldr	r2, [pc, #24]	@ (8001834 <HAL_InitTick+0x5c>)
 800181a:	687b      	ldr	r3, [r7, #4]
 800181c:	6013      	str	r3, [r2, #0]
 800181e:	2300      	movs	r3, #0
 8001820:	e000      	b.n	8001824 <HAL_InitTick+0x4c>
 8001822:	2301      	movs	r3, #1
 8001824:	4618      	mov	r0, r3
 8001826:	3708      	adds	r7, #8
 8001828:	46bd      	mov	sp, r7
 800182a:	bd80      	pop	{r7, pc}
 800182c:	20000004 	.word	0x20000004
 8001830:	2000000c 	.word	0x2000000c
 8001834:	20000008 	.word	0x20000008

08001838 <HAL_IncTick>:
 8001838:	b480      	push	{r7}
 800183a:	af00      	add	r7, sp, #0
 800183c:	4b05      	ldr	r3, [pc, #20]	@ (8001854 <HAL_IncTick+0x1c>)
 800183e:	781b      	ldrb	r3, [r3, #0]
 8001840:	461a      	mov	r2, r3
 8001842:	4b05      	ldr	r3, [pc, #20]	@ (8001858 <HAL_IncTick+0x20>)
 8001844:	681b      	ldr	r3, [r3, #0]
 8001846:	4413      	add	r3, r2
 8001848:	4a03      	ldr	r2, [pc, #12]	@ (8001858 <HAL_IncTick+0x20>)
 800184a:	6013      	str	r3, [r2, #0]
 800184c:	bf00      	nop
 800184e:	46bd      	mov	sp, r7
 8001850:	bc80      	pop	{r7}
 8001852:	4770      	bx	lr
 8001854:	2000000c 	.word	0x2000000c
 8001858:	200002dc 	.word	0x200002dc

0800185c <HAL_GetTick>:
 800185c:	b480      	push	{r7}
 800185e:	af00      	add	r7, sp, #0
 8001860:	4b02      	ldr	r3, [pc, #8]	@ (800186c <HAL_GetTick+0x10>)
 8001862:	681b      	ldr	r3, [r3, #0]
 8001864:	4618      	mov	r0, r3
 8001866:	46bd      	mov	sp, r7
 8001868:	bc80      	pop	{r7}
 800186a:	4770      	bx	lr
 800186c:	200002dc 	.word	0x200002dc

08001870 <HAL_Delay>:
 8001870:	b580      	push	{r7, lr}
 8001872:	b084      	sub	sp, #16
 8001874:	af00      	add	r7, sp, #0
 8001876:	6078      	str	r0, [r7, #4]
 8001878:	f7ff fff0 	bl	800185c <HAL_GetTick>
 800187c:	60b8      	str	r0, [r7, #8]
 800187e:	687b      	ldr	r3, [r7, #4]
 8001880:	60fb      	str	r3, [r7, #12]
 8001882:	68fb      	ldr	r3, [r7, #12]
 8001884:	f1b3 3fff 	cmp.w	r3, #4294967295	@ 0xffffffff
 8001888:	d005      	beq.n	8001896 <HAL_Delay+0x26>
 800188a:	4b0a      	ldr	r3, [pc, #40]	@ (80018b4 <HAL_Delay+0x44>)
 800188c:	781b      	ldrb	r3, [r3, #0]
 800188e:	461a      	mov	r2, r3
 8001890:	68fb      	ldr	r3, [r7, #12]
 8001892:	4413      	add	r3, r2
 8001894:	60fb      	str	r3, [r7, #12]
 8001896:	bf00      	nop
 8001898:	f7ff ffe0 	bl	800185c <HAL_GetTick>
 800189c:	4602      	mov	r2, r0
 800189e:	68bb      	ldr	r3, [r7, #8]
 80018a0:	1ad3      	subs	r3, r2, r3
 80018a2:	68fa      	ldr	r2, [r7, #12]
 80018a4:	429a      	cmp	r2, r3
 80018a6:	d8f7      	bhi.n	8001898 <HAL_Delay+0x28>
 80018a8:	bf00      	nop
 80018aa:	bf00      	nop
 80018ac:	3710      	adds	r7, #16
 80018ae:	46bd      	mov	sp, r7
 80018b0:	bd80      	pop	{r7, pc}
 80018b2:	bf00      	nop
 80018b4:	2000000c 	.word	0x2000000c

080018b8 <__NVIC_SetPriorityGrouping>:
 80018b8:	b480      	push	{r7}
 80018ba:	b085      	sub	sp, #20
 80018bc:	af00      	add	r7, sp, #0
 80018be:	6078      	str	r0, [r7, #4]
 80018c0:	687b      	ldr	r3, [r7, #4]
 80018c2:	f003 0307 	and.w	r3, r3, #7
 80018c6:	60fb      	str	r3, [r7, #12]
 80018c8:	4b0c      	ldr	r3, [pc, #48]	@ (80018fc <__NVIC_SetPriorityGrouping+0x44>)
 80018ca:	68db      	ldr	r3, [r3, #12]
 80018cc:	60bb      	str	r3, [r7, #8]
 80018ce:	68ba      	ldr	r2, [r7, #8]
 80018d0:	f64f 03ff 	movw	r3, #63743	@ 0xf8ff
 80018d4:	4013      	ands	r3, r2
 80018d6:	60bb      	str	r3, [r7, #8]
 80018d8:	68fb      	ldr	r3, [r7, #12]
 80018da:	021a      	lsls	r2, r3, #8
 80018dc:	68bb      	ldr	r3, [r7, #8]
 80018de:	4313      	orrs	r3, r2
 80018e0:	f043 63bf 	orr.w	r3, r3, #100139008	@ 0x5f80000
 80018e4:	f443 3300 	orr.w	r3, r3, #131072	@ 0x20000
 80018e8:	60bb      	str	r3, [r7, #8]
 80018ea:	4a04      	ldr	r2, [pc, #16]	@ (80018fc <__NVIC_SetPriorityGrouping+0x44>)
 80018ec:	68bb      	ldr	r3, [r7, #8]
 80018ee:	60d3      	str	r3, [r2, #12]
 80018f0:	bf00      	nop
 80018f2:	3714      	adds	r7, #20
 80018f4:	46bd      	mov	sp, r7
 80018f6:	bc80      	pop	{r7}
 80018f8:	4770      	bx	lr
 80018fa:	bf00      	nop
 80018fc:	e000ed00 	.word	0xe000ed00

08001900 <__NVIC_GetPriorityGrouping>:
 8001900:	b480      	push	{r7}
 8001902:	af00      	add	r7, sp, #0
 8001904:	4b04      	ldr	r3, [pc, #16]	@ (8001918 <__NVIC_GetPriorityGrouping+0x18>)
 8001906:	68db      	ldr	r3, [r3, #12]
 8001908:	0a1b      	lsrs	r3, r3, #8
 800190a:	f003 0307 	and.w	r3, r3, #7
 800190e:	4618      	mov	r0, r3
 8001910:	46bd      	mov	sp, r7
 8001912:	bc80      	pop	{r7}
 8001914:	4770      	bx	lr
 8001916:	bf00      	nop
 8001918:	e000ed00 	.word	0xe000ed00

0800191c <__NVIC_EnableIRQ>:
 800191c:	b480      	push	{r7}
 800191e:	b083      	sub	sp, #12
 8001920:	af00      	add	r7, sp, #0
 8001922:	4603      	mov	r3, r0
 8001924:	71fb      	strb	r3, [r7, #7]
 8001926:	f997 3007 	ldrsb.w	r3, [r7, #7]
 800192a:	2b00      	cmp	r3, #0
 800192c:	db0b      	blt.n	8001946 <__NVIC_EnableIRQ+0x2a>
 800192e:	79fb      	ldrb	r3, [r7, #7]
 8001930:	f003 021f 	and.w	r2, r3, #31
 8001934:	4906      	ldr	r1, [pc, #24]	@ (8001950 <__NVIC_EnableIRQ+0x34>)
 8001936:	f997 3007 	ldrsb.w	r3, [r7, #7]
 800193a:	095b      	lsrs	r3, r3, #5
 800193c:	2001      	movs	r0, #1
 800193e:	fa00 f202 	lsl.w	r2, r0, r2
 8001942:	f841 2023 	str.w	r2, [r1, r3, lsl #2]
 8001946:	bf00      	nop
 8001948:	370c      	adds	r7, #12
 800194a:	46bd      	mov	sp, r7
 800194c:	bc80      	pop	{r7}
 800194e:	4770      	bx	lr
 8001950:	e000e100 	.word	0xe000e100

08001954 <__NVIC_SetPriority>:
 8001954:	b480      	push	{r7}
 8001956:	b083      	sub	sp, #12
 8001958:	af00      	add	r7, sp, #0
 800195a:	4603      	mov	r3, r0
 800195c:	6039      	str	r1, [r7, #0]
 800195e:	71fb      	strb	r3, [r7, #7]
 8001960:	f997 3007 	ldrsb.w	r3, [r7, #7]
 8001964:	2b00      	cmp	r3, #0
 8001966:	db0a      	blt.n	800197e <__NVIC_SetPriority+0x2a>
 8001968:	683b      	ldr	r3, [r7, #0]
 800196a:	b2da      	uxtb	r2, r3
 800196c:	490c      	ldr	r1, [pc, #48]	@ (80019a0 <__NVIC_SetPriority+0x4c>)
 800196e:	f997 3007 	ldrsb.w	r3, [r7, #7]
 8001972:	0112      	lsls	r2, r2, #4
 8001974:	b2d2      	uxtb	r2, r2
 8001976:	440b      	add	r3, r1
 8001978:	f883 2300 	strb.w	r2, [r3, #768]	@ 0x300
 800197c:	e00a      	b.n	8001994 <__NVIC_SetPriority+0x40>
 800197e:	683b      	ldr	r3, [r7, #0]
 8001980:	b2da      	uxtb	r2, r3
 8001982:	4908      	ldr	r1, [pc, #32]	@ (80019a4 <__NVIC_SetPriority+0x50>)
 8001984:	79fb      	ldrb	r3, [r7, #7]
 8001986:	f003 030f 	and.w	r3, r3, #15
 800198a:	3b04      	subs	r3, #4
 800198c:	0112      	lsls	r2, r2, #4
 800198e:	b2d2      	uxtb	r2, r2
 8001990:	440b      	add	r3, r1
 8001992:	761a      	strb	r2, [r3, #24]
 8001994:	bf00      	nop
 8001996:	370c      	adds	r7, #12
 8001998:	46bd      	mov	sp, r7
 800199a:	bc80      	pop	{r7}
 800199c:	4770      	bx	lr
 800199e:	bf00      	nop
 80019a0:	e000e100 	.word	0xe000e100
 80019a4:	e000ed00 	.word	0xe000ed00

080019a8 <NVIC_EncodePriority>:
 80019a8:	b480      	push	{r7}
 80019aa:	b089      	sub	sp, #36	@ 0x24
 80019ac:	af00      	add	r7, sp, #0
 80019ae:	60f8      	str	r0, [r7, #12]
 80019b0:	60b9      	str	r1, [r7, #8]
 80019b2:	607a      	str	r2, [r7, #4]
 80019b4:	68fb      	ldr	r3, [r7, #12]
 80019b6:	f003 0307 	and.w	r3, r3, #7
 80019ba:	61fb      	str	r3, [r7, #28]
 80019bc:	69fb      	ldr	r3, [r7, #28]
 80019be:	f1c3 0307 	rsb	r3, r3, #7
 80019c2:	2b04      	cmp	r3, #4
 80019c4:	bf28      	it	cs
 80019c6:	2304      	movcs	r3, #4
 80019c8:	61bb      	str	r3, [r7, #24]
 80019ca:	69fb      	ldr	r3, [r7, #28]
 80019cc:	3304      	adds	r3, #4
 80019ce:	2b06      	cmp	r3, #6
 80019d0:	d902      	bls.n	80019d8 <NVIC_EncodePriority+0x30>
 80019d2:	69fb      	ldr	r3, [r7, #28]
 80019d4:	3b03      	subs	r3, #3
 80019d6:	e000      	b.n	80019da <NVIC_EncodePriority+0x32>
 80019d8:	2300      	movs	r3, #0
 80019da:	617b      	str	r3, [r7, #20]
 80019dc:	f04f 32ff 	mov.w	r2, #4294967295	@ 0xffffffff
 80019e0:	69bb      	ldr	r3, [r7, #24]
 80019e2:	fa02 f303 	lsl.w	r3, r2, r3
 80019e6:	43da      	mvns	r2, r3
 80019e8:	68bb      	ldr	r3, [r7, #8]
 80019ea:	401a      	ands	r2, r3
 80019ec:	697b      	ldr	r3, [r7, #20]
 80019ee:	409a      	lsls	r2, r3
 80019f0:	f04f 31ff 	mov.w	r1, #4294967295	@ 0xffffffff
 80019f4:	697b      	ldr	r3, [r7, #20]
 80019f6:	fa01 f303 	lsl.w	r3, r1, r3
 80019fa:	43d9      	mvns	r1, r3
 80019fc:	687b      	ldr	r3, [r7, #4]
 80019fe:	400b      	ands	r3, r1
 8001a00:	4313      	orrs	r3, r2
 8001a02:	4618      	mov	r0, r3
 8001a04:	3724      	adds	r7, #36	@ 0x24
 8001a06:	46bd      	mov	sp, r7
 8001a08:	bc80      	pop	{r7}
 8001a0a:	4770      	bx	lr

08001a0c <SysTick_Config>:
 8001a0c:	b580      	push	{r7, lr}
 8001a0e:	b082      	sub	sp, #8
 8001a10:	af00      	add	r7, sp, #0
 8001a12:	6078      	str	r0, [r7, #4]
 8001a14:	687b      	ldr	r3, [r7, #4]
 8001a16:	3b01      	subs	r3, #1
 8001a18:	f1b3 7f80 	cmp.w	r3, #16777216	@ 0x1000000
 8001a1c:	d301      	bcc.n	8001a22 <SysTick_Config+0x16>
 8001a1e:	2301      	movs	r3, #1
 8001a20:	e00f      	b.n	8001a42 <SysTick_Config+0x36>
 8001a22:	4a0a      	ldr	r2, [pc, #40]	@ (8001a4c <SysTick_Config+0x40>)
 8001a24:	687b      	ldr	r3, [r7, #4]
 8001a26:	3b01      	subs	r3, #1
 8001a28:	6053      	str	r3, [r2, #4]
 8001a2a:	210f      	movs	r1, #15
 8001a2c:	f04f 30ff 	mov.w	r0, #4294967295	@ 0xffffffff
 8001a30:	f7ff ff90 	bl	8001954 <__NVIC_SetPriority>
 8001a34:	4b05      	ldr	r3, [pc, #20]	@ (8001a4c <SysTick_Config+0x40>)
 8001a36:	2200      	movs	r2, #0
 8001a38:	609a      	str	r2, [r3, #8]
 8001a3a:	4b04      	ldr	r3, [pc, #16]	@ (8001a4c <SysTick_Config+0x40>)
 8001a3c:	2207      	movs	r2, #7
 8001a3e:	601a      	str	r2, [r3, #0]
 8001a40:	2300      	movs	r3, #0
 8001a42:	4618      	mov	r0, r3
 8001a44:	3708      	adds	r7, #8
 8001a46:	46bd      	mov	sp, r7
 8001a48:	bd80      	pop	{r7, pc}
 8001a4a:	bf00      	nop
 8001a4c:	e000e010 	.word	0xe000e010

08001a50 <HAL_NVIC_SetPriorityGrouping>:
 8001a50:	b580      	push	{r7, lr}
 8001a52:	b082      	sub	sp, #8
 8001a54:	af00      	add	r7, sp, #0
 8001a56:	6078      	str	r0, [r7, #4]
 8001a58:	6878      	ldr	r0, [r7, #4]
 8001a5a:	f7ff ff2d 	bl	80018b8 <__NVIC_SetPriorityGrouping>
 8001a5e:	bf00      	nop
 8001a60:	3708      	adds	r7, #8
 8001a62:	46bd      	mov	sp, r7
 8001a64:	bd80      	pop	{r7, pc}

08001a66 <HAL_NVIC_SetPriority>:
 8001a66:	b580      	push	{r7, lr}
 8001a68:	b086      	sub	sp, #24
 8001a6a:	af00      	add	r7, sp, #0
 8001a6c:	4603      	mov	r3, r0
 8001a6e:	60b9      	str	r1, [r7, #8]
 8001a70:	607a      	str	r2, [r7, #4]
 8001a72:	73fb      	strb	r3, [r7, #15]
 8001a74:	2300      	movs	r3, #0
 8001a76:	617b      	str	r3, [r7, #20]
 8001a78:	f7ff ff42 	bl	8001900 <__NVIC_GetPriorityGrouping>
 8001a7c:	6178      	str	r0, [r7, #20]
 8001a7e:	687a      	ldr	r2, [r7, #4]
 8001a80:	68b9      	ldr	r1, [r7, #8]
 8001a82:	6978      	ldr	r0, [r7, #20]
 8001a84:	f7ff ff90 	bl	80019a8 <NVIC_EncodePriority>
 8001a88:	4602      	mov	r2, r0
 8001a8a:	f997 300f 	ldrsb.w	r3, [r7, #15]
 8001a8e:	4611      	mov	r1, r2
 8001a90:	4618      	mov	r0, r3
 8001a92:	f7ff ff5f 	bl	8001954 <__NVIC_SetPriority>
 8001a96:	bf00      	nop
 8001a98:	3718      	adds	r7, #24
 8001a9a:	46bd      	mov	sp, r7
 8001a9c:	bd80      	pop	{r7, pc}

08001a9e <HAL_NVIC_EnableIRQ>:
 8001a9e:	b580      	push	{r7, lr}
 8001aa0:	b082      	sub	sp, #8
 8001aa2:	af00      	add	r7, sp, #0
 8001aa4:	4603      	mov	r3, r0
 8001aa6:	71fb      	strb	r3, [r7, #7]
 8001aa8:	f997 3007 	ldrsb.w	r3, [r7, #7]
 8001aac:	4618      	mov	r0, r3
 8001aae:	f7ff ff35 	bl	800191c <__NVIC_EnableIRQ>
 8001ab2:	bf00      	nop
 8001ab4:	3708      	adds	r7, #8
 8001ab6:	46bd      	mov	sp, r7
 8001ab8:	bd80      	pop	{r7, pc}

08001aba <HAL_SYSTICK_Config>:
 8001aba:	b580      	push	{r7, lr}
 8001abc:	b082      	sub	sp, #8
 8001abe:	af00      	add	r7, sp, #0
 8001ac0:	6078      	str	r0, [r7, #4]
 8001ac2:	6878      	ldr	r0, [r7, #4]
 8001ac4:	f7ff ffa2 	bl	8001a0c <SysTick_Config>
 8001ac8:	4603      	mov	r3, r0
 8001aca:	4618      	mov	r0, r3
 8001acc:	3708      	adds	r7, #8
 8001ace:	46bd      	mov	sp, r7
 8001ad0:	bd80      	pop	{r7, pc}
	...

08001ad4 <HAL_GPIO_Init>:
 8001ad4:	b480      	push	{r7}
 8001ad6:	b08b      	sub	sp, #44	@ 0x2c
 8001ad8:	af00      	add	r7, sp, #0
 8001ada:	6078      	str	r0, [r7, #4]
 8001adc:	6039      	str	r1, [r7, #0]
 8001ade:	2300      	movs	r3, #0
 8001ae0:	627b      	str	r3, [r7, #36]	@ 0x24
 8001ae2:	2300      	movs	r3, #0
 8001ae4:	623b      	str	r3, [r7, #32]
 8001ae6:	e169      	b.n	8001dbc <HAL_GPIO_Init+0x2e8>
 8001ae8:	2201      	movs	r2, #1
 8001aea:	6a7b      	ldr	r3, [r7, #36]	@ 0x24
 8001aec:	fa02 f303 	lsl.w	r3, r2, r3
 8001af0:	61fb      	str	r3, [r7, #28]
 8001af2:	683b      	ldr	r3, [r7, #0]
 8001af4:	681b      	ldr	r3, [r3, #0]
 8001af6:	69fa      	ldr	r2, [r7, #28]
 8001af8:	4013      	ands	r3, r2
 8001afa:	61bb      	str	r3, [r7, #24]
 8001afc:	69ba      	ldr	r2, [r7, #24]
 8001afe:	69fb      	ldr	r3, [r7, #28]
 8001b00:	429a      	cmp	r2, r3
 8001b02:	f040 8158 	bne.w	8001db6 <HAL_GPIO_Init+0x2e2>
 8001b06:	683b      	ldr	r3, [r7, #0]
 8001b08:	685b      	ldr	r3, [r3, #4]
 8001b0a:	4a9a      	ldr	r2, [pc, #616]	@ (8001d74 <HAL_GPIO_Init+0x2a0>)
 8001b0c:	4293      	cmp	r3, r2
 8001b0e:	d05e      	beq.n	8001bce <HAL_GPIO_Init+0xfa>
 8001b10:	4a98      	ldr	r2, [pc, #608]	@ (8001d74 <HAL_GPIO_Init+0x2a0>)
 8001b12:	4293      	cmp	r3, r2
 8001b14:	d875      	bhi.n	8001c02 <HAL_GPIO_Init+0x12e>
 8001b16:	4a98      	ldr	r2, [pc, #608]	@ (8001d78 <HAL_GPIO_Init+0x2a4>)
 8001b18:	4293      	cmp	r3, r2
 8001b1a:	d058      	beq.n	8001bce <HAL_GPIO_Init+0xfa>
 8001b1c:	4a96      	ldr	r2, [pc, #600]	@ (8001d78 <HAL_GPIO_Init+0x2a4>)
 8001b1e:	4293      	cmp	r3, r2
 8001b20:	d86f      	bhi.n	8001c02 <HAL_GPIO_Init+0x12e>
 8001b22:	4a96      	ldr	r2, [pc, #600]	@ (8001d7c <HAL_GPIO_Init+0x2a8>)
 8001b24:	4293      	cmp	r3, r2
 8001b26:	d052      	beq.n	8001bce <HAL_GPIO_Init+0xfa>
 8001b28:	4a94      	ldr	r2, [pc, #592]	@ (8001d7c <HAL_GPIO_Init+0x2a8>)
 8001b2a:	4293      	cmp	r3, r2
 8001b2c:	d869      	bhi.n	8001c02 <HAL_GPIO_Init+0x12e>
 8001b2e:	4a94      	ldr	r2, [pc, #592]	@ (8001d80 <HAL_GPIO_Init+0x2ac>)
 8001b30:	4293      	cmp	r3, r2
 8001b32:	d04c      	beq.n	8001bce <HAL_GPIO_Init+0xfa>
 8001b34:	4a92      	ldr	r2, [pc, #584]	@ (8001d80 <HAL_GPIO_Init+0x2ac>)
 8001b36:	4293      	cmp	r3, r2
 8001b38:	d863      	bhi.n	8001c02 <HAL_GPIO_Init+0x12e>
 8001b3a:	4a92      	ldr	r2, [pc, #584]	@ (8001d84 <HAL_GPIO_Init+0x2b0>)
 8001b3c:	4293      	cmp	r3, r2
 8001b3e:	d046      	beq.n	8001bce <HAL_GPIO_Init+0xfa>
 8001b40:	4a90      	ldr	r2, [pc, #576]	@ (8001d84 <HAL_GPIO_Init+0x2b0>)
 8001b42:	4293      	cmp	r3, r2
 8001b44:	d85d      	bhi.n	8001c02 <HAL_GPIO_Init+0x12e>
 8001b46:	2b12      	cmp	r3, #18
 8001b48:	d82a      	bhi.n	8001ba0 <HAL_GPIO_Init+0xcc>
 8001b4a:	2b12      	cmp	r3, #18
 8001b4c:	d859      	bhi.n	8001c02 <HAL_GPIO_Init+0x12e>
 8001b4e:	a201      	add	r2, pc, #4	@ (adr r2, 8001b54 <HAL_GPIO_Init+0x80>)
 8001b50:	f852 f023 	ldr.w	pc, [r2, r3, lsl #2]
 8001b54:	08001bcf 	.word	0x08001bcf
 8001b58:	08001ba9 	.word	0x08001ba9
 8001b5c:	08001bbb 	.word	0x08001bbb
 8001b60:	08001bfd 	.word	0x08001bfd
 8001b64:	08001c03 	.word	0x08001c03
 8001b68:	08001c03 	.word	0x08001c03
 8001b6c:	08001c03 	.word	0x08001c03
 8001b70:	08001c03 	.word	0x08001c03
 8001b74:	08001c03 	.word	0x08001c03
 8001b78:	08001c03 	.word	0x08001c03
 8001b7c:	08001c03 	.word	0x08001c03
 8001b80:	08001c03 	.word	0x08001c03
 8001b84:	08001c03 	.word	0x08001c03
 8001b88:	08001c03 	.word	0x08001c03
 8001b8c:	08001c03 	.word	0x08001c03
 8001b90:	08001c03 	.word	0x08001c03
 8001b94:	08001c03 	.word	0x08001c03
 8001b98:	08001bb1 	.word	0x08001bb1
 8001b9c:	08001bc5 	.word	0x08001bc5
 8001ba0:	4a79      	ldr	r2, [pc, #484]	@ (8001d88 <HAL_GPIO_Init+0x2b4>)
 8001ba2:	4293      	cmp	r3, r2
 8001ba4:	d013      	beq.n	8001bce <HAL_GPIO_Init+0xfa>
 8001ba6:	e02c      	b.n	8001c02 <HAL_GPIO_Init+0x12e>
 8001ba8:	683b      	ldr	r3, [r7, #0]
 8001baa:	68db      	ldr	r3, [r3, #12]
 8001bac:	623b      	str	r3, [r7, #32]
 8001bae:	e029      	b.n	8001c04 <HAL_GPIO_Init+0x130>
 8001bb0:	683b      	ldr	r3, [r7, #0]
 8001bb2:	68db      	ldr	r3, [r3, #12]
 8001bb4:	3304      	adds	r3, #4
 8001bb6:	623b      	str	r3, [r7, #32]
 8001bb8:	e024      	b.n	8001c04 <HAL_GPIO_Init+0x130>
 8001bba:	683b      	ldr	r3, [r7, #0]
 8001bbc:	68db      	ldr	r3, [r3, #12]
 8001bbe:	3308      	adds	r3, #8
 8001bc0:	623b      	str	r3, [r7, #32]
 8001bc2:	e01f      	b.n	8001c04 <HAL_GPIO_Init+0x130>
 8001bc4:	683b      	ldr	r3, [r7, #0]
 8001bc6:	68db      	ldr	r3, [r3, #12]
 8001bc8:	330c      	adds	r3, #12
 8001bca:	623b      	str	r3, [r7, #32]
 8001bcc:	e01a      	b.n	8001c04 <HAL_GPIO_Init+0x130>
 8001bce:	683b      	ldr	r3, [r7, #0]
 8001bd0:	689b      	ldr	r3, [r3, #8]
 8001bd2:	2b00      	cmp	r3, #0
 8001bd4:	d102      	bne.n	8001bdc <HAL_GPIO_Init+0x108>
 8001bd6:	2304      	movs	r3, #4
 8001bd8:	623b      	str	r3, [r7, #32]
 8001bda:	e013      	b.n	8001c04 <HAL_GPIO_Init+0x130>
 8001bdc:	683b      	ldr	r3, [r7, #0]
 8001bde:	689b      	ldr	r3, [r3, #8]
 8001be0:	2b01      	cmp	r3, #1
 8001be2:	d105      	bne.n	8001bf0 <HAL_GPIO_Init+0x11c>
 8001be4:	2308      	movs	r3, #8
 8001be6:	623b      	str	r3, [r7, #32]
 8001be8:	687b      	ldr	r3, [r7, #4]
 8001bea:	69fa      	ldr	r2, [r7, #28]
 8001bec:	611a      	str	r2, [r3, #16]
 8001bee:	e009      	b.n	8001c04 <HAL_GPIO_Init+0x130>
 8001bf0:	2308      	movs	r3, #8
 8001bf2:	623b      	str	r3, [r7, #32]
 8001bf4:	687b      	ldr	r3, [r7, #4]
 8001bf6:	69fa      	ldr	r2, [r7, #28]
 8001bf8:	615a      	str	r2, [r3, #20]
 8001bfa:	e003      	b.n	8001c04 <HAL_GPIO_Init+0x130>
 8001bfc:	2300      	movs	r3, #0
 8001bfe:	623b      	str	r3, [r7, #32]
 8001c00:	e000      	b.n	8001c04 <HAL_GPIO_Init+0x130>
 8001c02:	bf00      	nop
 8001c04:	69bb      	ldr	r3, [r7, #24]
 8001c06:	2bff      	cmp	r3, #255	@ 0xff
 8001c08:	d801      	bhi.n	8001c0e <HAL_GPIO_Init+0x13a>
 8001c0a:	687b      	ldr	r3, [r7, #4]
 8001c0c:	e001      	b.n	8001c12 <HAL_GPIO_Init+0x13e>
 8001c0e:	687b      	ldr	r3, [r7, #4]
 8001c10:	3304      	adds	r3, #4
 8001c12:	617b      	str	r3, [r7, #20]
 8001c14:	69bb      	ldr	r3, [r7, #24]
 8001c16:	2bff      	cmp	r3, #255	@ 0xff
 8001c18:	d802      	bhi.n	8001c20 <HAL_GPIO_Init+0x14c>
 8001c1a:	6a7b      	ldr	r3, [r7, #36]	@ 0x24
 8001c1c:	009b      	lsls	r3, r3, #2
 8001c1e:	e002      	b.n	8001c26 <HAL_GPIO_Init+0x152>
 8001c20:	6a7b      	ldr	r3, [r7, #36]	@ 0x24
 8001c22:	3b08      	subs	r3, #8
 8001c24:	009b      	lsls	r3, r3, #2
 8001c26:	613b      	str	r3, [r7, #16]
 8001c28:	697b      	ldr	r3, [r7, #20]
 8001c2a:	681a      	ldr	r2, [r3, #0]
 8001c2c:	210f      	movs	r1, #15
 8001c2e:	693b      	ldr	r3, [r7, #16]
 8001c30:	fa01 f303 	lsl.w	r3, r1, r3
 8001c34:	43db      	mvns	r3, r3
 8001c36:	401a      	ands	r2, r3
 8001c38:	6a39      	ldr	r1, [r7, #32]
 8001c3a:	693b      	ldr	r3, [r7, #16]
 8001c3c:	fa01 f303 	lsl.w	r3, r1, r3
 8001c40:	431a      	orrs	r2, r3
 8001c42:	697b      	ldr	r3, [r7, #20]
 8001c44:	601a      	str	r2, [r3, #0]
 8001c46:	683b      	ldr	r3, [r7, #0]
 8001c48:	685b      	ldr	r3, [r3, #4]
 8001c4a:	f003 5380 	and.w	r3, r3, #268435456	@ 0x10000000
 8001c4e:	2b00      	cmp	r3, #0
 8001c50:	f000 80b1 	beq.w	8001db6 <HAL_GPIO_Init+0x2e2>
 8001c54:	4b4d      	ldr	r3, [pc, #308]	@ (8001d8c <HAL_GPIO_Init+0x2b8>)
 8001c56:	699b      	ldr	r3, [r3, #24]
 8001c58:	4a4c      	ldr	r2, [pc, #304]	@ (8001d8c <HAL_GPIO_Init+0x2b8>)
 8001c5a:	f043 0301 	orr.w	r3, r3, #1
 8001c5e:	6193      	str	r3, [r2, #24]
 8001c60:	4b4a      	ldr	r3, [pc, #296]	@ (8001d8c <HAL_GPIO_Init+0x2b8>)
 8001c62:	699b      	ldr	r3, [r3, #24]
 8001c64:	f003 0301 	and.w	r3, r3, #1
 8001c68:	60bb      	str	r3, [r7, #8]
 8001c6a:	68bb      	ldr	r3, [r7, #8]
 8001c6c:	4a48      	ldr	r2, [pc, #288]	@ (8001d90 <HAL_GPIO_Init+0x2bc>)
 8001c6e:	6a7b      	ldr	r3, [r7, #36]	@ 0x24
 8001c70:	089b      	lsrs	r3, r3, #2
 8001c72:	3302      	adds	r3, #2
 8001c74:	f852 3023 	ldr.w	r3, [r2, r3, lsl #2]
 8001c78:	60fb      	str	r3, [r7, #12]
 8001c7a:	6a7b      	ldr	r3, [r7, #36]	@ 0x24
 8001c7c:	f003 0303 	and.w	r3, r3, #3
 8001c80:	009b      	lsls	r3, r3, #2
 8001c82:	220f      	movs	r2, #15
 8001c84:	fa02 f303 	lsl.w	r3, r2, r3
 8001c88:	43db      	mvns	r3, r3
 8001c8a:	68fa      	ldr	r2, [r7, #12]
 8001c8c:	4013      	ands	r3, r2
 8001c8e:	60fb      	str	r3, [r7, #12]
 8001c90:	687b      	ldr	r3, [r7, #4]
 8001c92:	4a40      	ldr	r2, [pc, #256]	@ (8001d94 <HAL_GPIO_Init+0x2c0>)
 8001c94:	4293      	cmp	r3, r2
 8001c96:	d013      	beq.n	8001cc0 <HAL_GPIO_Init+0x1ec>
 8001c98:	687b      	ldr	r3, [r7, #4]
 8001c9a:	4a3f      	ldr	r2, [pc, #252]	@ (8001d98 <HAL_GPIO_Init+0x2c4>)
 8001c9c:	4293      	cmp	r3, r2
 8001c9e:	d00d      	beq.n	8001cbc <HAL_GPIO_Init+0x1e8>
 8001ca0:	687b      	ldr	r3, [r7, #4]
 8001ca2:	4a3e      	ldr	r2, [pc, #248]	@ (8001d9c <HAL_GPIO_Init+0x2c8>)
 8001ca4:	4293      	cmp	r3, r2
 8001ca6:	d007      	beq.n	8001cb8 <HAL_GPIO_Init+0x1e4>
 8001ca8:	687b      	ldr	r3, [r7, #4]
 8001caa:	4a3d      	ldr	r2, [pc, #244]	@ (8001da0 <HAL_GPIO_Init+0x2cc>)
 8001cac:	4293      	cmp	r3, r2
 8001cae:	d101      	bne.n	8001cb4 <HAL_GPIO_Init+0x1e0>
 8001cb0:	2303      	movs	r3, #3
 8001cb2:	e006      	b.n	8001cc2 <HAL_GPIO_Init+0x1ee>
 8001cb4:	2304      	movs	r3, #4
 8001cb6:	e004      	b.n	8001cc2 <HAL_GPIO_Init+0x1ee>
 8001cb8:	2302      	movs	r3, #2
 8001cba:	e002      	b.n	8001cc2 <HAL_GPIO_Init+0x1ee>
 8001cbc:	2301      	movs	r3, #1
 8001cbe:	e000      	b.n	8001cc2 <HAL_GPIO_Init+0x1ee>
 8001cc0:	2300      	movs	r3, #0
 8001cc2:	6a7a      	ldr	r2, [r7, #36]	@ 0x24
 8001cc4:	f002 0203 	and.w	r2, r2, #3
 8001cc8:	0092      	lsls	r2, r2, #2
 8001cca:	4093      	lsls	r3, r2
 8001ccc:	68fa      	ldr	r2, [r7, #12]
 8001cce:	4313      	orrs	r3, r2
 8001cd0:	60fb      	str	r3, [r7, #12]
 8001cd2:	492f      	ldr	r1, [pc, #188]	@ (8001d90 <HAL_GPIO_Init+0x2bc>)
 8001cd4:	6a7b      	ldr	r3, [r7, #36]	@ 0x24
 8001cd6:	089b      	lsrs	r3, r3, #2
 8001cd8:	3302      	adds	r3, #2
 8001cda:	68fa      	ldr	r2, [r7, #12]
 8001cdc:	f841 2023 	str.w	r2, [r1, r3, lsl #2]
 8001ce0:	683b      	ldr	r3, [r7, #0]
 8001ce2:	685b      	ldr	r3, [r3, #4]
 8001ce4:	f403 1380 	and.w	r3, r3, #1048576	@ 0x100000
 8001ce8:	2b00      	cmp	r3, #0
 8001cea:	d006      	beq.n	8001cfa <HAL_GPIO_Init+0x226>
 8001cec:	4b2d      	ldr	r3, [pc, #180]	@ (8001da4 <HAL_GPIO_Init+0x2d0>)
 8001cee:	689a      	ldr	r2, [r3, #8]
 8001cf0:	492c      	ldr	r1, [pc, #176]	@ (8001da4 <HAL_GPIO_Init+0x2d0>)
 8001cf2:	69bb      	ldr	r3, [r7, #24]
 8001cf4:	4313      	orrs	r3, r2
 8001cf6:	608b      	str	r3, [r1, #8]
 8001cf8:	e006      	b.n	8001d08 <HAL_GPIO_Init+0x234>
 8001cfa:	4b2a      	ldr	r3, [pc, #168]	@ (8001da4 <HAL_GPIO_Init+0x2d0>)
 8001cfc:	689a      	ldr	r2, [r3, #8]
 8001cfe:	69bb      	ldr	r3, [r7, #24]
 8001d00:	43db      	mvns	r3, r3
 8001d02:	4928      	ldr	r1, [pc, #160]	@ (8001da4 <HAL_GPIO_Init+0x2d0>)
 8001d04:	4013      	ands	r3, r2
 8001d06:	608b      	str	r3, [r1, #8]
 8001d08:	683b      	ldr	r3, [r7, #0]
 8001d0a:	685b      	ldr	r3, [r3, #4]
 8001d0c:	f403 1300 	and.w	r3, r3, #2097152	@ 0x200000
 8001d10:	2b00      	cmp	r3, #0
 8001d12:	d006      	beq.n	8001d22 <HAL_GPIO_Init+0x24e>
 8001d14:	4b23      	ldr	r3, [pc, #140]	@ (8001da4 <HAL_GPIO_Init+0x2d0>)
 8001d16:	68da      	ldr	r2, [r3, #12]
 8001d18:	4922      	ldr	r1, [pc, #136]	@ (8001da4 <HAL_GPIO_Init+0x2d0>)
 8001d1a:	69bb      	ldr	r3, [r7, #24]
 8001d1c:	4313      	orrs	r3, r2
 8001d1e:	60cb      	str	r3, [r1, #12]
 8001d20:	e006      	b.n	8001d30 <HAL_GPIO_Init+0x25c>
 8001d22:	4b20      	ldr	r3, [pc, #128]	@ (8001da4 <HAL_GPIO_Init+0x2d0>)
 8001d24:	68da      	ldr	r2, [r3, #12]
 8001d26:	69bb      	ldr	r3, [r7, #24]
 8001d28:	43db      	mvns	r3, r3
 8001d2a:	491e      	ldr	r1, [pc, #120]	@ (8001da4 <HAL_GPIO_Init+0x2d0>)
 8001d2c:	4013      	ands	r3, r2
 8001d2e:	60cb      	str	r3, [r1, #12]
 8001d30:	683b      	ldr	r3, [r7, #0]
 8001d32:	685b      	ldr	r3, [r3, #4]
 8001d34:	f403 3300 	and.w	r3, r3, #131072	@ 0x20000
 8001d38:	2b00      	cmp	r3, #0
 8001d3a:	d006      	beq.n	8001d4a <HAL_GPIO_Init+0x276>
 8001d3c:	4b19      	ldr	r3, [pc, #100]	@ (8001da4 <HAL_GPIO_Init+0x2d0>)
 8001d3e:	685a      	ldr	r2, [r3, #4]
 8001d40:	4918      	ldr	r1, [pc, #96]	@ (8001da4 <HAL_GPIO_Init+0x2d0>)
 8001d42:	69bb      	ldr	r3, [r7, #24]
 8001d44:	4313      	orrs	r3, r2
 8001d46:	604b      	str	r3, [r1, #4]
 8001d48:	e006      	b.n	8001d58 <HAL_GPIO_Init+0x284>
 8001d4a:	4b16      	ldr	r3, [pc, #88]	@ (8001da4 <HAL_GPIO_Init+0x2d0>)
 8001d4c:	685a      	ldr	r2, [r3, #4]
 8001d4e:	69bb      	ldr	r3, [r7, #24]
 8001d50:	43db      	mvns	r3, r3
 8001d52:	4914      	ldr	r1, [pc, #80]	@ (8001da4 <HAL_GPIO_Init+0x2d0>)
 8001d54:	4013      	ands	r3, r2
 8001d56:	604b      	str	r3, [r1, #4]
 8001d58:	683b      	ldr	r3, [r7, #0]
 8001d5a:	685b      	ldr	r3, [r3, #4]
 8001d5c:	f403 3380 	and.w	r3, r3, #65536	@ 0x10000
 8001d60:	2b00      	cmp	r3, #0
 8001d62:	d021      	beq.n	8001da8 <HAL_GPIO_Init+0x2d4>
 8001d64:	4b0f      	ldr	r3, [pc, #60]	@ (8001da4 <HAL_GPIO_Init+0x2d0>)
 8001d66:	681a      	ldr	r2, [r3, #0]
 8001d68:	490e      	ldr	r1, [pc, #56]	@ (8001da4 <HAL_GPIO_Init+0x2d0>)
 8001d6a:	69bb      	ldr	r3, [r7, #24]
 8001d6c:	4313      	orrs	r3, r2
 8001d6e:	600b      	str	r3, [r1, #0]
 8001d70:	e021      	b.n	8001db6 <HAL_GPIO_Init+0x2e2>
 8001d72:	bf00      	nop
 8001d74:	10320000 	.word	0x10320000
 8001d78:	10310000 	.word	0x10310000
 8001d7c:	10220000 	.word	0x10220000
 8001d80:	10210000 	.word	0x10210000
 8001d84:	10120000 	.word	0x10120000
 8001d88:	10110000 	.word	0x10110000
 8001d8c:	40021000 	.word	0x40021000
 8001d90:	40010000 	.word	0x40010000
 8001d94:	40010800 	.word	0x40010800
 8001d98:	40010c00 	.word	0x40010c00
 8001d9c:	40011000 	.word	0x40011000
 8001da0:	40011400 	.word	0x40011400
 8001da4:	40010400 	.word	0x40010400
 8001da8:	4b0b      	ldr	r3, [pc, #44]	@ (8001dd8 <HAL_GPIO_Init+0x304>)
 8001daa:	681a      	ldr	r2, [r3, #0]
 8001dac:	69bb      	ldr	r3, [r7, #24]
 8001dae:	43db      	mvns	r3, r3
 8001db0:	4909      	ldr	r1, [pc, #36]	@ (8001dd8 <HAL_GPIO_Init+0x304>)
 8001db2:	4013      	ands	r3, r2
 8001db4:	600b      	str	r3, [r1, #0]
 8001db6:	6a7b      	ldr	r3, [r7, #36]	@ 0x24
 8001db8:	3301      	adds	r3, #1
 8001dba:	627b      	str	r3, [r7, #36]	@ 0x24
 8001dbc:	683b      	ldr	r3, [r7, #0]
 8001dbe:	681a      	ldr	r2, [r3, #0]
 8001dc0:	6a7b      	ldr	r3, [r7, #36]	@ 0x24
 8001dc2:	fa22 f303 	lsr.w	r3, r2, r3
 8001dc6:	2b00      	cmp	r3, #0
 8001dc8:	f47f ae8e 	bne.w	8001ae8 <HAL_GPIO_Init+0x14>
 8001dcc:	bf00      	nop
 8001dce:	bf00      	nop
 8001dd0:	372c      	adds	r7, #44	@ 0x2c
 8001dd2:	46bd      	mov	sp, r7
 8001dd4:	bc80      	pop	{r7}
 8001dd6:	4770      	bx	lr
 8001dd8:	40010400 	.word	0x40010400

08001ddc <HAL_GPIO_WritePin>:
 8001ddc:	b480      	push	{r7}
 8001dde:	b083      	sub	sp, #12
 8001de0:	af00      	add	r7, sp, #0
 8001de2:	6078      	str	r0, [r7, #4]
 8001de4:	460b      	mov	r3, r1
 8001de6:	807b      	strh	r3, [r7, #2]
 8001de8:	4613      	mov	r3, r2
 8001dea:	707b      	strb	r3, [r7, #1]
 8001dec:	787b      	ldrb	r3, [r7, #1]
 8001dee:	2b00      	cmp	r3, #0
 8001df0:	d003      	beq.n	8001dfa <HAL_GPIO_WritePin+0x1e>
 8001df2:	887a      	ldrh	r2, [r7, #2]
 8001df4:	687b      	ldr	r3, [r7, #4]
 8001df6:	611a      	str	r2, [r3, #16]
 8001df8:	e003      	b.n	8001e02 <HAL_GPIO_WritePin+0x26>
 8001dfa:	887b      	ldrh	r3, [r7, #2]
 8001dfc:	041a      	lsls	r2, r3, #16
 8001dfe:	687b      	ldr	r3, [r7, #4]
 8001e00:	611a      	str	r2, [r3, #16]
 8001e02:	bf00      	nop
 8001e04:	370c      	adds	r7, #12
 8001e06:	46bd      	mov	sp, r7
 8001e08:	bc80      	pop	{r7}
 8001e0a:	4770      	bx	lr

08001e0c <HAL_GPIO_TogglePin>:
 8001e0c:	b480      	push	{r7}
 8001e0e:	b085      	sub	sp, #20
 8001e10:	af00      	add	r7, sp, #0
 8001e12:	6078      	str	r0, [r7, #4]
 8001e14:	460b      	mov	r3, r1
 8001e16:	807b      	strh	r3, [r7, #2]
 8001e18:	687b      	ldr	r3, [r7, #4]
 8001e1a:	68db      	ldr	r3, [r3, #12]
 8001e1c:	60fb      	str	r3, [r7, #12]
 8001e1e:	887a      	ldrh	r2, [r7, #2]
 8001e20:	68fb      	ldr	r3, [r7, #12]
 8001e22:	4013      	ands	r3, r2
 8001e24:	041a      	lsls	r2, r3, #16
 8001e26:	68fb      	ldr	r3, [r7, #12]
 8001e28:	43d9      	mvns	r1, r3
 8001e2a:	887b      	ldrh	r3, [r7, #2]
 8001e2c:	400b      	ands	r3, r1
 8001e2e:	431a      	orrs	r2, r3
 8001e30:	687b      	ldr	r3, [r7, #4]
 8001e32:	611a      	str	r2, [r3, #16]
 8001e34:	bf00      	nop
 8001e36:	3714      	adds	r7, #20
 8001e38:	46bd      	mov	sp, r7
 8001e3a:	bc80      	pop	{r7}
 8001e3c:	4770      	bx	lr
	...

08001e40 <HAL_GPIO_EXTI_IRQHandler>:
 8001e40:	b580      	push	{r7, lr}
 8001e42:	b082      	sub	sp, #8
 8001e44:	af00      	add	r7, sp, #0
 8001e46:	4603      	mov	r3, r0
 8001e48:	80fb      	strh	r3, [r7, #6]
 8001e4a:	4b08      	ldr	r3, [pc, #32]	@ (8001e6c <HAL_GPIO_EXTI_IRQHandler+0x2c>)
 8001e4c:	695a      	ldr	r2, [r3, #20]
 8001e4e:	88fb      	ldrh	r3, [r7, #6]
 8001e50:	4013      	ands	r3, r2
 8001e52:	2b00      	cmp	r3, #0
 8001e54:	d006      	beq.n	8001e64 <HAL_GPIO_EXTI_IRQHandler+0x24>
 8001e56:	4a05      	ldr	r2, [pc, #20]	@ (8001e6c <HAL_GPIO_EXTI_IRQHandler+0x2c>)
 8001e58:	88fb      	ldrh	r3, [r7, #6]
 8001e5a:	6153      	str	r3, [r2, #20]
 8001e5c:	88fb      	ldrh	r3, [r7, #6]
 8001e5e:	4618      	mov	r0, r3
 8001e60:	f7ff fa4c 	bl	80012fc <HAL_GPIO_EXTI_Callback>
 8001e64:	bf00      	nop
 8001e66:	3708      	adds	r7, #8
 8001e68:	46bd      	mov	sp, r7
 8001e6a:	bd80      	pop	{r7, pc}
 8001e6c:	40010400 	.word	0x40010400

08001e70 <HAL_RCC_OscConfig>:
 8001e70:	b580      	push	{r7, lr}
 8001e72:	b086      	sub	sp, #24
 8001e74:	af00      	add	r7, sp, #0
 8001e76:	6078      	str	r0, [r7, #4]
 8001e78:	687b      	ldr	r3, [r7, #4]
 8001e7a:	2b00      	cmp	r3, #0
 8001e7c:	d101      	bne.n	8001e82 <HAL_RCC_OscConfig+0x12>
 8001e7e:	2301      	movs	r3, #1
 8001e80:	e272      	b.n	8002368 <HAL_RCC_OscConfig+0x4f8>
 8001e82:	687b      	ldr	r3, [r7, #4]
 8001e84:	681b      	ldr	r3, [r3, #0]
 8001e86:	f003 0301 	and.w	r3, r3, #1
 8001e8a:	2b00      	cmp	r3, #0
 8001e8c:	f000 8087 	beq.w	8001f9e <HAL_RCC_OscConfig+0x12e>
 8001e90:	4b92      	ldr	r3, [pc, #584]	@ (80020dc <HAL_RCC_OscConfig+0x26c>)
 8001e92:	685b      	ldr	r3, [r3, #4]
 8001e94:	f003 030c 	and.w	r3, r3, #12
 8001e98:	2b04      	cmp	r3, #4
 8001e9a:	d00c      	beq.n	8001eb6 <HAL_RCC_OscConfig+0x46>
 8001e9c:	4b8f      	ldr	r3, [pc, #572]	@ (80020dc <HAL_RCC_OscConfig+0x26c>)
 8001e9e:	685b      	ldr	r3, [r3, #4]
 8001ea0:	f003 030c 	and.w	r3, r3, #12
 8001ea4:	2b08      	cmp	r3, #8
 8001ea6:	d112      	bne.n	8001ece <HAL_RCC_OscConfig+0x5e>
 8001ea8:	4b8c      	ldr	r3, [pc, #560]	@ (80020dc <HAL_RCC_OscConfig+0x26c>)
 8001eaa:	685b      	ldr	r3, [r3, #4]
 8001eac:	f403 3380 	and.w	r3, r3, #65536	@ 0x10000
 8001eb0:	f5b3 3f80 	cmp.w	r3, #65536	@ 0x10000
 8001eb4:	d10b      	bne.n	8001ece <HAL_RCC_OscConfig+0x5e>
 8001eb6:	4b89      	ldr	r3, [pc, #548]	@ (80020dc <HAL_RCC_OscConfig+0x26c>)
 8001eb8:	681b      	ldr	r3, [r3, #0]
 8001eba:	f403 3300 	and.w	r3, r3, #131072	@ 0x20000
 8001ebe:	2b00      	cmp	r3, #0
 8001ec0:	d06c      	beq.n	8001f9c <HAL_RCC_OscConfig+0x12c>
 8001ec2:	687b      	ldr	r3, [r7, #4]
 8001ec4:	685b      	ldr	r3, [r3, #4]
 8001ec6:	2b00      	cmp	r3, #0
 8001ec8:	d168      	bne.n	8001f9c <HAL_RCC_OscConfig+0x12c>
 8001eca:	2301      	movs	r3, #1
 8001ecc:	e24c      	b.n	8002368 <HAL_RCC_OscConfig+0x4f8>
 8001ece:	687b      	ldr	r3, [r7, #4]
 8001ed0:	685b      	ldr	r3, [r3, #4]
 8001ed2:	f5b3 3f80 	cmp.w	r3, #65536	@ 0x10000
 8001ed6:	d106      	bne.n	8001ee6 <HAL_RCC_OscConfig+0x76>
 8001ed8:	4b80      	ldr	r3, [pc, #512]	@ (80020dc <HAL_RCC_OscConfig+0x26c>)
 8001eda:	681b      	ldr	r3, [r3, #0]
 8001edc:	4a7f      	ldr	r2, [pc, #508]	@ (80020dc <HAL_RCC_OscConfig+0x26c>)
 8001ede:	f443 3380 	orr.w	r3, r3, #65536	@ 0x10000
 8001ee2:	6013      	str	r3, [r2, #0]
 8001ee4:	e02e      	b.n	8001f44 <HAL_RCC_OscConfig+0xd4>
 8001ee6:	687b      	ldr	r3, [r7, #4]
 8001ee8:	685b      	ldr	r3, [r3, #4]
 8001eea:	2b00      	cmp	r3, #0
 8001eec:	d10c      	bne.n	8001f08 <HAL_RCC_OscConfig+0x98>
 8001eee:	4b7b      	ldr	r3, [pc, #492]	@ (80020dc <HAL_RCC_OscConfig+0x26c>)
 8001ef0:	681b      	ldr	r3, [r3, #0]
 8001ef2:	4a7a      	ldr	r2, [pc, #488]	@ (80020dc <HAL_RCC_OscConfig+0x26c>)
 8001ef4:	f423 3380 	bic.w	r3, r3, #65536	@ 0x10000
 8001ef8:	6013      	str	r3, [r2, #0]
 8001efa:	4b78      	ldr	r3, [pc, #480]	@ (80020dc <HAL_RCC_OscConfig+0x26c>)
 8001efc:	681b      	ldr	r3, [r3, #0]
 8001efe:	4a77      	ldr	r2, [pc, #476]	@ (80020dc <HAL_RCC_OscConfig+0x26c>)
 8001f00:	f423 2380 	bic.w	r3, r3, #262144	@ 0x40000
 8001f04:	6013      	str	r3, [r2, #0]
 8001f06:	e01d      	b.n	8001f44 <HAL_RCC_OscConfig+0xd4>
 8001f08:	687b      	ldr	r3, [r7, #4]
 8001f0a:	685b      	ldr	r3, [r3, #4]
 8001f0c:	f5b3 2fa0 	cmp.w	r3, #327680	@ 0x50000
 8001f10:	d10c      	bne.n	8001f2c <HAL_RCC_OscConfig+0xbc>
 8001f12:	4b72      	ldr	r3, [pc, #456]	@ (80020dc <HAL_RCC_OscConfig+0x26c>)
 8001f14:	681b      	ldr	r3, [r3, #0]
 8001f16:	4a71      	ldr	r2, [pc, #452]	@ (80020dc <HAL_RCC_OscConfig+0x26c>)
 8001f18:	f443 2380 	orr.w	r3, r3, #262144	@ 0x40000
 8001f1c:	6013      	str	r3, [r2, #0]
 8001f1e:	4b6f      	ldr	r3, [pc, #444]	@ (80020dc <HAL_RCC_OscConfig+0x26c>)
 8001f20:	681b      	ldr	r3, [r3, #0]
 8001f22:	4a6e      	ldr	r2, [pc, #440]	@ (80020dc <HAL_RCC_OscConfig+0x26c>)
 8001f24:	f443 3380 	orr.w	r3, r3, #65536	@ 0x10000
 8001f28:	6013      	str	r3, [r2, #0]
 8001f2a:	e00b      	b.n	8001f44 <HAL_RCC_OscConfig+0xd4>
 8001f2c:	4b6b      	ldr	r3, [pc, #428]	@ (80020dc <HAL_RCC_OscConfig+0x26c>)
 8001f2e:	681b      	ldr	r3, [r3, #0]
 8001f30:	4a6a      	ldr	r2, [pc, #424]	@ (80020dc <HAL_RCC_OscConfig+0x26c>)
 8001f32:	f423 3380 	bic.w	r3, r3, #65536	@ 0x10000
 8001f36:	6013      	str	r3, [r2, #0]
 8001f38:	4b68      	ldr	r3, [pc, #416]	@ (80020dc <HAL_RCC_OscConfig+0x26c>)
 8001f3a:	681b      	ldr	r3, [r3, #0]
 8001f3c:	4a67      	ldr	r2, [pc, #412]	@ (80020dc <HAL_RCC_OscConfig+0x26c>)
 8001f3e:	f423 2380 	bic.w	r3, r3, #262144	@ 0x40000
 8001f42:	6013      	str	r3, [r2, #0]
 8001f44:	687b      	ldr	r3, [r7, #4]
 8001f46:	685b      	ldr	r3, [r3, #4]
 8001f48:	2b00      	cmp	r3, #0
 8001f4a:	d013      	beq.n	8001f74 <HAL_RCC_OscConfig+0x104>
 8001f4c:	f7ff fc86 	bl	800185c <HAL_GetTick>
 8001f50:	6138      	str	r0, [r7, #16]
 8001f52:	e008      	b.n	8001f66 <HAL_RCC_OscConfig+0xf6>
 8001f54:	f7ff fc82 	bl	800185c <HAL_GetTick>
 8001f58:	4602      	mov	r2, r0
 8001f5a:	693b      	ldr	r3, [r7, #16]
 8001f5c:	1ad3      	subs	r3, r2, r3
 8001f5e:	2b64      	cmp	r3, #100	@ 0x64
 8001f60:	d901      	bls.n	8001f66 <HAL_RCC_OscConfig+0xf6>
 8001f62:	2303      	movs	r3, #3
 8001f64:	e200      	b.n	8002368 <HAL_RCC_OscConfig+0x4f8>
 8001f66:	4b5d      	ldr	r3, [pc, #372]	@ (80020dc <HAL_RCC_OscConfig+0x26c>)
 8001f68:	681b      	ldr	r3, [r3, #0]
 8001f6a:	f403 3300 	and.w	r3, r3, #131072	@ 0x20000
 8001f6e:	2b00      	cmp	r3, #0
 8001f70:	d0f0      	beq.n	8001f54 <HAL_RCC_OscConfig+0xe4>
 8001f72:	e014      	b.n	8001f9e <HAL_RCC_OscConfig+0x12e>
 8001f74:	f7ff fc72 	bl	800185c <HAL_GetTick>
 8001f78:	6138      	str	r0, [r7, #16]
 8001f7a:	e008      	b.n	8001f8e <HAL_RCC_OscConfig+0x11e>
 8001f7c:	f7ff fc6e 	bl	800185c <HAL_GetTick>
 8001f80:	4602      	mov	r2, r0
 8001f82:	693b      	ldr	r3, [r7, #16]
 8001f84:	1ad3      	subs	r3, r2, r3
 8001f86:	2b64      	cmp	r3, #100	@ 0x64
 8001f88:	d901      	bls.n	8001f8e <HAL_RCC_OscConfig+0x11e>
 8001f8a:	2303      	movs	r3, #3
 8001f8c:	e1ec      	b.n	8002368 <HAL_RCC_OscConfig+0x4f8>
 8001f8e:	4b53      	ldr	r3, [pc, #332]	@ (80020dc <HAL_RCC_OscConfig+0x26c>)
 8001f90:	681b      	ldr	r3, [r3, #0]
 8001f92:	f403 3300 	and.w	r3, r3, #131072	@ 0x20000
 8001f96:	2b00      	cmp	r3, #0
 8001f98:	d1f0      	bne.n	8001f7c <HAL_RCC_OscConfig+0x10c>
 8001f9a:	e000      	b.n	8001f9e <HAL_RCC_OscConfig+0x12e>
 8001f9c:	bf00      	nop
 8001f9e:	687b      	ldr	r3, [r7, #4]
 8001fa0:	681b      	ldr	r3, [r3, #0]
 8001fa2:	f003 0302 	and.w	r3, r3, #2
 8001fa6:	2b00      	cmp	r3, #0
 8001fa8:	d063      	beq.n	8002072 <HAL_RCC_OscConfig+0x202>
 8001faa:	4b4c      	ldr	r3, [pc, #304]	@ (80020dc <HAL_RCC_OscConfig+0x26c>)
 8001fac:	685b      	ldr	r3, [r3, #4]
 8001fae:	f003 030c 	and.w	r3, r3, #12
 8001fb2:	2b00      	cmp	r3, #0
 8001fb4:	d00b      	beq.n	8001fce <HAL_RCC_OscConfig+0x15e>
 8001fb6:	4b49      	ldr	r3, [pc, #292]	@ (80020dc <HAL_RCC_OscConfig+0x26c>)
 8001fb8:	685b      	ldr	r3, [r3, #4]
 8001fba:	f003 030c 	and.w	r3, r3, #12
 8001fbe:	2b08      	cmp	r3, #8
 8001fc0:	d11c      	bne.n	8001ffc <HAL_RCC_OscConfig+0x18c>
 8001fc2:	4b46      	ldr	r3, [pc, #280]	@ (80020dc <HAL_RCC_OscConfig+0x26c>)
 8001fc4:	685b      	ldr	r3, [r3, #4]
 8001fc6:	f403 3380 	and.w	r3, r3, #65536	@ 0x10000
 8001fca:	2b00      	cmp	r3, #0
 8001fcc:	d116      	bne.n	8001ffc <HAL_RCC_OscConfig+0x18c>
 8001fce:	4b43      	ldr	r3, [pc, #268]	@ (80020dc <HAL_RCC_OscConfig+0x26c>)
 8001fd0:	681b      	ldr	r3, [r3, #0]
 8001fd2:	f003 0302 	and.w	r3, r3, #2
 8001fd6:	2b00      	cmp	r3, #0
 8001fd8:	d005      	beq.n	8001fe6 <HAL_RCC_OscConfig+0x176>
 8001fda:	687b      	ldr	r3, [r7, #4]
 8001fdc:	691b      	ldr	r3, [r3, #16]
 8001fde:	2b01      	cmp	r3, #1
 8001fe0:	d001      	beq.n	8001fe6 <HAL_RCC_OscConfig+0x176>
 8001fe2:	2301      	movs	r3, #1
 8001fe4:	e1c0      	b.n	8002368 <HAL_RCC_OscConfig+0x4f8>
 8001fe6:	4b3d      	ldr	r3, [pc, #244]	@ (80020dc <HAL_RCC_OscConfig+0x26c>)
 8001fe8:	681b      	ldr	r3, [r3, #0]
 8001fea:	f023 02f8 	bic.w	r2, r3, #248	@ 0xf8
 8001fee:	687b      	ldr	r3, [r7, #4]
 8001ff0:	695b      	ldr	r3, [r3, #20]
 8001ff2:	00db      	lsls	r3, r3, #3
 8001ff4:	4939      	ldr	r1, [pc, #228]	@ (80020dc <HAL_RCC_OscConfig+0x26c>)
 8001ff6:	4313      	orrs	r3, r2
 8001ff8:	600b      	str	r3, [r1, #0]
 8001ffa:	e03a      	b.n	8002072 <HAL_RCC_OscConfig+0x202>
 8001ffc:	687b      	ldr	r3, [r7, #4]
 8001ffe:	691b      	ldr	r3, [r3, #16]
 8002000:	2b00      	cmp	r3, #0
 8002002:	d020      	beq.n	8002046 <HAL_RCC_OscConfig+0x1d6>
 8002004:	4b36      	ldr	r3, [pc, #216]	@ (80020e0 <HAL_RCC_OscConfig+0x270>)
 8002006:	2201      	movs	r2, #1
 8002008:	601a      	str	r2, [r3, #0]
 800200a:	f7ff fc27 	bl	800185c <HAL_GetTick>
 800200e:	6138      	str	r0, [r7, #16]
 8002010:	e008      	b.n	8002024 <HAL_RCC_OscConfig+0x1b4>
 8002012:	f7ff fc23 	bl	800185c <HAL_GetTick>
 8002016:	4602      	mov	r2, r0
 8002018:	693b      	ldr	r3, [r7, #16]
 800201a:	1ad3      	subs	r3, r2, r3
 800201c:	2b02      	cmp	r3, #2
 800201e:	d901      	bls.n	8002024 <HAL_RCC_OscConfig+0x1b4>
 8002020:	2303      	movs	r3, #3
 8002022:	e1a1      	b.n	8002368 <HAL_RCC_OscConfig+0x4f8>
 8002024:	4b2d      	ldr	r3, [pc, #180]	@ (80020dc <HAL_RCC_OscConfig+0x26c>)
 8002026:	681b      	ldr	r3, [r3, #0]
 8002028:	f003 0302 	and.w	r3, r3, #2
 800202c:	2b00      	cmp	r3, #0
 800202e:	d0f0      	beq.n	8002012 <HAL_RCC_OscConfig+0x1a2>
 8002030:	4b2a      	ldr	r3, [pc, #168]	@ (80020dc <HAL_RCC_OscConfig+0x26c>)
 8002032:	681b      	ldr	r3, [r3, #0]
 8002034:	f023 02f8 	bic.w	r2, r3, #248	@ 0xf8
 8002038:	687b      	ldr	r3, [r7, #4]
 800203a:	695b      	ldr	r3, [r3, #20]
 800203c:	00db      	lsls	r3, r3, #3
 800203e:	4927      	ldr	r1, [pc, #156]	@ (80020dc <HAL_RCC_OscConfig+0x26c>)
 8002040:	4313      	orrs	r3, r2
 8002042:	600b      	str	r3, [r1, #0]
 8002044:	e015      	b.n	8002072 <HAL_RCC_OscConfig+0x202>
 8002046:	4b26      	ldr	r3, [pc, #152]	@ (80020e0 <HAL_RCC_OscConfig+0x270>)
 8002048:	2200      	movs	r2, #0
 800204a:	601a      	str	r2, [r3, #0]
 800204c:	f7ff fc06 	bl	800185c <HAL_GetTick>
 8002050:	6138      	str	r0, [r7, #16]
 8002052:	e008      	b.n	8002066 <HAL_RCC_OscConfig+0x1f6>
 8002054:	f7ff fc02 	bl	800185c <HAL_GetTick>
 8002058:	4602      	mov	r2, r0
 800205a:	693b      	ldr	r3, [r7, #16]
 800205c:	1ad3      	subs	r3, r2, r3
 800205e:	2b02      	cmp	r3, #2
 8002060:	d901      	bls.n	8002066 <HAL_RCC_OscConfig+0x1f6>
 8002062:	2303      	movs	r3, #3
 8002064:	e180      	b.n	8002368 <HAL_RCC_OscConfig+0x4f8>
 8002066:	4b1d      	ldr	r3, [pc, #116]	@ (80020dc <HAL_RCC_OscConfig+0x26c>)
 8002068:	681b      	ldr	r3, [r3, #0]
 800206a:	f003 0302 	and.w	r3, r3, #2
 800206e:	2b00      	cmp	r3, #0
 8002070:	d1f0      	bne.n	8002054 <HAL_RCC_OscConfig+0x1e4>
 8002072:	687b      	ldr	r3, [r7, #4]
 8002074:	681b      	ldr	r3, [r3, #0]
 8002076:	f003 0308 	and.w	r3, r3, #8
 800207a:	2b00      	cmp	r3, #0
 800207c:	d03a      	beq.n	80020f4 <HAL_RCC_OscConfig+0x284>
 800207e:	687b      	ldr	r3, [r7, #4]
 8002080:	699b      	ldr	r3, [r3, #24]
 8002082:	2b00      	cmp	r3, #0
 8002084:	d019      	beq.n	80020ba <HAL_RCC_OscConfig+0x24a>
 8002086:	4b17      	ldr	r3, [pc, #92]	@ (80020e4 <HAL_RCC_OscConfig+0x274>)
 8002088:	2201      	movs	r2, #1
 800208a:	601a      	str	r2, [r3, #0]
 800208c:	f7ff fbe6 	bl	800185c <HAL_GetTick>
 8002090:	6138      	str	r0, [r7, #16]
 8002092:	e008      	b.n	80020a6 <HAL_RCC_OscConfig+0x236>
 8002094:	f7ff fbe2 	bl	800185c <HAL_GetTick>
 8002098:	4602      	mov	r2, r0
 800209a:	693b      	ldr	r3, [r7, #16]
 800209c:	1ad3      	subs	r3, r2, r3
 800209e:	2b02      	cmp	r3, #2
 80020a0:	d901      	bls.n	80020a6 <HAL_RCC_OscConfig+0x236>
 80020a2:	2303      	movs	r3, #3
 80020a4:	e160      	b.n	8002368 <HAL_RCC_OscConfig+0x4f8>
 80020a6:	4b0d      	ldr	r3, [pc, #52]	@ (80020dc <HAL_RCC_OscConfig+0x26c>)
 80020a8:	6a5b      	ldr	r3, [r3, #36]	@ 0x24
 80020aa:	f003 0302 	and.w	r3, r3, #2
 80020ae:	2b00      	cmp	r3, #0
 80020b0:	d0f0      	beq.n	8002094 <HAL_RCC_OscConfig+0x224>
 80020b2:	2001      	movs	r0, #1
 80020b4:	f000 face 	bl	8002654 <RCC_Delay>
 80020b8:	e01c      	b.n	80020f4 <HAL_RCC_OscConfig+0x284>
 80020ba:	4b0a      	ldr	r3, [pc, #40]	@ (80020e4 <HAL_RCC_OscConfig+0x274>)
 80020bc:	2200      	movs	r2, #0
 80020be:	601a      	str	r2, [r3, #0]
 80020c0:	f7ff fbcc 	bl	800185c <HAL_GetTick>
 80020c4:	6138      	str	r0, [r7, #16]
 80020c6:	e00f      	b.n	80020e8 <HAL_RCC_OscConfig+0x278>
 80020c8:	f7ff fbc8 	bl	800185c <HAL_GetTick>
 80020cc:	4602      	mov	r2, r0
 80020ce:	693b      	ldr	r3, [r7, #16]
 80020d0:	1ad3      	subs	r3, r2, r3
 80020d2:	2b02      	cmp	r3, #2
 80020d4:	d908      	bls.n	80020e8 <HAL_RCC_OscConfig+0x278>
 80020d6:	2303      	movs	r3, #3
 80020d8:	e146      	b.n	8002368 <HAL_RCC_OscConfig+0x4f8>
 80020da:	bf00      	nop
 80020dc:	40021000 	.word	0x40021000
 80020e0:	42420000 	.word	0x42420000
 80020e4:	42420480 	.word	0x42420480
 80020e8:	4b92      	ldr	r3, [pc, #584]	@ (8002334 <HAL_RCC_OscConfig+0x4c4>)
 80020ea:	6a5b      	ldr	r3, [r3, #36]	@ 0x24
 80020ec:	f003 0302 	and.w	r3, r3, #2
 80020f0:	2b00      	cmp	r3, #0
 80020f2:	d1e9      	bne.n	80020c8 <HAL_RCC_OscConfig+0x258>
 80020f4:	687b      	ldr	r3, [r7, #4]
 80020f6:	681b      	ldr	r3, [r3, #0]
 80020f8:	f003 0304 	and.w	r3, r3, #4
 80020fc:	2b00      	cmp	r3, #0
 80020fe:	f000 80a6 	beq.w	800224e <HAL_RCC_OscConfig+0x3de>
 8002102:	2300      	movs	r3, #0
 8002104:	75fb      	strb	r3, [r7, #23]
 8002106:	4b8b      	ldr	r3, [pc, #556]	@ (8002334 <HAL_RCC_OscConfig+0x4c4>)
 8002108:	69db      	ldr	r3, [r3, #28]
 800210a:	f003 5380 	and.w	r3, r3, #268435456	@ 0x10000000
 800210e:	2b00      	cmp	r3, #0
 8002110:	d10d      	bne.n	800212e <HAL_RCC_OscConfig+0x2be>
 8002112:	4b88      	ldr	r3, [pc, #544]	@ (8002334 <HAL_RCC_OscConfig+0x4c4>)
 8002114:	69db      	ldr	r3, [r3, #28]
 8002116:	4a87      	ldr	r2, [pc, #540]	@ (8002334 <HAL_RCC_OscConfig+0x4c4>)
 8002118:	f043 5380 	orr.w	r3, r3, #268435456	@ 0x10000000
 800211c:	61d3      	str	r3, [r2, #28]
 800211e:	4b85      	ldr	r3, [pc, #532]	@ (8002334 <HAL_RCC_OscConfig+0x4c4>)
 8002120:	69db      	ldr	r3, [r3, #28]
 8002122:	f003 5380 	and.w	r3, r3, #268435456	@ 0x10000000
 8002126:	60bb      	str	r3, [r7, #8]
 8002128:	68bb      	ldr	r3, [r7, #8]
 800212a:	2301      	movs	r3, #1
 800212c:	75fb      	strb	r3, [r7, #23]
 800212e:	4b82      	ldr	r3, [pc, #520]	@ (8002338 <HAL_RCC_OscConfig+0x4c8>)
 8002130:	681b      	ldr	r3, [r3, #0]
 8002132:	f403 7380 	and.w	r3, r3, #256	@ 0x100
 8002136:	2b00      	cmp	r3, #0
 8002138:	d118      	bne.n	800216c <HAL_RCC_OscConfig+0x2fc>
 800213a:	4b7f      	ldr	r3, [pc, #508]	@ (8002338 <HAL_RCC_OscConfig+0x4c8>)
 800213c:	681b      	ldr	r3, [r3, #0]
 800213e:	4a7e      	ldr	r2, [pc, #504]	@ (8002338 <HAL_RCC_OscConfig+0x4c8>)
 8002140:	f443 7380 	orr.w	r3, r3, #256	@ 0x100
 8002144:	6013      	str	r3, [r2, #0]
 8002146:	f7ff fb89 	bl	800185c <HAL_GetTick>
 800214a:	6138      	str	r0, [r7, #16]
 800214c:	e008      	b.n	8002160 <HAL_RCC_OscConfig+0x2f0>
 800214e:	f7ff fb85 	bl	800185c <HAL_GetTick>
 8002152:	4602      	mov	r2, r0
 8002154:	693b      	ldr	r3, [r7, #16]
 8002156:	1ad3      	subs	r3, r2, r3
 8002158:	2b64      	cmp	r3, #100	@ 0x64
 800215a:	d901      	bls.n	8002160 <HAL_RCC_OscConfig+0x2f0>
 800215c:	2303      	movs	r3, #3
 800215e:	e103      	b.n	8002368 <HAL_RCC_OscConfig+0x4f8>
 8002160:	4b75      	ldr	r3, [pc, #468]	@ (8002338 <HAL_RCC_OscConfig+0x4c8>)
 8002162:	681b      	ldr	r3, [r3, #0]
 8002164:	f403 7380 	and.w	r3, r3, #256	@ 0x100
 8002168:	2b00      	cmp	r3, #0
 800216a:	d0f0      	beq.n	800214e <HAL_RCC_OscConfig+0x2de>
 800216c:	687b      	ldr	r3, [r7, #4]
 800216e:	68db      	ldr	r3, [r3, #12]
 8002170:	2b01      	cmp	r3, #1
 8002172:	d106      	bne.n	8002182 <HAL_RCC_OscConfig+0x312>
 8002174:	4b6f      	ldr	r3, [pc, #444]	@ (8002334 <HAL_RCC_OscConfig+0x4c4>)
 8002176:	6a1b      	ldr	r3, [r3, #32]
 8002178:	4a6e      	ldr	r2, [pc, #440]	@ (8002334 <HAL_RCC_OscConfig+0x4c4>)
 800217a:	f043 0301 	orr.w	r3, r3, #1
 800217e:	6213      	str	r3, [r2, #32]
 8002180:	e02d      	b.n	80021de <HAL_RCC_OscConfig+0x36e>
 8002182:	687b      	ldr	r3, [r7, #4]
 8002184:	68db      	ldr	r3, [r3, #12]
 8002186:	2b00      	cmp	r3, #0
 8002188:	d10c      	bne.n	80021a4 <HAL_RCC_OscConfig+0x334>
 800218a:	4b6a      	ldr	r3, [pc, #424]	@ (8002334 <HAL_RCC_OscConfig+0x4c4>)
 800218c:	6a1b      	ldr	r3, [r3, #32]
 800218e:	4a69      	ldr	r2, [pc, #420]	@ (8002334 <HAL_RCC_OscConfig+0x4c4>)
 8002190:	f023 0301 	bic.w	r3, r3, #1
 8002194:	6213      	str	r3, [r2, #32]
 8002196:	4b67      	ldr	r3, [pc, #412]	@ (8002334 <HAL_RCC_OscConfig+0x4c4>)
 8002198:	6a1b      	ldr	r3, [r3, #32]
 800219a:	4a66      	ldr	r2, [pc, #408]	@ (8002334 <HAL_RCC_OscConfig+0x4c4>)
 800219c:	f023 0304 	bic.w	r3, r3, #4
 80021a0:	6213      	str	r3, [r2, #32]
 80021a2:	e01c      	b.n	80021de <HAL_RCC_OscConfig+0x36e>
 80021a4:	687b      	ldr	r3, [r7, #4]
 80021a6:	68db      	ldr	r3, [r3, #12]
 80021a8:	2b05      	cmp	r3, #5
 80021aa:	d10c      	bne.n	80021c6 <HAL_RCC_OscConfig+0x356>
 80021ac:	4b61      	ldr	r3, [pc, #388]	@ (8002334 <HAL_RCC_OscConfig+0x4c4>)
 80021ae:	6a1b      	ldr	r3, [r3, #32]
 80021b0:	4a60      	ldr	r2, [pc, #384]	@ (8002334 <HAL_RCC_OscConfig+0x4c4>)
 80021b2:	f043 0304 	orr.w	r3, r3, #4
 80021b6:	6213      	str	r3, [r2, #32]
 80021b8:	4b5e      	ldr	r3, [pc, #376]	@ (8002334 <HAL_RCC_OscConfig+0x4c4>)
 80021ba:	6a1b      	ldr	r3, [r3, #32]
 80021bc:	4a5d      	ldr	r2, [pc, #372]	@ (8002334 <HAL_RCC_OscConfig+0x4c4>)
 80021be:	f043 0301 	orr.w	r3, r3, #1
 80021c2:	6213      	str	r3, [r2, #32]
 80021c4:	e00b      	b.n	80021de <HAL_RCC_OscConfig+0x36e>
 80021c6:	4b5b      	ldr	r3, [pc, #364]	@ (8002334 <HAL_RCC_OscConfig+0x4c4>)
 80021c8:	6a1b      	ldr	r3, [r3, #32]
 80021ca:	4a5a      	ldr	r2, [pc, #360]	@ (8002334 <HAL_RCC_OscConfig+0x4c4>)
 80021cc:	f023 0301 	bic.w	r3, r3, #1
 80021d0:	6213      	str	r3, [r2, #32]
 80021d2:	4b58      	ldr	r3, [pc, #352]	@ (8002334 <HAL_RCC_OscConfig+0x4c4>)
 80021d4:	6a1b      	ldr	r3, [r3, #32]
 80021d6:	4a57      	ldr	r2, [pc, #348]	@ (8002334 <HAL_RCC_OscConfig+0x4c4>)
 80021d8:	f023 0304 	bic.w	r3, r3, #4
 80021dc:	6213      	str	r3, [r2, #32]
 80021de:	687b      	ldr	r3, [r7, #4]
 80021e0:	68db      	ldr	r3, [r3, #12]
 80021e2:	2b00      	cmp	r3, #0
 80021e4:	d015      	beq.n	8002212 <HAL_RCC_OscConfig+0x3a2>
 80021e6:	f7ff fb39 	bl	800185c <HAL_GetTick>
 80021ea:	6138      	str	r0, [r7, #16]
 80021ec:	e00a      	b.n	8002204 <HAL_RCC_OscConfig+0x394>
 80021ee:	f7ff fb35 	bl	800185c <HAL_GetTick>
 80021f2:	4602      	mov	r2, r0
 80021f4:	693b      	ldr	r3, [r7, #16]
 80021f6:	1ad3      	subs	r3, r2, r3
 80021f8:	f241 3288 	movw	r2, #5000	@ 0x1388
 80021fc:	4293      	cmp	r3, r2
 80021fe:	d901      	bls.n	8002204 <HAL_RCC_OscConfig+0x394>
 8002200:	2303      	movs	r3, #3
 8002202:	e0b1      	b.n	8002368 <HAL_RCC_OscConfig+0x4f8>
 8002204:	4b4b      	ldr	r3, [pc, #300]	@ (8002334 <HAL_RCC_OscConfig+0x4c4>)
 8002206:	6a1b      	ldr	r3, [r3, #32]
 8002208:	f003 0302 	and.w	r3, r3, #2
 800220c:	2b00      	cmp	r3, #0
 800220e:	d0ee      	beq.n	80021ee <HAL_RCC_OscConfig+0x37e>
 8002210:	e014      	b.n	800223c <HAL_RCC_OscConfig+0x3cc>
 8002212:	f7ff fb23 	bl	800185c <HAL_GetTick>
 8002216:	6138      	str	r0, [r7, #16]
 8002218:	e00a      	b.n	8002230 <HAL_RCC_OscConfig+0x3c0>
 800221a:	f7ff fb1f 	bl	800185c <HAL_GetTick>
 800221e:	4602      	mov	r2, r0
 8002220:	693b      	ldr	r3, [r7, #16]
 8002222:	1ad3      	subs	r3, r2, r3
 8002224:	f241 3288 	movw	r2, #5000	@ 0x1388
 8002228:	4293      	cmp	r3, r2
 800222a:	d901      	bls.n	8002230 <HAL_RCC_OscConfig+0x3c0>
 800222c:	2303      	movs	r3, #3
 800222e:	e09b      	b.n	8002368 <HAL_RCC_OscConfig+0x4f8>
 8002230:	4b40      	ldr	r3, [pc, #256]	@ (8002334 <HAL_RCC_OscConfig+0x4c4>)
 8002232:	6a1b      	ldr	r3, [r3, #32]
 8002234:	f003 0302 	and.w	r3, r3, #2
 8002238:	2b00      	cmp	r3, #0
 800223a:	d1ee      	bne.n	800221a <HAL_RCC_OscConfig+0x3aa>
 800223c:	7dfb      	ldrb	r3, [r7, #23]
 800223e:	2b01      	cmp	r3, #1
 8002240:	d105      	bne.n	800224e <HAL_RCC_OscConfig+0x3de>
 8002242:	4b3c      	ldr	r3, [pc, #240]	@ (8002334 <HAL_RCC_OscConfig+0x4c4>)
 8002244:	69db      	ldr	r3, [r3, #28]
 8002246:	4a3b      	ldr	r2, [pc, #236]	@ (8002334 <HAL_RCC_OscConfig+0x4c4>)
 8002248:	f023 5380 	bic.w	r3, r3, #268435456	@ 0x10000000
 800224c:	61d3      	str	r3, [r2, #28]
 800224e:	687b      	ldr	r3, [r7, #4]
 8002250:	69db      	ldr	r3, [r3, #28]
 8002252:	2b00      	cmp	r3, #0
 8002254:	f000 8087 	beq.w	8002366 <HAL_RCC_OscConfig+0x4f6>
 8002258:	4b36      	ldr	r3, [pc, #216]	@ (8002334 <HAL_RCC_OscConfig+0x4c4>)
 800225a:	685b      	ldr	r3, [r3, #4]
 800225c:	f003 030c 	and.w	r3, r3, #12
 8002260:	2b08      	cmp	r3, #8
 8002262:	d061      	beq.n	8002328 <HAL_RCC_OscConfig+0x4b8>
 8002264:	687b      	ldr	r3, [r7, #4]
 8002266:	69db      	ldr	r3, [r3, #28]
 8002268:	2b02      	cmp	r3, #2
 800226a:	d146      	bne.n	80022fa <HAL_RCC_OscConfig+0x48a>
 800226c:	4b33      	ldr	r3, [pc, #204]	@ (800233c <HAL_RCC_OscConfig+0x4cc>)
 800226e:	2200      	movs	r2, #0
 8002270:	601a      	str	r2, [r3, #0]
 8002272:	f7ff faf3 	bl	800185c <HAL_GetTick>
 8002276:	6138      	str	r0, [r7, #16]
 8002278:	e008      	b.n	800228c <HAL_RCC_OscConfig+0x41c>
 800227a:	f7ff faef 	bl	800185c <HAL_GetTick>
 800227e:	4602      	mov	r2, r0
 8002280:	693b      	ldr	r3, [r7, #16]
 8002282:	1ad3      	subs	r3, r2, r3
 8002284:	2b02      	cmp	r3, #2
 8002286:	d901      	bls.n	800228c <HAL_RCC_OscConfig+0x41c>
 8002288:	2303      	movs	r3, #3
 800228a:	e06d      	b.n	8002368 <HAL_RCC_OscConfig+0x4f8>
 800228c:	4b29      	ldr	r3, [pc, #164]	@ (8002334 <HAL_RCC_OscConfig+0x4c4>)
 800228e:	681b      	ldr	r3, [r3, #0]
 8002290:	f003 7300 	and.w	r3, r3, #33554432	@ 0x2000000
 8002294:	2b00      	cmp	r3, #0
 8002296:	d1f0      	bne.n	800227a <HAL_RCC_OscConfig+0x40a>
 8002298:	687b      	ldr	r3, [r7, #4]
 800229a:	6a1b      	ldr	r3, [r3, #32]
 800229c:	f5b3 3f80 	cmp.w	r3, #65536	@ 0x10000
 80022a0:	d108      	bne.n	80022b4 <HAL_RCC_OscConfig+0x444>
 80022a2:	4b24      	ldr	r3, [pc, #144]	@ (8002334 <HAL_RCC_OscConfig+0x4c4>)
 80022a4:	685b      	ldr	r3, [r3, #4]
 80022a6:	f423 3200 	bic.w	r2, r3, #131072	@ 0x20000
 80022aa:	687b      	ldr	r3, [r7, #4]
 80022ac:	689b      	ldr	r3, [r3, #8]
 80022ae:	4921      	ldr	r1, [pc, #132]	@ (8002334 <HAL_RCC_OscConfig+0x4c4>)
 80022b0:	4313      	orrs	r3, r2
 80022b2:	604b      	str	r3, [r1, #4]
 80022b4:	4b1f      	ldr	r3, [pc, #124]	@ (8002334 <HAL_RCC_OscConfig+0x4c4>)
 80022b6:	685b      	ldr	r3, [r3, #4]
 80022b8:	f423 1274 	bic.w	r2, r3, #3997696	@ 0x3d0000
 80022bc:	687b      	ldr	r3, [r7, #4]
 80022be:	6a19      	ldr	r1, [r3, #32]
 80022c0:	687b      	ldr	r3, [r7, #4]
 80022c2:	6a5b      	ldr	r3, [r3, #36]	@ 0x24
 80022c4:	430b      	orrs	r3, r1
 80022c6:	491b      	ldr	r1, [pc, #108]	@ (8002334 <HAL_RCC_OscConfig+0x4c4>)
 80022c8:	4313      	orrs	r3, r2
 80022ca:	604b      	str	r3, [r1, #4]
 80022cc:	4b1b      	ldr	r3, [pc, #108]	@ (800233c <HAL_RCC_OscConfig+0x4cc>)
 80022ce:	2201      	movs	r2, #1
 80022d0:	601a      	str	r2, [r3, #0]
 80022d2:	f7ff fac3 	bl	800185c <HAL_GetTick>
 80022d6:	6138      	str	r0, [r7, #16]
 80022d8:	e008      	b.n	80022ec <HAL_RCC_OscConfig+0x47c>
 80022da:	f7ff fabf 	bl	800185c <HAL_GetTick>
 80022de:	4602      	mov	r2, r0
 80022e0:	693b      	ldr	r3, [r7, #16]
 80022e2:	1ad3      	subs	r3, r2, r3
 80022e4:	2b02      	cmp	r3, #2
 80022e6:	d901      	bls.n	80022ec <HAL_RCC_OscConfig+0x47c>
 80022e8:	2303      	movs	r3, #3
 80022ea:	e03d      	b.n	8002368 <HAL_RCC_OscConfig+0x4f8>
 80022ec:	4b11      	ldr	r3, [pc, #68]	@ (8002334 <HAL_RCC_OscConfig+0x4c4>)
 80022ee:	681b      	ldr	r3, [r3, #0]
 80022f0:	f003 7300 	and.w	r3, r3, #33554432	@ 0x2000000
 80022f4:	2b00      	cmp	r3, #0
 80022f6:	d0f0      	beq.n	80022da <HAL_RCC_OscConfig+0x46a>
 80022f8:	e035      	b.n	8002366 <HAL_RCC_OscConfig+0x4f6>
 80022fa:	4b10      	ldr	r3, [pc, #64]	@ (800233c <HAL_RCC_OscConfig+0x4cc>)
 80022fc:	2200      	movs	r2, #0
 80022fe:	601a      	str	r2, [r3, #0]
 8002300:	f7ff faac 	bl	800185c <HAL_GetTick>
 8002304:	6138      	str	r0, [r7, #16]
 8002306:	e008      	b.n	800231a <HAL_RCC_OscConfig+0x4aa>
 8002308:	f7ff faa8 	bl	800185c <HAL_GetTick>
 800230c:	4602      	mov	r2, r0
 800230e:	693b      	ldr	r3, [r7, #16]
 8002310:	1ad3      	subs	r3, r2, r3
 8002312:	2b02      	cmp	r3, #2
 8002314:	d901      	bls.n	800231a <HAL_RCC_OscConfig+0x4aa>
 8002316:	2303      	movs	r3, #3
 8002318:	e026      	b.n	8002368 <HAL_RCC_OscConfig+0x4f8>
 800231a:	4b06      	ldr	r3, [pc, #24]	@ (8002334 <HAL_RCC_OscConfig+0x4c4>)
 800231c:	681b      	ldr	r3, [r3, #0]
 800231e:	f003 7300 	and.w	r3, r3, #33554432	@ 0x2000000
 8002322:	2b00      	cmp	r3, #0
 8002324:	d1f0      	bne.n	8002308 <HAL_RCC_OscConfig+0x498>
 8002326:	e01e      	b.n	8002366 <HAL_RCC_OscConfig+0x4f6>
 8002328:	687b      	ldr	r3, [r7, #4]
 800232a:	69db      	ldr	r3, [r3, #28]
 800232c:	2b01      	cmp	r3, #1
 800232e:	d107      	bne.n	8002340 <HAL_RCC_OscConfig+0x4d0>
 8002330:	2301      	movs	r3, #1
 8002332:	e019      	b.n	8002368 <HAL_RCC_OscConfig+0x4f8>
 8002334:	40021000 	.word	0x40021000
 8002338:	40007000 	.word	0x40007000
 800233c:	42420060 	.word	0x42420060
 8002340:	4b0b      	ldr	r3, [pc, #44]	@ (8002370 <HAL_RCC_OscConfig+0x500>)
 8002342:	685b      	ldr	r3, [r3, #4]
 8002344:	60fb      	str	r3, [r7, #12]
 8002346:	68fb      	ldr	r3, [r7, #12]
 8002348:	f403 3280 	and.w	r2, r3, #65536	@ 0x10000
 800234c:	687b      	ldr	r3, [r7, #4]
 800234e:	6a1b      	ldr	r3, [r3, #32]
 8002350:	429a      	cmp	r2, r3
 8002352:	d106      	bne.n	8002362 <HAL_RCC_OscConfig+0x4f2>
 8002354:	68fb      	ldr	r3, [r7, #12]
 8002356:	f403 1270 	and.w	r2, r3, #3932160	@ 0x3c0000
 800235a:	687b      	ldr	r3, [r7, #4]
 800235c:	6a5b      	ldr	r3, [r3, #36]	@ 0x24
 800235e:	429a      	cmp	r2, r3
 8002360:	d001      	beq.n	8002366 <HAL_RCC_OscConfig+0x4f6>
 8002362:	2301      	movs	r3, #1
 8002364:	e000      	b.n	8002368 <HAL_RCC_OscConfig+0x4f8>
 8002366:	2300      	movs	r3, #0
 8002368:	4618      	mov	r0, r3
 800236a:	3718      	adds	r7, #24
 800236c:	46bd      	mov	sp, r7
 800236e:	bd80      	pop	{r7, pc}
 8002370:	40021000 	.word	0x40021000

08002374 <HAL_RCC_ClockConfig>:
 8002374:	b580      	push	{r7, lr}
 8002376:	b084      	sub	sp, #16
 8002378:	af00      	add	r7, sp, #0
 800237a:	6078      	str	r0, [r7, #4]
 800237c:	6039      	str	r1, [r7, #0]
 800237e:	687b      	ldr	r3, [r7, #4]
 8002380:	2b00      	cmp	r3, #0
 8002382:	d101      	bne.n	8002388 <HAL_RCC_ClockConfig+0x14>
 8002384:	2301      	movs	r3, #1
 8002386:	e0d0      	b.n	800252a <HAL_RCC_ClockConfig+0x1b6>
 8002388:	4b6a      	ldr	r3, [pc, #424]	@ (8002534 <HAL_RCC_ClockConfig+0x1c0>)
 800238a:	681b      	ldr	r3, [r3, #0]
 800238c:	f003 0307 	and.w	r3, r3, #7
 8002390:	683a      	ldr	r2, [r7, #0]
 8002392:	429a      	cmp	r2, r3
 8002394:	d910      	bls.n	80023b8 <HAL_RCC_ClockConfig+0x44>
 8002396:	4b67      	ldr	r3, [pc, #412]	@ (8002534 <HAL_RCC_ClockConfig+0x1c0>)
 8002398:	681b      	ldr	r3, [r3, #0]
 800239a:	f023 0207 	bic.w	r2, r3, #7
 800239e:	4965      	ldr	r1, [pc, #404]	@ (8002534 <HAL_RCC_ClockConfig+0x1c0>)
 80023a0:	683b      	ldr	r3, [r7, #0]
 80023a2:	4313      	orrs	r3, r2
 80023a4:	600b      	str	r3, [r1, #0]
 80023a6:	4b63      	ldr	r3, [pc, #396]	@ (8002534 <HAL_RCC_ClockConfig+0x1c0>)
 80023a8:	681b      	ldr	r3, [r3, #0]
 80023aa:	f003 0307 	and.w	r3, r3, #7
 80023ae:	683a      	ldr	r2, [r7, #0]
 80023b0:	429a      	cmp	r2, r3
 80023b2:	d001      	beq.n	80023b8 <HAL_RCC_ClockConfig+0x44>
 80023b4:	2301      	movs	r3, #1
 80023b6:	e0b8      	b.n	800252a <HAL_RCC_ClockConfig+0x1b6>
 80023b8:	687b      	ldr	r3, [r7, #4]
 80023ba:	681b      	ldr	r3, [r3, #0]
 80023bc:	f003 0302 	and.w	r3, r3, #2
 80023c0:	2b00      	cmp	r3, #0
 80023c2:	d020      	beq.n	8002406 <HAL_RCC_ClockConfig+0x92>
 80023c4:	687b      	ldr	r3, [r7, #4]
 80023c6:	681b      	ldr	r3, [r3, #0]
 80023c8:	f003 0304 	and.w	r3, r3, #4
 80023cc:	2b00      	cmp	r3, #0
 80023ce:	d005      	beq.n	80023dc <HAL_RCC_ClockConfig+0x68>
 80023d0:	4b59      	ldr	r3, [pc, #356]	@ (8002538 <HAL_RCC_ClockConfig+0x1c4>)
 80023d2:	685b      	ldr	r3, [r3, #4]
 80023d4:	4a58      	ldr	r2, [pc, #352]	@ (8002538 <HAL_RCC_ClockConfig+0x1c4>)
 80023d6:	f443 63e0 	orr.w	r3, r3, #1792	@ 0x700
 80023da:	6053      	str	r3, [r2, #4]
 80023dc:	687b      	ldr	r3, [r7, #4]
 80023de:	681b      	ldr	r3, [r3, #0]
 80023e0:	f003 0308 	and.w	r3, r3, #8
 80023e4:	2b00      	cmp	r3, #0
 80023e6:	d005      	beq.n	80023f4 <HAL_RCC_ClockConfig+0x80>
 80023e8:	4b53      	ldr	r3, [pc, #332]	@ (8002538 <HAL_RCC_ClockConfig+0x1c4>)
 80023ea:	685b      	ldr	r3, [r3, #4]
 80023ec:	4a52      	ldr	r2, [pc, #328]	@ (8002538 <HAL_RCC_ClockConfig+0x1c4>)
 80023ee:	f443 5360 	orr.w	r3, r3, #14336	@ 0x3800
 80023f2:	6053      	str	r3, [r2, #4]
 80023f4:	4b50      	ldr	r3, [pc, #320]	@ (8002538 <HAL_RCC_ClockConfig+0x1c4>)
 80023f6:	685b      	ldr	r3, [r3, #4]
 80023f8:	f023 02f0 	bic.w	r2, r3, #240	@ 0xf0
 80023fc:	687b      	ldr	r3, [r7, #4]
 80023fe:	689b      	ldr	r3, [r3, #8]
 8002400:	494d      	ldr	r1, [pc, #308]	@ (8002538 <HAL_RCC_ClockConfig+0x1c4>)
 8002402:	4313      	orrs	r3, r2
 8002404:	604b      	str	r3, [r1, #4]
 8002406:	687b      	ldr	r3, [r7, #4]
 8002408:	681b      	ldr	r3, [r3, #0]
 800240a:	f003 0301 	and.w	r3, r3, #1
 800240e:	2b00      	cmp	r3, #0
 8002410:	d040      	beq.n	8002494 <HAL_RCC_ClockConfig+0x120>
 8002412:	687b      	ldr	r3, [r7, #4]
 8002414:	685b      	ldr	r3, [r3, #4]
 8002416:	2b01      	cmp	r3, #1
 8002418:	d107      	bne.n	800242a <HAL_RCC_ClockConfig+0xb6>
 800241a:	4b47      	ldr	r3, [pc, #284]	@ (8002538 <HAL_RCC_ClockConfig+0x1c4>)
 800241c:	681b      	ldr	r3, [r3, #0]
 800241e:	f403 3300 	and.w	r3, r3, #131072	@ 0x20000
 8002422:	2b00      	cmp	r3, #0
 8002424:	d115      	bne.n	8002452 <HAL_RCC_ClockConfig+0xde>
 8002426:	2301      	movs	r3, #1
 8002428:	e07f      	b.n	800252a <HAL_RCC_ClockConfig+0x1b6>
 800242a:	687b      	ldr	r3, [r7, #4]
 800242c:	685b      	ldr	r3, [r3, #4]
 800242e:	2b02      	cmp	r3, #2
 8002430:	d107      	bne.n	8002442 <HAL_RCC_ClockConfig+0xce>
 8002432:	4b41      	ldr	r3, [pc, #260]	@ (8002538 <HAL_RCC_ClockConfig+0x1c4>)
 8002434:	681b      	ldr	r3, [r3, #0]
 8002436:	f003 7300 	and.w	r3, r3, #33554432	@ 0x2000000
 800243a:	2b00      	cmp	r3, #0
 800243c:	d109      	bne.n	8002452 <HAL_RCC_ClockConfig+0xde>
 800243e:	2301      	movs	r3, #1
 8002440:	e073      	b.n	800252a <HAL_RCC_ClockConfig+0x1b6>
 8002442:	4b3d      	ldr	r3, [pc, #244]	@ (8002538 <HAL_RCC_ClockConfig+0x1c4>)
 8002444:	681b      	ldr	r3, [r3, #0]
 8002446:	f003 0302 	and.w	r3, r3, #2
 800244a:	2b00      	cmp	r3, #0
 800244c:	d101      	bne.n	8002452 <HAL_RCC_ClockConfig+0xde>
 800244e:	2301      	movs	r3, #1
 8002450:	e06b      	b.n	800252a <HAL_RCC_ClockConfig+0x1b6>
 8002452:	4b39      	ldr	r3, [pc, #228]	@ (8002538 <HAL_RCC_ClockConfig+0x1c4>)
 8002454:	685b      	ldr	r3, [r3, #4]
 8002456:	f023 0203 	bic.w	r2, r3, #3
 800245a:	687b      	ldr	r3, [r7, #4]
 800245c:	685b      	ldr	r3, [r3, #4]
 800245e:	4936      	ldr	r1, [pc, #216]	@ (8002538 <HAL_RCC_ClockConfig+0x1c4>)
 8002460:	4313      	orrs	r3, r2
 8002462:	604b      	str	r3, [r1, #4]
 8002464:	f7ff f9fa 	bl	800185c <HAL_GetTick>
 8002468:	60f8      	str	r0, [r7, #12]
 800246a:	e00a      	b.n	8002482 <HAL_RCC_ClockConfig+0x10e>
 800246c:	f7ff f9f6 	bl	800185c <HAL_GetTick>
 8002470:	4602      	mov	r2, r0
 8002472:	68fb      	ldr	r3, [r7, #12]
 8002474:	1ad3      	subs	r3, r2, r3
 8002476:	f241 3288 	movw	r2, #5000	@ 0x1388
 800247a:	4293      	cmp	r3, r2
 800247c:	d901      	bls.n	8002482 <HAL_RCC_ClockConfig+0x10e>
 800247e:	2303      	movs	r3, #3
 8002480:	e053      	b.n	800252a <HAL_RCC_ClockConfig+0x1b6>
 8002482:	4b2d      	ldr	r3, [pc, #180]	@ (8002538 <HAL_RCC_ClockConfig+0x1c4>)
 8002484:	685b      	ldr	r3, [r3, #4]
 8002486:	f003 020c 	and.w	r2, r3, #12
 800248a:	687b      	ldr	r3, [r7, #4]
 800248c:	685b      	ldr	r3, [r3, #4]
 800248e:	009b      	lsls	r3, r3, #2
 8002490:	429a      	cmp	r2, r3
 8002492:	d1eb      	bne.n	800246c <HAL_RCC_ClockConfig+0xf8>
 8002494:	4b27      	ldr	r3, [pc, #156]	@ (8002534 <HAL_RCC_ClockConfig+0x1c0>)
 8002496:	681b      	ldr	r3, [r3, #0]
 8002498:	f003 0307 	and.w	r3, r3, #7
 800249c:	683a      	ldr	r2, [r7, #0]
 800249e:	429a      	cmp	r2, r3
 80024a0:	d210      	bcs.n	80024c4 <HAL_RCC_ClockConfig+0x150>
 80024a2:	4b24      	ldr	r3, [pc, #144]	@ (8002534 <HAL_RCC_ClockConfig+0x1c0>)
 80024a4:	681b      	ldr	r3, [r3, #0]
 80024a6:	f023 0207 	bic.w	r2, r3, #7
 80024aa:	4922      	ldr	r1, [pc, #136]	@ (8002534 <HAL_RCC_ClockConfig+0x1c0>)
 80024ac:	683b      	ldr	r3, [r7, #0]
 80024ae:	4313      	orrs	r3, r2
 80024b0:	600b      	str	r3, [r1, #0]
 80024b2:	4b20      	ldr	r3, [pc, #128]	@ (8002534 <HAL_RCC_ClockConfig+0x1c0>)
 80024b4:	681b      	ldr	r3, [r3, #0]
 80024b6:	f003 0307 	and.w	r3, r3, #7
 80024ba:	683a      	ldr	r2, [r7, #0]
 80024bc:	429a      	cmp	r2, r3
 80024be:	d001      	beq.n	80024c4 <HAL_RCC_ClockConfig+0x150>
 80024c0:	2301      	movs	r3, #1
 80024c2:	e032      	b.n	800252a <HAL_RCC_ClockConfig+0x1b6>
 80024c4:	687b      	ldr	r3, [r7, #4]
 80024c6:	681b      	ldr	r3, [r3, #0]
 80024c8:	f003 0304 	and.w	r3, r3, #4
 80024cc:	2b00      	cmp	r3, #0
 80024ce:	d008      	beq.n	80024e2 <HAL_RCC_ClockConfig+0x16e>
 80024d0:	4b19      	ldr	r3, [pc, #100]	@ (8002538 <HAL_RCC_ClockConfig+0x1c4>)
 80024d2:	685b      	ldr	r3, [r3, #4]
 80024d4:	f423 62e0 	bic.w	r2, r3, #1792	@ 0x700
 80024d8:	687b      	ldr	r3, [r7, #4]
 80024da:	68db      	ldr	r3, [r3, #12]
 80024dc:	4916      	ldr	r1, [pc, #88]	@ (8002538 <HAL_RCC_ClockConfig+0x1c4>)
 80024de:	4313      	orrs	r3, r2
 80024e0:	604b      	str	r3, [r1, #4]
 80024e2:	687b      	ldr	r3, [r7, #4]
 80024e4:	681b      	ldr	r3, [r3, #0]
 80024e6:	f003 0308 	and.w	r3, r3, #8
 80024ea:	2b00      	cmp	r3, #0
 80024ec:	d009      	beq.n	8002502 <HAL_RCC_ClockConfig+0x18e>
 80024ee:	4b12      	ldr	r3, [pc, #72]	@ (8002538 <HAL_RCC_ClockConfig+0x1c4>)
 80024f0:	685b      	ldr	r3, [r3, #4]
 80024f2:	f423 5260 	bic.w	r2, r3, #14336	@ 0x3800
 80024f6:	687b      	ldr	r3, [r7, #4]
 80024f8:	691b      	ldr	r3, [r3, #16]
 80024fa:	00db      	lsls	r3, r3, #3
 80024fc:	490e      	ldr	r1, [pc, #56]	@ (8002538 <HAL_RCC_ClockConfig+0x1c4>)
 80024fe:	4313      	orrs	r3, r2
 8002500:	604b      	str	r3, [r1, #4]
 8002502:	f000 f821 	bl	8002548 <HAL_RCC_GetSysClockFreq>
 8002506:	4602      	mov	r2, r0
 8002508:	4b0b      	ldr	r3, [pc, #44]	@ (8002538 <HAL_RCC_ClockConfig+0x1c4>)
 800250a:	685b      	ldr	r3, [r3, #4]
 800250c:	091b      	lsrs	r3, r3, #4
 800250e:	f003 030f 	and.w	r3, r3, #15
 8002512:	490a      	ldr	r1, [pc, #40]	@ (800253c <HAL_RCC_ClockConfig+0x1c8>)
 8002514:	5ccb      	ldrb	r3, [r1, r3]
 8002516:	fa22 f303 	lsr.w	r3, r2, r3
 800251a:	4a09      	ldr	r2, [pc, #36]	@ (8002540 <HAL_RCC_ClockConfig+0x1cc>)
 800251c:	6013      	str	r3, [r2, #0]
 800251e:	4b09      	ldr	r3, [pc, #36]	@ (8002544 <HAL_RCC_ClockConfig+0x1d0>)
 8002520:	681b      	ldr	r3, [r3, #0]
 8002522:	4618      	mov	r0, r3
 8002524:	f7ff f958 	bl	80017d8 <HAL_InitTick>
 8002528:	2300      	movs	r3, #0
 800252a:	4618      	mov	r0, r3
 800252c:	3710      	adds	r7, #16
 800252e:	46bd      	mov	sp, r7
 8002530:	bd80      	pop	{r7, pc}
 8002532:	bf00      	nop
 8002534:	40022000 	.word	0x40022000
 8002538:	40021000 	.word	0x40021000
 800253c:	0800633c 	.word	0x0800633c
 8002540:	20000004 	.word	0x20000004
 8002544:	20000008 	.word	0x20000008

08002548 <HAL_RCC_GetSysClockFreq>:
 8002548:	b480      	push	{r7}
 800254a:	b087      	sub	sp, #28
 800254c:	af00      	add	r7, sp, #0
 800254e:	2300      	movs	r3, #0
 8002550:	60fb      	str	r3, [r7, #12]
 8002552:	2300      	movs	r3, #0
 8002554:	60bb      	str	r3, [r7, #8]
 8002556:	2300      	movs	r3, #0
 8002558:	617b      	str	r3, [r7, #20]
 800255a:	2300      	movs	r3, #0
 800255c:	607b      	str	r3, [r7, #4]
 800255e:	2300      	movs	r3, #0
 8002560:	613b      	str	r3, [r7, #16]
 8002562:	4b1e      	ldr	r3, [pc, #120]	@ (80025dc <HAL_RCC_GetSysClockFreq+0x94>)
 8002564:	685b      	ldr	r3, [r3, #4]
 8002566:	60fb      	str	r3, [r7, #12]
 8002568:	68fb      	ldr	r3, [r7, #12]
 800256a:	f003 030c 	and.w	r3, r3, #12
 800256e:	2b04      	cmp	r3, #4
 8002570:	d002      	beq.n	8002578 <HAL_RCC_GetSysClockFreq+0x30>
 8002572:	2b08      	cmp	r3, #8
 8002574:	d003      	beq.n	800257e <HAL_RCC_GetSysClockFreq+0x36>
 8002576:	e027      	b.n	80025c8 <HAL_RCC_GetSysClockFreq+0x80>
 8002578:	4b19      	ldr	r3, [pc, #100]	@ (80025e0 <HAL_RCC_GetSysClockFreq+0x98>)
 800257a:	613b      	str	r3, [r7, #16]
 800257c:	e027      	b.n	80025ce <HAL_RCC_GetSysClockFreq+0x86>
 800257e:	68fb      	ldr	r3, [r7, #12]
 8002580:	0c9b      	lsrs	r3, r3, #18
 8002582:	f003 030f 	and.w	r3, r3, #15
 8002586:	4a17      	ldr	r2, [pc, #92]	@ (80025e4 <HAL_RCC_GetSysClockFreq+0x9c>)
 8002588:	5cd3      	ldrb	r3, [r2, r3]
 800258a:	607b      	str	r3, [r7, #4]
 800258c:	68fb      	ldr	r3, [r7, #12]
 800258e:	f403 3380 	and.w	r3, r3, #65536	@ 0x10000
 8002592:	2b00      	cmp	r3, #0
 8002594:	d010      	beq.n	80025b8 <HAL_RCC_GetSysClockFreq+0x70>
 8002596:	4b11      	ldr	r3, [pc, #68]	@ (80025dc <HAL_RCC_GetSysClockFreq+0x94>)
 8002598:	685b      	ldr	r3, [r3, #4]
 800259a:	0c5b      	lsrs	r3, r3, #17
 800259c:	f003 0301 	and.w	r3, r3, #1
 80025a0:	4a11      	ldr	r2, [pc, #68]	@ (80025e8 <HAL_RCC_GetSysClockFreq+0xa0>)
 80025a2:	5cd3      	ldrb	r3, [r2, r3]
 80025a4:	60bb      	str	r3, [r7, #8]
 80025a6:	687b      	ldr	r3, [r7, #4]
 80025a8:	4a0d      	ldr	r2, [pc, #52]	@ (80025e0 <HAL_RCC_GetSysClockFreq+0x98>)
 80025aa:	fb03 f202 	mul.w	r2, r3, r2
 80025ae:	68bb      	ldr	r3, [r7, #8]
 80025b0:	fbb2 f3f3 	udiv	r3, r2, r3
 80025b4:	617b      	str	r3, [r7, #20]
 80025b6:	e004      	b.n	80025c2 <HAL_RCC_GetSysClockFreq+0x7a>
 80025b8:	687b      	ldr	r3, [r7, #4]
 80025ba:	4a0c      	ldr	r2, [pc, #48]	@ (80025ec <HAL_RCC_GetSysClockFreq+0xa4>)
 80025bc:	fb02 f303 	mul.w	r3, r2, r3
 80025c0:	617b      	str	r3, [r7, #20]
 80025c2:	697b      	ldr	r3, [r7, #20]
 80025c4:	613b      	str	r3, [r7, #16]
 80025c6:	e002      	b.n	80025ce <HAL_RCC_GetSysClockFreq+0x86>
 80025c8:	4b05      	ldr	r3, [pc, #20]	@ (80025e0 <HAL_RCC_GetSysClockFreq+0x98>)
 80025ca:	613b      	str	r3, [r7, #16]
 80025cc:	bf00      	nop
 80025ce:	693b      	ldr	r3, [r7, #16]
 80025d0:	4618      	mov	r0, r3
 80025d2:	371c      	adds	r7, #28
 80025d4:	46bd      	mov	sp, r7
 80025d6:	bc80      	pop	{r7}
 80025d8:	4770      	bx	lr
 80025da:	bf00      	nop
 80025dc:	40021000 	.word	0x40021000
 80025e0:	007a1200 	.word	0x007a1200
 80025e4:	08006354 	.word	0x08006354
 80025e8:	08006364 	.word	0x08006364
 80025ec:	003d0900 	.word	0x003d0900

080025f0 <HAL_RCC_GetHCLKFreq>:
 80025f0:	b480      	push	{r7}
 80025f2:	af00      	add	r7, sp, #0
 80025f4:	4b02      	ldr	r3, [pc, #8]	@ (8002600 <HAL_RCC_GetHCLKFreq+0x10>)
 80025f6:	681b      	ldr	r3, [r3, #0]
 80025f8:	4618      	mov	r0, r3
 80025fa:	46bd      	mov	sp, r7
 80025fc:	bc80      	pop	{r7}
 80025fe:	4770      	bx	lr
 8002600:	20000004 	.word	0x20000004

08002604 <HAL_RCC_GetPCLK1Freq>:
 8002604:	b580      	push	{r7, lr}
 8002606:	af00      	add	r7, sp, #0
 8002608:	f7ff fff2 	bl	80025f0 <HAL_RCC_GetHCLKFreq>
 800260c:	4602      	mov	r2, r0
 800260e:	4b05      	ldr	r3, [pc, #20]	@ (8002624 <HAL_RCC_GetPCLK1Freq+0x20>)
 8002610:	685b      	ldr	r3, [r3, #4]
 8002612:	0a1b      	lsrs	r3, r3, #8
 8002614:	f003 0307 	and.w	r3, r3, #7
 8002618:	4903      	ldr	r1, [pc, #12]	@ (8002628 <HAL_RCC_GetPCLK1Freq+0x24>)
 800261a:	5ccb      	ldrb	r3, [r1, r3]
 800261c:	fa22 f303 	lsr.w	r3, r2, r3
 8002620:	4618      	mov	r0, r3
 8002622:	bd80      	pop	{r7, pc}
 8002624:	40021000 	.word	0x40021000
 8002628:	0800634c 	.word	0x0800634c

0800262c <HAL_RCC_GetPCLK2Freq>:
 800262c:	b580      	push	{r7, lr}
 800262e:	af00      	add	r7, sp, #0
 8002630:	f7ff ffde 	bl	80025f0 <HAL_RCC_GetHCLKFreq>
 8002634:	4602      	mov	r2, r0
 8002636:	4b05      	ldr	r3, [pc, #20]	@ (800264c <HAL_RCC_GetPCLK2Freq+0x20>)
 8002638:	685b      	ldr	r3, [r3, #4]
 800263a:	0adb      	lsrs	r3, r3, #11
 800263c:	f003 0307 	and.w	r3, r3, #7
 8002640:	4903      	ldr	r1, [pc, #12]	@ (8002650 <HAL_RCC_GetPCLK2Freq+0x24>)
 8002642:	5ccb      	ldrb	r3, [r1, r3]
 8002644:	fa22 f303 	lsr.w	r3, r2, r3
 8002648:	4618      	mov	r0, r3
 800264a:	bd80      	pop	{r7, pc}
 800264c:	40021000 	.word	0x40021000
 8002650:	0800634c 	.word	0x0800634c

08002654 <RCC_Delay>:
 8002654:	b480      	push	{r7}
 8002656:	b085      	sub	sp, #20
 8002658:	af00      	add	r7, sp, #0
 800265a:	6078      	str	r0, [r7, #4]
 800265c:	4b0a      	ldr	r3, [pc, #40]	@ (8002688 <RCC_Delay+0x34>)
 800265e:	681b      	ldr	r3, [r3, #0]
 8002660:	4a0a      	ldr	r2, [pc, #40]	@ (800268c <RCC_Delay+0x38>)
 8002662:	fba2 2303 	umull	r2, r3, r2, r3
 8002666:	0a5b      	lsrs	r3, r3, #9
 8002668:	687a      	ldr	r2, [r7, #4]
 800266a:	fb02 f303 	mul.w	r3, r2, r3
 800266e:	60fb      	str	r3, [r7, #12]
 8002670:	bf00      	nop
 8002672:	68fb      	ldr	r3, [r7, #12]
 8002674:	1e5a      	subs	r2, r3, #1
 8002676:	60fa      	str	r2, [r7, #12]
 8002678:	2b00      	cmp	r3, #0
 800267a:	d1f9      	bne.n	8002670 <RCC_Delay+0x1c>
 800267c:	bf00      	nop
 800267e:	bf00      	nop
 8002680:	3714      	adds	r7, #20
 8002682:	46bd      	mov	sp, r7
 8002684:	bc80      	pop	{r7}
 8002686:	4770      	bx	lr
 8002688:	20000004 	.word	0x20000004
 800268c:	10624dd3 	.word	0x10624dd3

08002690 <HAL_TIM_Base_Init>:
 8002690:	b580      	push	{r7, lr}
 8002692:	b082      	sub	sp, #8
 8002694:	af00      	add	r7, sp, #0
 8002696:	6078      	str	r0, [r7, #4]
 8002698:	687b      	ldr	r3, [r7, #4]
 800269a:	2b00      	cmp	r3, #0
 800269c:	d101      	bne.n	80026a2 <HAL_TIM_Base_Init+0x12>
 800269e:	2301      	movs	r3, #1
 80026a0:	e041      	b.n	8002726 <HAL_TIM_Base_Init+0x96>
 80026a2:	687b      	ldr	r3, [r7, #4]
 80026a4:	f893 303d 	ldrb.w	r3, [r3, #61]	@ 0x3d
 80026a8:	b2db      	uxtb	r3, r3
 80026aa:	2b00      	cmp	r3, #0
 80026ac:	d106      	bne.n	80026bc <HAL_TIM_Base_Init+0x2c>
 80026ae:	687b      	ldr	r3, [r7, #4]
 80026b0:	2200      	movs	r2, #0
 80026b2:	f883 203c 	strb.w	r2, [r3, #60]	@ 0x3c
 80026b6:	6878      	ldr	r0, [r7, #4]
 80026b8:	f7fe fea6 	bl	8001408 <HAL_TIM_Base_MspInit>
 80026bc:	687b      	ldr	r3, [r7, #4]
 80026be:	2202      	movs	r2, #2
 80026c0:	f883 203d 	strb.w	r2, [r3, #61]	@ 0x3d
 80026c4:	687b      	ldr	r3, [r7, #4]
 80026c6:	681a      	ldr	r2, [r3, #0]
 80026c8:	687b      	ldr	r3, [r7, #4]
 80026ca:	3304      	adds	r3, #4
 80026cc:	4619      	mov	r1, r3
 80026ce:	4610      	mov	r0, r2
 80026d0:	f000 fc18 	bl	8002f04 <TIM_Base_SetConfig>
 80026d4:	687b      	ldr	r3, [r7, #4]
 80026d6:	2201      	movs	r2, #1
 80026d8:	f883 2046 	strb.w	r2, [r3, #70]	@ 0x46
 80026dc:	687b      	ldr	r3, [r7, #4]
 80026de:	2201      	movs	r2, #1
 80026e0:	f883 203e 	strb.w	r2, [r3, #62]	@ 0x3e
 80026e4:	687b      	ldr	r3, [r7, #4]
 80026e6:	2201      	movs	r2, #1
 80026e8:	f883 203f 	strb.w	r2, [r3, #63]	@ 0x3f
 80026ec:	687b      	ldr	r3, [r7, #4]
 80026ee:	2201      	movs	r2, #1
 80026f0:	f883 2040 	strb.w	r2, [r3, #64]	@ 0x40
 80026f4:	687b      	ldr	r3, [r7, #4]
 80026f6:	2201      	movs	r2, #1
 80026f8:	f883 2041 	strb.w	r2, [r3, #65]	@ 0x41
 80026fc:	687b      	ldr	r3, [r7, #4]
 80026fe:	2201      	movs	r2, #1
 8002700:	f883 2042 	strb.w	r2, [r3, #66]	@ 0x42
 8002704:	687b      	ldr	r3, [r7, #4]
 8002706:	2201      	movs	r2, #1
 8002708:	f883 2043 	strb.w	r2, [r3, #67]	@ 0x43
 800270c:	687b      	ldr	r3, [r7, #4]
 800270e:	2201      	movs	r2, #1
 8002710:	f883 2044 	strb.w	r2, [r3, #68]	@ 0x44
 8002714:	687b      	ldr	r3, [r7, #4]
 8002716:	2201      	movs	r2, #1
 8002718:	f883 2045 	strb.w	r2, [r3, #69]	@ 0x45
 800271c:	687b      	ldr	r3, [r7, #4]
 800271e:	2201      	movs	r2, #1
 8002720:	f883 203d 	strb.w	r2, [r3, #61]	@ 0x3d
 8002724:	2300      	movs	r3, #0
 8002726:	4618      	mov	r0, r3
 8002728:	3708      	adds	r7, #8
 800272a:	46bd      	mov	sp, r7
 800272c:	bd80      	pop	{r7, pc}
	...

08002730 <HAL_TIM_Base_Start>:
 8002730:	b480      	push	{r7}
 8002732:	b085      	sub	sp, #20
 8002734:	af00      	add	r7, sp, #0
 8002736:	6078      	str	r0, [r7, #4]
 8002738:	687b      	ldr	r3, [r7, #4]
 800273a:	f893 303d 	ldrb.w	r3, [r3, #61]	@ 0x3d
 800273e:	b2db      	uxtb	r3, r3
 8002740:	2b01      	cmp	r3, #1
 8002742:	d001      	beq.n	8002748 <HAL_TIM_Base_Start+0x18>
 8002744:	2301      	movs	r3, #1
 8002746:	e032      	b.n	80027ae <HAL_TIM_Base_Start+0x7e>
 8002748:	687b      	ldr	r3, [r7, #4]
 800274a:	2202      	movs	r2, #2
 800274c:	f883 203d 	strb.w	r2, [r3, #61]	@ 0x3d
 8002750:	687b      	ldr	r3, [r7, #4]
 8002752:	681b      	ldr	r3, [r3, #0]
 8002754:	4a18      	ldr	r2, [pc, #96]	@ (80027b8 <HAL_TIM_Base_Start+0x88>)
 8002756:	4293      	cmp	r3, r2
 8002758:	d00e      	beq.n	8002778 <HAL_TIM_Base_Start+0x48>
 800275a:	687b      	ldr	r3, [r7, #4]
 800275c:	681b      	ldr	r3, [r3, #0]
 800275e:	f1b3 4f80 	cmp.w	r3, #1073741824	@ 0x40000000
 8002762:	d009      	beq.n	8002778 <HAL_TIM_Base_Start+0x48>
 8002764:	687b      	ldr	r3, [r7, #4]
 8002766:	681b      	ldr	r3, [r3, #0]
 8002768:	4a14      	ldr	r2, [pc, #80]	@ (80027bc <HAL_TIM_Base_Start+0x8c>)
 800276a:	4293      	cmp	r3, r2
 800276c:	d004      	beq.n	8002778 <HAL_TIM_Base_Start+0x48>
 800276e:	687b      	ldr	r3, [r7, #4]
 8002770:	681b      	ldr	r3, [r3, #0]
 8002772:	4a13      	ldr	r2, [pc, #76]	@ (80027c0 <HAL_TIM_Base_Start+0x90>)
 8002774:	4293      	cmp	r3, r2
 8002776:	d111      	bne.n	800279c <HAL_TIM_Base_Start+0x6c>
 8002778:	687b      	ldr	r3, [r7, #4]
 800277a:	681b      	ldr	r3, [r3, #0]
 800277c:	689b      	ldr	r3, [r3, #8]
 800277e:	f003 0307 	and.w	r3, r3, #7
 8002782:	60fb      	str	r3, [r7, #12]
 8002784:	68fb      	ldr	r3, [r7, #12]
 8002786:	2b06      	cmp	r3, #6
 8002788:	d010      	beq.n	80027ac <HAL_TIM_Base_Start+0x7c>
 800278a:	687b      	ldr	r3, [r7, #4]
 800278c:	681b      	ldr	r3, [r3, #0]
 800278e:	681a      	ldr	r2, [r3, #0]
 8002790:	687b      	ldr	r3, [r7, #4]
 8002792:	681b      	ldr	r3, [r3, #0]
 8002794:	f042 0201 	orr.w	r2, r2, #1
 8002798:	601a      	str	r2, [r3, #0]
 800279a:	e007      	b.n	80027ac <HAL_TIM_Base_Start+0x7c>
 800279c:	687b      	ldr	r3, [r7, #4]
 800279e:	681b      	ldr	r3, [r3, #0]
 80027a0:	681a      	ldr	r2, [r3, #0]
 80027a2:	687b      	ldr	r3, [r7, #4]
 80027a4:	681b      	ldr	r3, [r3, #0]
 80027a6:	f042 0201 	orr.w	r2, r2, #1
 80027aa:	601a      	str	r2, [r3, #0]
 80027ac:	2300      	movs	r3, #0
 80027ae:	4618      	mov	r0, r3
 80027b0:	3714      	adds	r7, #20
 80027b2:	46bd      	mov	sp, r7
 80027b4:	bc80      	pop	{r7}
 80027b6:	4770      	bx	lr
 80027b8:	40012c00 	.word	0x40012c00
 80027bc:	40000400 	.word	0x40000400
 80027c0:	40000800 	.word	0x40000800

080027c4 <HAL_TIM_PWM_Init>:
 80027c4:	b580      	push	{r7, lr}
 80027c6:	b082      	sub	sp, #8
 80027c8:	af00      	add	r7, sp, #0
 80027ca:	6078      	str	r0, [r7, #4]
 80027cc:	687b      	ldr	r3, [r7, #4]
 80027ce:	2b00      	cmp	r3, #0
 80027d0:	d101      	bne.n	80027d6 <HAL_TIM_PWM_Init+0x12>
 80027d2:	2301      	movs	r3, #1
 80027d4:	e041      	b.n	800285a <HAL_TIM_PWM_Init+0x96>
 80027d6:	687b      	ldr	r3, [r7, #4]
 80027d8:	f893 303d 	ldrb.w	r3, [r3, #61]	@ 0x3d
 80027dc:	b2db      	uxtb	r3, r3
 80027de:	2b00      	cmp	r3, #0
 80027e0:	d106      	bne.n	80027f0 <HAL_TIM_PWM_Init+0x2c>
 80027e2:	687b      	ldr	r3, [r7, #4]
 80027e4:	2200      	movs	r2, #0
 80027e6:	f883 203c 	strb.w	r2, [r3, #60]	@ 0x3c
 80027ea:	6878      	ldr	r0, [r7, #4]
 80027ec:	f000 f839 	bl	8002862 <HAL_TIM_PWM_MspInit>
 80027f0:	687b      	ldr	r3, [r7, #4]
 80027f2:	2202      	movs	r2, #2
 80027f4:	f883 203d 	strb.w	r2, [r3, #61]	@ 0x3d
 80027f8:	687b      	ldr	r3, [r7, #4]
 80027fa:	681a      	ldr	r2, [r3, #0]
 80027fc:	687b      	ldr	r3, [r7, #4]
 80027fe:	3304      	adds	r3, #4
 8002800:	4619      	mov	r1, r3
 8002802:	4610      	mov	r0, r2
 8002804:	f000 fb7e 	bl	8002f04 <TIM_Base_SetConfig>
 8002808:	687b      	ldr	r3, [r7, #4]
 800280a:	2201      	movs	r2, #1
 800280c:	f883 2046 	strb.w	r2, [r3, #70]	@ 0x46
 8002810:	687b      	ldr	r3, [r7, #4]
 8002812:	2201      	movs	r2, #1
 8002814:	f883 203e 	strb.w	r2, [r3, #62]	@ 0x3e
 8002818:	687b      	ldr	r3, [r7, #4]
 800281a:	2201      	movs	r2, #1
 800281c:	f883 203f 	strb.w	r2, [r3, #63]	@ 0x3f
 8002820:	687b      	ldr	r3, [r7, #4]
 8002822:	2201      	movs	r2, #1
 8002824:	f883 2040 	strb.w	r2, [r3, #64]	@ 0x40
 8002828:	687b      	ldr	r3, [r7, #4]
 800282a:	2201      	movs	r2, #1
 800282c:	f883 2041 	strb.w	r2, [r3, #65]	@ 0x41
 8002830:	687b      	ldr	r3, [r7, #4]
 8002832:	2201      	movs	r2, #1
 8002834:	f883 2042 	strb.w	r2, [r3, #66]	@ 0x42
 8002838:	687b      	ldr	r3, [r7, #4]
 800283a:	2201      	movs	r2, #1
 800283c:	f883 2043 	strb.w	r2, [r3, #67]	@ 0x43
 8002840:	687b      	ldr	r3, [r7, #4]
 8002842:	2201      	movs	r2, #1
 8002844:	f883 2044 	strb.w	r2, [r3, #68]	@ 0x44
 8002848:	687b      	ldr	r3, [r7, #4]
 800284a:	2201      	movs	r2, #1
 800284c:	f883 2045 	strb.w	r2, [r3, #69]	@ 0x45
 8002850:	687b      	ldr	r3, [r7, #4]
 8002852:	2201      	movs	r2, #1
 8002854:	f883 203d 	strb.w	r2, [r3, #61]	@ 0x3d
 8002858:	2300      	movs	r3, #0
 800285a:	4618      	mov	r0, r3
 800285c:	3708      	adds	r7, #8
 800285e:	46bd      	mov	sp, r7
 8002860:	bd80      	pop	{r7, pc}

08002862 <HAL_TIM_PWM_MspInit>:
 8002862:	b480      	push	{r7}
 8002864:	b083      	sub	sp, #12
 8002866:	af00      	add	r7, sp, #0
 8002868:	6078      	str	r0, [r7, #4]
 800286a:	bf00      	nop
 800286c:	370c      	adds	r7, #12
 800286e:	46bd      	mov	sp, r7
 8002870:	bc80      	pop	{r7}
 8002872:	4770      	bx	lr

08002874 <HAL_TIM_PWM_Start>:
 8002874:	b580      	push	{r7, lr}
 8002876:	b084      	sub	sp, #16
 8002878:	af00      	add	r7, sp, #0
 800287a:	6078      	str	r0, [r7, #4]
 800287c:	6039      	str	r1, [r7, #0]
 800287e:	683b      	ldr	r3, [r7, #0]
 8002880:	2b00      	cmp	r3, #0
 8002882:	d109      	bne.n	8002898 <HAL_TIM_PWM_Start+0x24>
 8002884:	687b      	ldr	r3, [r7, #4]
 8002886:	f893 303e 	ldrb.w	r3, [r3, #62]	@ 0x3e
 800288a:	b2db      	uxtb	r3, r3
 800288c:	2b01      	cmp	r3, #1
 800288e:	bf14      	ite	ne
 8002890:	2301      	movne	r3, #1
 8002892:	2300      	moveq	r3, #0
 8002894:	b2db      	uxtb	r3, r3
 8002896:	e022      	b.n	80028de <HAL_TIM_PWM_Start+0x6a>
 8002898:	683b      	ldr	r3, [r7, #0]
 800289a:	2b04      	cmp	r3, #4
 800289c:	d109      	bne.n	80028b2 <HAL_TIM_PWM_Start+0x3e>
 800289e:	687b      	ldr	r3, [r7, #4]
 80028a0:	f893 303f 	ldrb.w	r3, [r3, #63]	@ 0x3f
 80028a4:	b2db      	uxtb	r3, r3
 80028a6:	2b01      	cmp	r3, #1
 80028a8:	bf14      	ite	ne
 80028aa:	2301      	movne	r3, #1
 80028ac:	2300      	moveq	r3, #0
 80028ae:	b2db      	uxtb	r3, r3
 80028b0:	e015      	b.n	80028de <HAL_TIM_PWM_Start+0x6a>
 80028b2:	683b      	ldr	r3, [r7, #0]
 80028b4:	2b08      	cmp	r3, #8
 80028b6:	d109      	bne.n	80028cc <HAL_TIM_PWM_Start+0x58>
 80028b8:	687b      	ldr	r3, [r7, #4]
 80028ba:	f893 3040 	ldrb.w	r3, [r3, #64]	@ 0x40
 80028be:	b2db      	uxtb	r3, r3
 80028c0:	2b01      	cmp	r3, #1
 80028c2:	bf14      	ite	ne
 80028c4:	2301      	movne	r3, #1
 80028c6:	2300      	moveq	r3, #0
 80028c8:	b2db      	uxtb	r3, r3
 80028ca:	e008      	b.n	80028de <HAL_TIM_PWM_Start+0x6a>
 80028cc:	687b      	ldr	r3, [r7, #4]
 80028ce:	f893 3041 	ldrb.w	r3, [r3, #65]	@ 0x41
 80028d2:	b2db      	uxtb	r3, r3
 80028d4:	2b01      	cmp	r3, #1
 80028d6:	bf14      	ite	ne
 80028d8:	2301      	movne	r3, #1
 80028da:	2300      	moveq	r3, #0
 80028dc:	b2db      	uxtb	r3, r3
 80028de:	2b00      	cmp	r3, #0
 80028e0:	d001      	beq.n	80028e6 <HAL_TIM_PWM_Start+0x72>
 80028e2:	2301      	movs	r3, #1
 80028e4:	e05e      	b.n	80029a4 <HAL_TIM_PWM_Start+0x130>
 80028e6:	683b      	ldr	r3, [r7, #0]
 80028e8:	2b00      	cmp	r3, #0
 80028ea:	d104      	bne.n	80028f6 <HAL_TIM_PWM_Start+0x82>
 80028ec:	687b      	ldr	r3, [r7, #4]
 80028ee:	2202      	movs	r2, #2
 80028f0:	f883 203e 	strb.w	r2, [r3, #62]	@ 0x3e
 80028f4:	e013      	b.n	800291e <HAL_TIM_PWM_Start+0xaa>
 80028f6:	683b      	ldr	r3, [r7, #0]
 80028f8:	2b04      	cmp	r3, #4
 80028fa:	d104      	bne.n	8002906 <HAL_TIM_PWM_Start+0x92>
 80028fc:	687b      	ldr	r3, [r7, #4]
 80028fe:	2202      	movs	r2, #2
 8002900:	f883 203f 	strb.w	r2, [r3, #63]	@ 0x3f
 8002904:	e00b      	b.n	800291e <HAL_TIM_PWM_Start+0xaa>
 8002906:	683b      	ldr	r3, [r7, #0]
 8002908:	2b08      	cmp	r3, #8
 800290a:	d104      	bne.n	8002916 <HAL_TIM_PWM_Start+0xa2>
 800290c:	687b      	ldr	r3, [r7, #4]
 800290e:	2202      	movs	r2, #2
 8002910:	f883 2040 	strb.w	r2, [r3, #64]	@ 0x40
 8002914:	e003      	b.n	800291e <HAL_TIM_PWM_Start+0xaa>
 8002916:	687b      	ldr	r3, [r7, #4]
 8002918:	2202      	movs	r2, #2
 800291a:	f883 2041 	strb.w	r2, [r3, #65]	@ 0x41
 800291e:	687b      	ldr	r3, [r7, #4]
 8002920:	681b      	ldr	r3, [r3, #0]
 8002922:	2201      	movs	r2, #1
 8002924:	6839      	ldr	r1, [r7, #0]
 8002926:	4618      	mov	r0, r3
 8002928:	f000 fd78 	bl	800341c <TIM_CCxChannelCmd>
 800292c:	687b      	ldr	r3, [r7, #4]
 800292e:	681b      	ldr	r3, [r3, #0]
 8002930:	4a1e      	ldr	r2, [pc, #120]	@ (80029ac <HAL_TIM_PWM_Start+0x138>)
 8002932:	4293      	cmp	r3, r2
 8002934:	d107      	bne.n	8002946 <HAL_TIM_PWM_Start+0xd2>
 8002936:	687b      	ldr	r3, [r7, #4]
 8002938:	681b      	ldr	r3, [r3, #0]
 800293a:	6c5a      	ldr	r2, [r3, #68]	@ 0x44
 800293c:	687b      	ldr	r3, [r7, #4]
 800293e:	681b      	ldr	r3, [r3, #0]
 8002940:	f442 4200 	orr.w	r2, r2, #32768	@ 0x8000
 8002944:	645a      	str	r2, [r3, #68]	@ 0x44
 8002946:	687b      	ldr	r3, [r7, #4]
 8002948:	681b      	ldr	r3, [r3, #0]
 800294a:	4a18      	ldr	r2, [pc, #96]	@ (80029ac <HAL_TIM_PWM_Start+0x138>)
 800294c:	4293      	cmp	r3, r2
 800294e:	d00e      	beq.n	800296e <HAL_TIM_PWM_Start+0xfa>
 8002950:	687b      	ldr	r3, [r7, #4]
 8002952:	681b      	ldr	r3, [r3, #0]
 8002954:	f1b3 4f80 	cmp.w	r3, #1073741824	@ 0x40000000
 8002958:	d009      	beq.n	800296e <HAL_TIM_PWM_Start+0xfa>
 800295a:	687b      	ldr	r3, [r7, #4]
 800295c:	681b      	ldr	r3, [r3, #0]
 800295e:	4a14      	ldr	r2, [pc, #80]	@ (80029b0 <HAL_TIM_PWM_Start+0x13c>)
 8002960:	4293      	cmp	r3, r2
 8002962:	d004      	beq.n	800296e <HAL_TIM_PWM_Start+0xfa>
 8002964:	687b      	ldr	r3, [r7, #4]
 8002966:	681b      	ldr	r3, [r3, #0]
 8002968:	4a12      	ldr	r2, [pc, #72]	@ (80029b4 <HAL_TIM_PWM_Start+0x140>)
 800296a:	4293      	cmp	r3, r2
 800296c:	d111      	bne.n	8002992 <HAL_TIM_PWM_Start+0x11e>
 800296e:	687b      	ldr	r3, [r7, #4]
 8002970:	681b      	ldr	r3, [r3, #0]
 8002972:	689b      	ldr	r3, [r3, #8]
 8002974:	f003 0307 	and.w	r3, r3, #7
 8002978:	60fb      	str	r3, [r7, #12]
 800297a:	68fb      	ldr	r3, [r7, #12]
 800297c:	2b06      	cmp	r3, #6
 800297e:	d010      	beq.n	80029a2 <HAL_TIM_PWM_Start+0x12e>
 8002980:	687b      	ldr	r3, [r7, #4]
 8002982:	681b      	ldr	r3, [r3, #0]
 8002984:	681a      	ldr	r2, [r3, #0]
 8002986:	687b      	ldr	r3, [r7, #4]
 8002988:	681b      	ldr	r3, [r3, #0]
 800298a:	f042 0201 	orr.w	r2, r2, #1
 800298e:	601a      	str	r2, [r3, #0]
 8002990:	e007      	b.n	80029a2 <HAL_TIM_PWM_Start+0x12e>
 8002992:	687b      	ldr	r3, [r7, #4]
 8002994:	681b      	ldr	r3, [r3, #0]
 8002996:	681a      	ldr	r2, [r3, #0]
 8002998:	687b      	ldr	r3, [r7, #4]
 800299a:	681b      	ldr	r3, [r3, #0]
 800299c:	f042 0201 	orr.w	r2, r2, #1
 80029a0:	601a      	str	r2, [r3, #0]
 80029a2:	2300      	movs	r3, #0
 80029a4:	4618      	mov	r0, r3
 80029a6:	3710      	adds	r7, #16
 80029a8:	46bd      	mov	sp, r7
 80029aa:	bd80      	pop	{r7, pc}
 80029ac:	40012c00 	.word	0x40012c00
 80029b0:	40000400 	.word	0x40000400
 80029b4:	40000800 	.word	0x40000800

080029b8 <HAL_TIM_IRQHandler>:
 80029b8:	b580      	push	{r7, lr}
 80029ba:	b084      	sub	sp, #16
 80029bc:	af00      	add	r7, sp, #0
 80029be:	6078      	str	r0, [r7, #4]
 80029c0:	687b      	ldr	r3, [r7, #4]
 80029c2:	681b      	ldr	r3, [r3, #0]
 80029c4:	68db      	ldr	r3, [r3, #12]
 80029c6:	60fb      	str	r3, [r7, #12]
 80029c8:	687b      	ldr	r3, [r7, #4]
 80029ca:	681b      	ldr	r3, [r3, #0]
 80029cc:	691b      	ldr	r3, [r3, #16]
 80029ce:	60bb      	str	r3, [r7, #8]
 80029d0:	68bb      	ldr	r3, [r7, #8]
 80029d2:	f003 0302 	and.w	r3, r3, #2
 80029d6:	2b00      	cmp	r3, #0
 80029d8:	d020      	beq.n	8002a1c <HAL_TIM_IRQHandler+0x64>
 80029da:	68fb      	ldr	r3, [r7, #12]
 80029dc:	f003 0302 	and.w	r3, r3, #2
 80029e0:	2b00      	cmp	r3, #0
 80029e2:	d01b      	beq.n	8002a1c <HAL_TIM_IRQHandler+0x64>
 80029e4:	687b      	ldr	r3, [r7, #4]
 80029e6:	681b      	ldr	r3, [r3, #0]
 80029e8:	f06f 0202 	mvn.w	r2, #2
 80029ec:	611a      	str	r2, [r3, #16]
 80029ee:	687b      	ldr	r3, [r7, #4]
 80029f0:	2201      	movs	r2, #1
 80029f2:	771a      	strb	r2, [r3, #28]
 80029f4:	687b      	ldr	r3, [r7, #4]
 80029f6:	681b      	ldr	r3, [r3, #0]
 80029f8:	699b      	ldr	r3, [r3, #24]
 80029fa:	f003 0303 	and.w	r3, r3, #3
 80029fe:	2b00      	cmp	r3, #0
 8002a00:	d003      	beq.n	8002a0a <HAL_TIM_IRQHandler+0x52>
 8002a02:	6878      	ldr	r0, [r7, #4]
 8002a04:	f000 fa63 	bl	8002ece <HAL_TIM_IC_CaptureCallback>
 8002a08:	e005      	b.n	8002a16 <HAL_TIM_IRQHandler+0x5e>
 8002a0a:	6878      	ldr	r0, [r7, #4]
 8002a0c:	f000 fa56 	bl	8002ebc <HAL_TIM_OC_DelayElapsedCallback>
 8002a10:	6878      	ldr	r0, [r7, #4]
 8002a12:	f000 fa65 	bl	8002ee0 <HAL_TIM_PWM_PulseFinishedCallback>
 8002a16:	687b      	ldr	r3, [r7, #4]
 8002a18:	2200      	movs	r2, #0
 8002a1a:	771a      	strb	r2, [r3, #28]
 8002a1c:	68bb      	ldr	r3, [r7, #8]
 8002a1e:	f003 0304 	and.w	r3, r3, #4
 8002a22:	2b00      	cmp	r3, #0
 8002a24:	d020      	beq.n	8002a68 <HAL_TIM_IRQHandler+0xb0>
 8002a26:	68fb      	ldr	r3, [r7, #12]
 8002a28:	f003 0304 	and.w	r3, r3, #4
 8002a2c:	2b00      	cmp	r3, #0
 8002a2e:	d01b      	beq.n	8002a68 <HAL_TIM_IRQHandler+0xb0>
 8002a30:	687b      	ldr	r3, [r7, #4]
 8002a32:	681b      	ldr	r3, [r3, #0]
 8002a34:	f06f 0204 	mvn.w	r2, #4
 8002a38:	611a      	str	r2, [r3, #16]
 8002a3a:	687b      	ldr	r3, [r7, #4]
 8002a3c:	2202      	movs	r2, #2
 8002a3e:	771a      	strb	r2, [r3, #28]
 8002a40:	687b      	ldr	r3, [r7, #4]
 8002a42:	681b      	ldr	r3, [r3, #0]
 8002a44:	699b      	ldr	r3, [r3, #24]
 8002a46:	f403 7340 	and.w	r3, r3, #768	@ 0x300
 8002a4a:	2b00      	cmp	r3, #0
 8002a4c:	d003      	beq.n	8002a56 <HAL_TIM_IRQHandler+0x9e>
 8002a4e:	6878      	ldr	r0, [r7, #4]
 8002a50:	f000 fa3d 	bl	8002ece <HAL_TIM_IC_CaptureCallback>
 8002a54:	e005      	b.n	8002a62 <HAL_TIM_IRQHandler+0xaa>
 8002a56:	6878      	ldr	r0, [r7, #4]
 8002a58:	f000 fa30 	bl	8002ebc <HAL_TIM_OC_DelayElapsedCallback>
 8002a5c:	6878      	ldr	r0, [r7, #4]
 8002a5e:	f000 fa3f 	bl	8002ee0 <HAL_TIM_PWM_PulseFinishedCallback>
 8002a62:	687b      	ldr	r3, [r7, #4]
 8002a64:	2200      	movs	r2, #0
 8002a66:	771a      	strb	r2, [r3, #28]
 8002a68:	68bb      	ldr	r3, [r7, #8]
 8002a6a:	f003 0308 	and.w	r3, r3, #8
 8002a6e:	2b00      	cmp	r3, #0
 8002a70:	d020      	beq.n	8002ab4 <HAL_TIM_IRQHandler+0xfc>
 8002a72:	68fb      	ldr	r3, [r7, #12]
 8002a74:	f003 0308 	and.w	r3, r3, #8
 8002a78:	2b00      	cmp	r3, #0
 8002a7a:	d01b      	beq.n	8002ab4 <HAL_TIM_IRQHandler+0xfc>
 8002a7c:	687b      	ldr	r3, [r7, #4]
 8002a7e:	681b      	ldr	r3, [r3, #0]
 8002a80:	f06f 0208 	mvn.w	r2, #8
 8002a84:	611a      	str	r2, [r3, #16]
 8002a86:	687b      	ldr	r3, [r7, #4]
 8002a88:	2204      	movs	r2, #4
 8002a8a:	771a      	strb	r2, [r3, #28]
 8002a8c:	687b      	ldr	r3, [r7, #4]
 8002a8e:	681b      	ldr	r3, [r3, #0]
 8002a90:	69db      	ldr	r3, [r3, #28]
 8002a92:	f003 0303 	and.w	r3, r3, #3
 8002a96:	2b00      	cmp	r3, #0
 8002a98:	d003      	beq.n	8002aa2 <HAL_TIM_IRQHandler+0xea>
 8002a9a:	6878      	ldr	r0, [r7, #4]
 8002a9c:	f000 fa17 	bl	8002ece <HAL_TIM_IC_CaptureCallback>
 8002aa0:	e005      	b.n	8002aae <HAL_TIM_IRQHandler+0xf6>
 8002aa2:	6878      	ldr	r0, [r7, #4]
 8002aa4:	f000 fa0a 	bl	8002ebc <HAL_TIM_OC_DelayElapsedCallback>
 8002aa8:	6878      	ldr	r0, [r7, #4]
 8002aaa:	f000 fa19 	bl	8002ee0 <HAL_TIM_PWM_PulseFinishedCallback>
 8002aae:	687b      	ldr	r3, [r7, #4]
 8002ab0:	2200      	movs	r2, #0
 8002ab2:	771a      	strb	r2, [r3, #28]
 8002ab4:	68bb      	ldr	r3, [r7, #8]
 8002ab6:	f003 0310 	and.w	r3, r3, #16
 8002aba:	2b00      	cmp	r3, #0
 8002abc:	d020      	beq.n	8002b00 <HAL_TIM_IRQHandler+0x148>
 8002abe:	68fb      	ldr	r3, [r7, #12]
 8002ac0:	f003 0310 	and.w	r3, r3, #16
 8002ac4:	2b00      	cmp	r3, #0
 8002ac6:	d01b      	beq.n	8002b00 <HAL_TIM_IRQHandler+0x148>
 8002ac8:	687b      	ldr	r3, [r7, #4]
 8002aca:	681b      	ldr	r3, [r3, #0]
 8002acc:	f06f 0210 	mvn.w	r2, #16
 8002ad0:	611a      	str	r2, [r3, #16]
 8002ad2:	687b      	ldr	r3, [r7, #4]
 8002ad4:	2208      	movs	r2, #8
 8002ad6:	771a      	strb	r2, [r3, #28]
 8002ad8:	687b      	ldr	r3, [r7, #4]
 8002ada:	681b      	ldr	r3, [r3, #0]
 8002adc:	69db      	ldr	r3, [r3, #28]
 8002ade:	f403 7340 	and.w	r3, r3, #768	@ 0x300
 8002ae2:	2b00      	cmp	r3, #0
 8002ae4:	d003      	beq.n	8002aee <HAL_TIM_IRQHandler+0x136>
 8002ae6:	6878      	ldr	r0, [r7, #4]
 8002ae8:	f000 f9f1 	bl	8002ece <HAL_TIM_IC_CaptureCallback>
 8002aec:	e005      	b.n	8002afa <HAL_TIM_IRQHandler+0x142>
 8002aee:	6878      	ldr	r0, [r7, #4]
 8002af0:	f000 f9e4 	bl	8002ebc <HAL_TIM_OC_DelayElapsedCallback>
 8002af4:	6878      	ldr	r0, [r7, #4]
 8002af6:	f000 f9f3 	bl	8002ee0 <HAL_TIM_PWM_PulseFinishedCallback>
 8002afa:	687b      	ldr	r3, [r7, #4]
 8002afc:	2200      	movs	r2, #0
 8002afe:	771a      	strb	r2, [r3, #28]
 8002b00:	68bb      	ldr	r3, [r7, #8]
 8002b02:	f003 0301 	and.w	r3, r3, #1
 8002b06:	2b00      	cmp	r3, #0
 8002b08:	d00c      	beq.n	8002b24 <HAL_TIM_IRQHandler+0x16c>
 8002b0a:	68fb      	ldr	r3, [r7, #12]
 8002b0c:	f003 0301 	and.w	r3, r3, #1
 8002b10:	2b00      	cmp	r3, #0
 8002b12:	d007      	beq.n	8002b24 <HAL_TIM_IRQHandler+0x16c>
 8002b14:	687b      	ldr	r3, [r7, #4]
 8002b16:	681b      	ldr	r3, [r3, #0]
 8002b18:	f06f 0201 	mvn.w	r2, #1
 8002b1c:	611a      	str	r2, [r3, #16]
 8002b1e:	6878      	ldr	r0, [r7, #4]
 8002b20:	f000 f9c3 	bl	8002eaa <HAL_TIM_PeriodElapsedCallback>
 8002b24:	68bb      	ldr	r3, [r7, #8]
 8002b26:	f003 0380 	and.w	r3, r3, #128	@ 0x80
 8002b2a:	2b00      	cmp	r3, #0
 8002b2c:	d00c      	beq.n	8002b48 <HAL_TIM_IRQHandler+0x190>
 8002b2e:	68fb      	ldr	r3, [r7, #12]
 8002b30:	f003 0380 	and.w	r3, r3, #128	@ 0x80
 8002b34:	2b00      	cmp	r3, #0
 8002b36:	d007      	beq.n	8002b48 <HAL_TIM_IRQHandler+0x190>
 8002b38:	687b      	ldr	r3, [r7, #4]
 8002b3a:	681b      	ldr	r3, [r3, #0]
 8002b3c:	f06f 0280 	mvn.w	r2, #128	@ 0x80
 8002b40:	611a      	str	r2, [r3, #16]
 8002b42:	6878      	ldr	r0, [r7, #4]
 8002b44:	f000 fcf5 	bl	8003532 <HAL_TIMEx_BreakCallback>
 8002b48:	68bb      	ldr	r3, [r7, #8]
 8002b4a:	f003 0340 	and.w	r3, r3, #64	@ 0x40
 8002b4e:	2b00      	cmp	r3, #0
 8002b50:	d00c      	beq.n	8002b6c <HAL_TIM_IRQHandler+0x1b4>
 8002b52:	68fb      	ldr	r3, [r7, #12]
 8002b54:	f003 0340 	and.w	r3, r3, #64	@ 0x40
 8002b58:	2b00      	cmp	r3, #0
 8002b5a:	d007      	beq.n	8002b6c <HAL_TIM_IRQHandler+0x1b4>
 8002b5c:	687b      	ldr	r3, [r7, #4]
 8002b5e:	681b      	ldr	r3, [r3, #0]
 8002b60:	f06f 0240 	mvn.w	r2, #64	@ 0x40
 8002b64:	611a      	str	r2, [r3, #16]
 8002b66:	6878      	ldr	r0, [r7, #4]
 8002b68:	f000 f9c3 	bl	8002ef2 <HAL_TIM_TriggerCallback>
 8002b6c:	68bb      	ldr	r3, [r7, #8]
 8002b6e:	f003 0320 	and.w	r3, r3, #32
 8002b72:	2b00      	cmp	r3, #0
 8002b74:	d00c      	beq.n	8002b90 <HAL_TIM_IRQHandler+0x1d8>
 8002b76:	68fb      	ldr	r3, [r7, #12]
 8002b78:	f003 0320 	and.w	r3, r3, #32
 8002b7c:	2b00      	cmp	r3, #0
 8002b7e:	d007      	beq.n	8002b90 <HAL_TIM_IRQHandler+0x1d8>
 8002b80:	687b      	ldr	r3, [r7, #4]
 8002b82:	681b      	ldr	r3, [r3, #0]
 8002b84:	f06f 0220 	mvn.w	r2, #32
 8002b88:	611a      	str	r2, [r3, #16]
 8002b8a:	6878      	ldr	r0, [r7, #4]
 8002b8c:	f000 fcc8 	bl	8003520 <HAL_TIMEx_CommutCallback>
 8002b90:	bf00      	nop
 8002b92:	3710      	adds	r7, #16
 8002b94:	46bd      	mov	sp, r7
 8002b96:	bd80      	pop	{r7, pc}

08002b98 <HAL_TIM_PWM_ConfigChannel>:
 8002b98:	b580      	push	{r7, lr}
 8002b9a:	b086      	sub	sp, #24
 8002b9c:	af00      	add	r7, sp, #0
 8002b9e:	60f8      	str	r0, [r7, #12]
 8002ba0:	60b9      	str	r1, [r7, #8]
 8002ba2:	607a      	str	r2, [r7, #4]
 8002ba4:	2300      	movs	r3, #0
 8002ba6:	75fb      	strb	r3, [r7, #23]
 8002ba8:	68fb      	ldr	r3, [r7, #12]
 8002baa:	f893 303c 	ldrb.w	r3, [r3, #60]	@ 0x3c
 8002bae:	2b01      	cmp	r3, #1
 8002bb0:	d101      	bne.n	8002bb6 <HAL_TIM_PWM_ConfigChannel+0x1e>
 8002bb2:	2302      	movs	r3, #2
 8002bb4:	e0ae      	b.n	8002d14 <HAL_TIM_PWM_ConfigChannel+0x17c>
 8002bb6:	68fb      	ldr	r3, [r7, #12]
 8002bb8:	2201      	movs	r2, #1
 8002bba:	f883 203c 	strb.w	r2, [r3, #60]	@ 0x3c
 8002bbe:	687b      	ldr	r3, [r7, #4]
 8002bc0:	2b0c      	cmp	r3, #12
 8002bc2:	f200 809f 	bhi.w	8002d04 <HAL_TIM_PWM_ConfigChannel+0x16c>
 8002bc6:	a201      	add	r2, pc, #4	@ (adr r2, 8002bcc <HAL_TIM_PWM_ConfigChannel+0x34>)
 8002bc8:	f852 f023 	ldr.w	pc, [r2, r3, lsl #2]
 8002bcc:	08002c01 	.word	0x08002c01
 8002bd0:	08002d05 	.word	0x08002d05
 8002bd4:	08002d05 	.word	0x08002d05
 8002bd8:	08002d05 	.word	0x08002d05
 8002bdc:	08002c41 	.word	0x08002c41
 8002be0:	08002d05 	.word	0x08002d05
 8002be4:	08002d05 	.word	0x08002d05
 8002be8:	08002d05 	.word	0x08002d05
 8002bec:	08002c83 	.word	0x08002c83
 8002bf0:	08002d05 	.word	0x08002d05
 8002bf4:	08002d05 	.word	0x08002d05
 8002bf8:	08002d05 	.word	0x08002d05
 8002bfc:	08002cc3 	.word	0x08002cc3
 8002c00:	68fb      	ldr	r3, [r7, #12]
 8002c02:	681b      	ldr	r3, [r3, #0]
 8002c04:	68b9      	ldr	r1, [r7, #8]
 8002c06:	4618      	mov	r0, r3
 8002c08:	f000 f9ea 	bl	8002fe0 <TIM_OC1_SetConfig>
 8002c0c:	68fb      	ldr	r3, [r7, #12]
 8002c0e:	681b      	ldr	r3, [r3, #0]
 8002c10:	699a      	ldr	r2, [r3, #24]
 8002c12:	68fb      	ldr	r3, [r7, #12]
 8002c14:	681b      	ldr	r3, [r3, #0]
 8002c16:	f042 0208 	orr.w	r2, r2, #8
 8002c1a:	619a      	str	r2, [r3, #24]
 8002c1c:	68fb      	ldr	r3, [r7, #12]
 8002c1e:	681b      	ldr	r3, [r3, #0]
 8002c20:	699a      	ldr	r2, [r3, #24]
 8002c22:	68fb      	ldr	r3, [r7, #12]
 8002c24:	681b      	ldr	r3, [r3, #0]
 8002c26:	f022 0204 	bic.w	r2, r2, #4
 8002c2a:	619a      	str	r2, [r3, #24]
 8002c2c:	68fb      	ldr	r3, [r7, #12]
 8002c2e:	681b      	ldr	r3, [r3, #0]
 8002c30:	6999      	ldr	r1, [r3, #24]
 8002c32:	68bb      	ldr	r3, [r7, #8]
 8002c34:	691a      	ldr	r2, [r3, #16]
 8002c36:	68fb      	ldr	r3, [r7, #12]
 8002c38:	681b      	ldr	r3, [r3, #0]
 8002c3a:	430a      	orrs	r2, r1
 8002c3c:	619a      	str	r2, [r3, #24]
 8002c3e:	e064      	b.n	8002d0a <HAL_TIM_PWM_ConfigChannel+0x172>
 8002c40:	68fb      	ldr	r3, [r7, #12]
 8002c42:	681b      	ldr	r3, [r3, #0]
 8002c44:	68b9      	ldr	r1, [r7, #8]
 8002c46:	4618      	mov	r0, r3
 8002c48:	f000 fa30 	bl	80030ac <TIM_OC2_SetConfig>
 8002c4c:	68fb      	ldr	r3, [r7, #12]
 8002c4e:	681b      	ldr	r3, [r3, #0]
 8002c50:	699a      	ldr	r2, [r3, #24]
 8002c52:	68fb      	ldr	r3, [r7, #12]
 8002c54:	681b      	ldr	r3, [r3, #0]
 8002c56:	f442 6200 	orr.w	r2, r2, #2048	@ 0x800
 8002c5a:	619a      	str	r2, [r3, #24]
 8002c5c:	68fb      	ldr	r3, [r7, #12]
 8002c5e:	681b      	ldr	r3, [r3, #0]
 8002c60:	699a      	ldr	r2, [r3, #24]
 8002c62:	68fb      	ldr	r3, [r7, #12]
 8002c64:	681b      	ldr	r3, [r3, #0]
 8002c66:	f422 6280 	bic.w	r2, r2, #1024	@ 0x400
 8002c6a:	619a      	str	r2, [r3, #24]
 8002c6c:	68fb      	ldr	r3, [r7, #12]
 8002c6e:	681b      	ldr	r3, [r3, #0]
 8002c70:	6999      	ldr	r1, [r3, #24]
 8002c72:	68bb      	ldr	r3, [r7, #8]
 8002c74:	691b      	ldr	r3, [r3, #16]
 8002c76:	021a      	lsls	r2, r3, #8
 8002c78:	68fb      	ldr	r3, [r7, #12]
 8002c7a:	681b      	ldr	r3, [r3, #0]
 8002c7c:	430a      	orrs	r2, r1
 8002c7e:	619a      	str	r2, [r3, #24]
 8002c80:	e043      	b.n	8002d0a <HAL_TIM_PWM_ConfigChannel+0x172>
 8002c82:	68fb      	ldr	r3, [r7, #12]
 8002c84:	681b      	ldr	r3, [r3, #0]
 8002c86:	68b9      	ldr	r1, [r7, #8]
 8002c88:	4618      	mov	r0, r3
 8002c8a:	f000 fa79 	bl	8003180 <TIM_OC3_SetConfig>
 8002c8e:	68fb      	ldr	r3, [r7, #12]
 8002c90:	681b      	ldr	r3, [r3, #0]
 8002c92:	69da      	ldr	r2, [r3, #28]
 8002c94:	68fb      	ldr	r3, [r7, #12]
 8002c96:	681b      	ldr	r3, [r3, #0]
 8002c98:	f042 0208 	orr.w	r2, r2, #8
 8002c9c:	61da      	str	r2, [r3, #28]
 8002c9e:	68fb      	ldr	r3, [r7, #12]
 8002ca0:	681b      	ldr	r3, [r3, #0]
 8002ca2:	69da      	ldr	r2, [r3, #28]
 8002ca4:	68fb      	ldr	r3, [r7, #12]
 8002ca6:	681b      	ldr	r3, [r3, #0]
 8002ca8:	f022 0204 	bic.w	r2, r2, #4
 8002cac:	61da      	str	r2, [r3, #28]
 8002cae:	68fb      	ldr	r3, [r7, #12]
 8002cb0:	681b      	ldr	r3, [r3, #0]
 8002cb2:	69d9      	ldr	r1, [r3, #28]
 8002cb4:	68bb      	ldr	r3, [r7, #8]
 8002cb6:	691a      	ldr	r2, [r3, #16]
 8002cb8:	68fb      	ldr	r3, [r7, #12]
 8002cba:	681b      	ldr	r3, [r3, #0]
 8002cbc:	430a      	orrs	r2, r1
 8002cbe:	61da      	str	r2, [r3, #28]
 8002cc0:	e023      	b.n	8002d0a <HAL_TIM_PWM_ConfigChannel+0x172>
 8002cc2:	68fb      	ldr	r3, [r7, #12]
 8002cc4:	681b      	ldr	r3, [r3, #0]
 8002cc6:	68b9      	ldr	r1, [r7, #8]
 8002cc8:	4618      	mov	r0, r3
 8002cca:	f000 fac3 	bl	8003254 <TIM_OC4_SetConfig>
 8002cce:	68fb      	ldr	r3, [r7, #12]
 8002cd0:	681b      	ldr	r3, [r3, #0]
 8002cd2:	69da      	ldr	r2, [r3, #28]
 8002cd4:	68fb      	ldr	r3, [r7, #12]
 8002cd6:	681b      	ldr	r3, [r3, #0]
 8002cd8:	f442 6200 	orr.w	r2, r2, #2048	@ 0x800
 8002cdc:	61da      	str	r2, [r3, #28]
 8002cde:	68fb      	ldr	r3, [r7, #12]
 8002ce0:	681b      	ldr	r3, [r3, #0]
 8002ce2:	69da      	ldr	r2, [r3, #28]
 8002ce4:	68fb      	ldr	r3, [r7, #12]
 8002ce6:	681b      	ldr	r3, [r3, #0]
 8002ce8:	f422 6280 	bic.w	r2, r2, #1024	@ 0x400
 8002cec:	61da      	str	r2, [r3, #28]
 8002cee:	68fb      	ldr	r3, [r7, #12]
 8002cf0:	681b      	ldr	r3, [r3, #0]
 8002cf2:	69d9      	ldr	r1, [r3, #28]
 8002cf4:	68bb      	ldr	r3, [r7, #8]
 8002cf6:	691b      	ldr	r3, [r3, #16]
 8002cf8:	021a      	lsls	r2, r3, #8
 8002cfa:	68fb      	ldr	r3, [r7, #12]
 8002cfc:	681b      	ldr	r3, [r3, #0]
 8002cfe:	430a      	orrs	r2, r1
 8002d00:	61da      	str	r2, [r3, #28]
 8002d02:	e002      	b.n	8002d0a <HAL_TIM_PWM_ConfigChannel+0x172>
 8002d04:	2301      	movs	r3, #1
 8002d06:	75fb      	strb	r3, [r7, #23]
 8002d08:	bf00      	nop
 8002d0a:	68fb      	ldr	r3, [r7, #12]
 8002d0c:	2200      	movs	r2, #0
 8002d0e:	f883 203c 	strb.w	r2, [r3, #60]	@ 0x3c
 8002d12:	7dfb      	ldrb	r3, [r7, #23]
 8002d14:	4618      	mov	r0, r3
 8002d16:	3718      	adds	r7, #24
 8002d18:	46bd      	mov	sp, r7
 8002d1a:	bd80      	pop	{r7, pc}

08002d1c <HAL_TIM_ConfigClockSource>:
 8002d1c:	b580      	push	{r7, lr}
 8002d1e:	b084      	sub	sp, #16
 8002d20:	af00      	add	r7, sp, #0
 8002d22:	6078      	str	r0, [r7, #4]
 8002d24:	6039      	str	r1, [r7, #0]
 8002d26:	2300      	movs	r3, #0
 8002d28:	73fb      	strb	r3, [r7, #15]
 8002d2a:	687b      	ldr	r3, [r7, #4]
 8002d2c:	f893 303c 	ldrb.w	r3, [r3, #60]	@ 0x3c
 8002d30:	2b01      	cmp	r3, #1
 8002d32:	d101      	bne.n	8002d38 <HAL_TIM_ConfigClockSource+0x1c>
 8002d34:	2302      	movs	r3, #2
 8002d36:	e0b4      	b.n	8002ea2 <HAL_TIM_ConfigClockSource+0x186>
 8002d38:	687b      	ldr	r3, [r7, #4]
 8002d3a:	2201      	movs	r2, #1
 8002d3c:	f883 203c 	strb.w	r2, [r3, #60]	@ 0x3c
 8002d40:	687b      	ldr	r3, [r7, #4]
 8002d42:	2202      	movs	r2, #2
 8002d44:	f883 203d 	strb.w	r2, [r3, #61]	@ 0x3d
 8002d48:	687b      	ldr	r3, [r7, #4]
 8002d4a:	681b      	ldr	r3, [r3, #0]
 8002d4c:	689b      	ldr	r3, [r3, #8]
 8002d4e:	60bb      	str	r3, [r7, #8]
 8002d50:	68bb      	ldr	r3, [r7, #8]
 8002d52:	f023 0377 	bic.w	r3, r3, #119	@ 0x77
 8002d56:	60bb      	str	r3, [r7, #8]
 8002d58:	68bb      	ldr	r3, [r7, #8]
 8002d5a:	f423 437f 	bic.w	r3, r3, #65280	@ 0xff00
 8002d5e:	60bb      	str	r3, [r7, #8]
 8002d60:	687b      	ldr	r3, [r7, #4]
 8002d62:	681b      	ldr	r3, [r3, #0]
 8002d64:	68ba      	ldr	r2, [r7, #8]
 8002d66:	609a      	str	r2, [r3, #8]
 8002d68:	683b      	ldr	r3, [r7, #0]
 8002d6a:	681b      	ldr	r3, [r3, #0]
 8002d6c:	f5b3 5f00 	cmp.w	r3, #8192	@ 0x2000
 8002d70:	d03e      	beq.n	8002df0 <HAL_TIM_ConfigClockSource+0xd4>
 8002d72:	f5b3 5f00 	cmp.w	r3, #8192	@ 0x2000
 8002d76:	f200 8087 	bhi.w	8002e88 <HAL_TIM_ConfigClockSource+0x16c>
 8002d7a:	f5b3 5f80 	cmp.w	r3, #4096	@ 0x1000
 8002d7e:	f000 8086 	beq.w	8002e8e <HAL_TIM_ConfigClockSource+0x172>
 8002d82:	f5b3 5f80 	cmp.w	r3, #4096	@ 0x1000
 8002d86:	d87f      	bhi.n	8002e88 <HAL_TIM_ConfigClockSource+0x16c>
 8002d88:	2b70      	cmp	r3, #112	@ 0x70
 8002d8a:	d01a      	beq.n	8002dc2 <HAL_TIM_ConfigClockSource+0xa6>
 8002d8c:	2b70      	cmp	r3, #112	@ 0x70
 8002d8e:	d87b      	bhi.n	8002e88 <HAL_TIM_ConfigClockSource+0x16c>
 8002d90:	2b60      	cmp	r3, #96	@ 0x60
 8002d92:	d050      	beq.n	8002e36 <HAL_TIM_ConfigClockSource+0x11a>
 8002d94:	2b60      	cmp	r3, #96	@ 0x60
 8002d96:	d877      	bhi.n	8002e88 <HAL_TIM_ConfigClockSource+0x16c>
 8002d98:	2b50      	cmp	r3, #80	@ 0x50
 8002d9a:	d03c      	beq.n	8002e16 <HAL_TIM_ConfigClockSource+0xfa>
 8002d9c:	2b50      	cmp	r3, #80	@ 0x50
 8002d9e:	d873      	bhi.n	8002e88 <HAL_TIM_ConfigClockSource+0x16c>
 8002da0:	2b40      	cmp	r3, #64	@ 0x40
 8002da2:	d058      	beq.n	8002e56 <HAL_TIM_ConfigClockSource+0x13a>
 8002da4:	2b40      	cmp	r3, #64	@ 0x40
 8002da6:	d86f      	bhi.n	8002e88 <HAL_TIM_ConfigClockSource+0x16c>
 8002da8:	2b30      	cmp	r3, #48	@ 0x30
 8002daa:	d064      	beq.n	8002e76 <HAL_TIM_ConfigClockSource+0x15a>
 8002dac:	2b30      	cmp	r3, #48	@ 0x30
 8002dae:	d86b      	bhi.n	8002e88 <HAL_TIM_ConfigClockSource+0x16c>
 8002db0:	2b20      	cmp	r3, #32
 8002db2:	d060      	beq.n	8002e76 <HAL_TIM_ConfigClockSource+0x15a>
 8002db4:	2b20      	cmp	r3, #32
 8002db6:	d867      	bhi.n	8002e88 <HAL_TIM_ConfigClockSource+0x16c>
 8002db8:	2b00      	cmp	r3, #0
 8002dba:	d05c      	beq.n	8002e76 <HAL_TIM_ConfigClockSource+0x15a>
 8002dbc:	2b10      	cmp	r3, #16
 8002dbe:	d05a      	beq.n	8002e76 <HAL_TIM_ConfigClockSource+0x15a>
 8002dc0:	e062      	b.n	8002e88 <HAL_TIM_ConfigClockSource+0x16c>
 8002dc2:	687b      	ldr	r3, [r7, #4]
 8002dc4:	6818      	ldr	r0, [r3, #0]
 8002dc6:	683b      	ldr	r3, [r7, #0]
 8002dc8:	6899      	ldr	r1, [r3, #8]
 8002dca:	683b      	ldr	r3, [r7, #0]
 8002dcc:	685a      	ldr	r2, [r3, #4]
 8002dce:	683b      	ldr	r3, [r7, #0]
 8002dd0:	68db      	ldr	r3, [r3, #12]
 8002dd2:	f000 fb04 	bl	80033de <TIM_ETR_SetConfig>
 8002dd6:	687b      	ldr	r3, [r7, #4]
 8002dd8:	681b      	ldr	r3, [r3, #0]
 8002dda:	689b      	ldr	r3, [r3, #8]
 8002ddc:	60bb      	str	r3, [r7, #8]
 8002dde:	68bb      	ldr	r3, [r7, #8]
 8002de0:	f043 0377 	orr.w	r3, r3, #119	@ 0x77
 8002de4:	60bb      	str	r3, [r7, #8]
 8002de6:	687b      	ldr	r3, [r7, #4]
 8002de8:	681b      	ldr	r3, [r3, #0]
 8002dea:	68ba      	ldr	r2, [r7, #8]
 8002dec:	609a      	str	r2, [r3, #8]
 8002dee:	e04f      	b.n	8002e90 <HAL_TIM_ConfigClockSource+0x174>
 8002df0:	687b      	ldr	r3, [r7, #4]
 8002df2:	6818      	ldr	r0, [r3, #0]
 8002df4:	683b      	ldr	r3, [r7, #0]
 8002df6:	6899      	ldr	r1, [r3, #8]
 8002df8:	683b      	ldr	r3, [r7, #0]
 8002dfa:	685a      	ldr	r2, [r3, #4]
 8002dfc:	683b      	ldr	r3, [r7, #0]
 8002dfe:	68db      	ldr	r3, [r3, #12]
 8002e00:	f000 faed 	bl	80033de <TIM_ETR_SetConfig>
 8002e04:	687b      	ldr	r3, [r7, #4]
 8002e06:	681b      	ldr	r3, [r3, #0]
 8002e08:	689a      	ldr	r2, [r3, #8]
 8002e0a:	687b      	ldr	r3, [r7, #4]
 8002e0c:	681b      	ldr	r3, [r3, #0]
 8002e0e:	f442 4280 	orr.w	r2, r2, #16384	@ 0x4000
 8002e12:	609a      	str	r2, [r3, #8]
 8002e14:	e03c      	b.n	8002e90 <HAL_TIM_ConfigClockSource+0x174>
 8002e16:	687b      	ldr	r3, [r7, #4]
 8002e18:	6818      	ldr	r0, [r3, #0]
 8002e1a:	683b      	ldr	r3, [r7, #0]
 8002e1c:	6859      	ldr	r1, [r3, #4]
 8002e1e:	683b      	ldr	r3, [r7, #0]
 8002e20:	68db      	ldr	r3, [r3, #12]
 8002e22:	461a      	mov	r2, r3
 8002e24:	f000 fa64 	bl	80032f0 <TIM_TI1_ConfigInputStage>
 8002e28:	687b      	ldr	r3, [r7, #4]
 8002e2a:	681b      	ldr	r3, [r3, #0]
 8002e2c:	2150      	movs	r1, #80	@ 0x50
 8002e2e:	4618      	mov	r0, r3
 8002e30:	f000 fabb 	bl	80033aa <TIM_ITRx_SetConfig>
 8002e34:	e02c      	b.n	8002e90 <HAL_TIM_ConfigClockSource+0x174>
 8002e36:	687b      	ldr	r3, [r7, #4]
 8002e38:	6818      	ldr	r0, [r3, #0]
 8002e3a:	683b      	ldr	r3, [r7, #0]
 8002e3c:	6859      	ldr	r1, [r3, #4]
 8002e3e:	683b      	ldr	r3, [r7, #0]
 8002e40:	68db      	ldr	r3, [r3, #12]
 8002e42:	461a      	mov	r2, r3
 8002e44:	f000 fa82 	bl	800334c <TIM_TI2_ConfigInputStage>
 8002e48:	687b      	ldr	r3, [r7, #4]
 8002e4a:	681b      	ldr	r3, [r3, #0]
 8002e4c:	2160      	movs	r1, #96	@ 0x60
 8002e4e:	4618      	mov	r0, r3
 8002e50:	f000 faab 	bl	80033aa <TIM_ITRx_SetConfig>
 8002e54:	e01c      	b.n	8002e90 <HAL_TIM_ConfigClockSource+0x174>
 8002e56:	687b      	ldr	r3, [r7, #4]
 8002e58:	6818      	ldr	r0, [r3, #0]
 8002e5a:	683b      	ldr	r3, [r7, #0]
 8002e5c:	6859      	ldr	r1, [r3, #4]
 8002e5e:	683b      	ldr	r3, [r7, #0]
 8002e60:	68db      	ldr	r3, [r3, #12]
 8002e62:	461a      	mov	r2, r3
 8002e64:	f000 fa44 	bl	80032f0 <TIM_TI1_ConfigInputStage>
 8002e68:	687b      	ldr	r3, [r7, #4]
 8002e6a:	681b      	ldr	r3, [r3, #0]
 8002e6c:	2140      	movs	r1, #64	@ 0x40
 8002e6e:	4618      	mov	r0, r3
 8002e70:	f000 fa9b 	bl	80033aa <TIM_ITRx_SetConfig>
 8002e74:	e00c      	b.n	8002e90 <HAL_TIM_ConfigClockSource+0x174>
 8002e76:	687b      	ldr	r3, [r7, #4]
 8002e78:	681a      	ldr	r2, [r3, #0]
 8002e7a:	683b      	ldr	r3, [r7, #0]
 8002e7c:	681b      	ldr	r3, [r3, #0]
 8002e7e:	4619      	mov	r1, r3
 8002e80:	4610      	mov	r0, r2
 8002e82:	f000 fa92 	bl	80033aa <TIM_ITRx_SetConfig>
 8002e86:	e003      	b.n	8002e90 <HAL_TIM_ConfigClockSource+0x174>
 8002e88:	2301      	movs	r3, #1
 8002e8a:	73fb      	strb	r3, [r7, #15]
 8002e8c:	e000      	b.n	8002e90 <HAL_TIM_ConfigClockSource+0x174>
 8002e8e:	bf00      	nop
 8002e90:	687b      	ldr	r3, [r7, #4]
 8002e92:	2201      	movs	r2, #1
 8002e94:	f883 203d 	strb.w	r2, [r3, #61]	@ 0x3d
 8002e98:	687b      	ldr	r3, [r7, #4]
 8002e9a:	2200      	movs	r2, #0
 8002e9c:	f883 203c 	strb.w	r2, [r3, #60]	@ 0x3c
 8002ea0:	7bfb      	ldrb	r3, [r7, #15]
 8002ea2:	4618      	mov	r0, r3
 8002ea4:	3710      	adds	r7, #16
 8002ea6:	46bd      	mov	sp, r7
 8002ea8:	bd80      	pop	{r7, pc}

08002eaa <HAL_TIM_PeriodElapsedCallback>:
 8002eaa:	b480      	push	{r7}
 8002eac:	b083      	sub	sp, #12
 8002eae:	af00      	add	r7, sp, #0
 8002eb0:	6078      	str	r0, [r7, #4]
 8002eb2:	bf00      	nop
 8002eb4:	370c      	adds	r7, #12
 8002eb6:	46bd      	mov	sp, r7
 8002eb8:	bc80      	pop	{r7}
 8002eba:	4770      	bx	lr

08002ebc <HAL_TIM_OC_DelayElapsedCallback>:
 8002ebc:	b480      	push	{r7}
 8002ebe:	b083      	sub	sp, #12
 8002ec0:	af00      	add	r7, sp, #0
 8002ec2:	6078      	str	r0, [r7, #4]
 8002ec4:	bf00      	nop
 8002ec6:	370c      	adds	r7, #12
 8002ec8:	46bd      	mov	sp, r7
 8002eca:	bc80      	pop	{r7}
 8002ecc:	4770      	bx	lr

08002ece <HAL_TIM_IC_CaptureCallback>:
 8002ece:	b480      	push	{r7}
 8002ed0:	b083      	sub	sp, #12
 8002ed2:	af00      	add	r7, sp, #0
 8002ed4:	6078      	str	r0, [r7, #4]
 8002ed6:	bf00      	nop
 8002ed8:	370c      	adds	r7, #12
 8002eda:	46bd      	mov	sp, r7
 8002edc:	bc80      	pop	{r7}
 8002ede:	4770      	bx	lr

08002ee0 <HAL_TIM_PWM_PulseFinishedCallback>:
 8002ee0:	b480      	push	{r7}
 8002ee2:	b083      	sub	sp, #12
 8002ee4:	af00      	add	r7, sp, #0
 8002ee6:	6078      	str	r0, [r7, #4]
 8002ee8:	bf00      	nop
 8002eea:	370c      	adds	r7, #12
 8002eec:	46bd      	mov	sp, r7
 8002eee:	bc80      	pop	{r7}
 8002ef0:	4770      	bx	lr

08002ef2 <HAL_TIM_TriggerCallback>:
 8002ef2:	b480      	push	{r7}
 8002ef4:	b083      	sub	sp, #12
 8002ef6:	af00      	add	r7, sp, #0
 8002ef8:	6078      	str	r0, [r7, #4]
 8002efa:	bf00      	nop
 8002efc:	370c      	adds	r7, #12
 8002efe:	46bd      	mov	sp, r7
 8002f00:	bc80      	pop	{r7}
 8002f02:	4770      	bx	lr

08002f04 <TIM_Base_SetConfig>:
 8002f04:	b480      	push	{r7}
 8002f06:	b085      	sub	sp, #20
 8002f08:	af00      	add	r7, sp, #0
 8002f0a:	6078      	str	r0, [r7, #4]
 8002f0c:	6039      	str	r1, [r7, #0]
 8002f0e:	687b      	ldr	r3, [r7, #4]
 8002f10:	681b      	ldr	r3, [r3, #0]
 8002f12:	60fb      	str	r3, [r7, #12]
 8002f14:	687b      	ldr	r3, [r7, #4]
 8002f16:	4a2f      	ldr	r2, [pc, #188]	@ (8002fd4 <TIM_Base_SetConfig+0xd0>)
 8002f18:	4293      	cmp	r3, r2
 8002f1a:	d00b      	beq.n	8002f34 <TIM_Base_SetConfig+0x30>
 8002f1c:	687b      	ldr	r3, [r7, #4]
 8002f1e:	f1b3 4f80 	cmp.w	r3, #1073741824	@ 0x40000000
 8002f22:	d007      	beq.n	8002f34 <TIM_Base_SetConfig+0x30>
 8002f24:	687b      	ldr	r3, [r7, #4]
 8002f26:	4a2c      	ldr	r2, [pc, #176]	@ (8002fd8 <TIM_Base_SetConfig+0xd4>)
 8002f28:	4293      	cmp	r3, r2
 8002f2a:	d003      	beq.n	8002f34 <TIM_Base_SetConfig+0x30>
 8002f2c:	687b      	ldr	r3, [r7, #4]
 8002f2e:	4a2b      	ldr	r2, [pc, #172]	@ (8002fdc <TIM_Base_SetConfig+0xd8>)
 8002f30:	4293      	cmp	r3, r2
 8002f32:	d108      	bne.n	8002f46 <TIM_Base_SetConfig+0x42>
 8002f34:	68fb      	ldr	r3, [r7, #12]
 8002f36:	f023 0370 	bic.w	r3, r3, #112	@ 0x70
 8002f3a:	60fb      	str	r3, [r7, #12]
 8002f3c:	683b      	ldr	r3, [r7, #0]
 8002f3e:	685b      	ldr	r3, [r3, #4]
 8002f40:	68fa      	ldr	r2, [r7, #12]
 8002f42:	4313      	orrs	r3, r2
 8002f44:	60fb      	str	r3, [r7, #12]
 8002f46:	687b      	ldr	r3, [r7, #4]
 8002f48:	4a22      	ldr	r2, [pc, #136]	@ (8002fd4 <TIM_Base_SetConfig+0xd0>)
 8002f4a:	4293      	cmp	r3, r2
 8002f4c:	d00b      	beq.n	8002f66 <TIM_Base_SetConfig+0x62>
 8002f4e:	687b      	ldr	r3, [r7, #4]
 8002f50:	f1b3 4f80 	cmp.w	r3, #1073741824	@ 0x40000000
 8002f54:	d007      	beq.n	8002f66 <TIM_Base_SetConfig+0x62>
 8002f56:	687b      	ldr	r3, [r7, #4]
 8002f58:	4a1f      	ldr	r2, [pc, #124]	@ (8002fd8 <TIM_Base_SetConfig+0xd4>)
 8002f5a:	4293      	cmp	r3, r2
 8002f5c:	d003      	beq.n	8002f66 <TIM_Base_SetConfig+0x62>
 8002f5e:	687b      	ldr	r3, [r7, #4]
 8002f60:	4a1e      	ldr	r2, [pc, #120]	@ (8002fdc <TIM_Base_SetConfig+0xd8>)
 8002f62:	4293      	cmp	r3, r2
 8002f64:	d108      	bne.n	8002f78 <TIM_Base_SetConfig+0x74>
 8002f66:	68fb      	ldr	r3, [r7, #12]
 8002f68:	f423 7340 	bic.w	r3, r3, #768	@ 0x300
 8002f6c:	60fb      	str	r3, [r7, #12]
 8002f6e:	683b      	ldr	r3, [r7, #0]
 8002f70:	68db      	ldr	r3, [r3, #12]
 8002f72:	68fa      	ldr	r2, [r7, #12]
 8002f74:	4313      	orrs	r3, r2
 8002f76:	60fb      	str	r3, [r7, #12]
 8002f78:	68fb      	ldr	r3, [r7, #12]
 8002f7a:	f023 0280 	bic.w	r2, r3, #128	@ 0x80
 8002f7e:	683b      	ldr	r3, [r7, #0]
 8002f80:	695b      	ldr	r3, [r3, #20]
 8002f82:	4313      	orrs	r3, r2
 8002f84:	60fb      	str	r3, [r7, #12]
 8002f86:	687b      	ldr	r3, [r7, #4]
 8002f88:	68fa      	ldr	r2, [r7, #12]
 8002f8a:	601a      	str	r2, [r3, #0]
 8002f8c:	683b      	ldr	r3, [r7, #0]
 8002f8e:	689a      	ldr	r2, [r3, #8]
 8002f90:	687b      	ldr	r3, [r7, #4]
 8002f92:	62da      	str	r2, [r3, #44]	@ 0x2c
 8002f94:	683b      	ldr	r3, [r7, #0]
 8002f96:	681a      	ldr	r2, [r3, #0]
 8002f98:	687b      	ldr	r3, [r7, #4]
 8002f9a:	629a      	str	r2, [r3, #40]	@ 0x28
 8002f9c:	687b      	ldr	r3, [r7, #4]
 8002f9e:	4a0d      	ldr	r2, [pc, #52]	@ (8002fd4 <TIM_Base_SetConfig+0xd0>)
 8002fa0:	4293      	cmp	r3, r2
 8002fa2:	d103      	bne.n	8002fac <TIM_Base_SetConfig+0xa8>
 8002fa4:	683b      	ldr	r3, [r7, #0]
 8002fa6:	691a      	ldr	r2, [r3, #16]
 8002fa8:	687b      	ldr	r3, [r7, #4]
 8002faa:	631a      	str	r2, [r3, #48]	@ 0x30
 8002fac:	687b      	ldr	r3, [r7, #4]
 8002fae:	2201      	movs	r2, #1
 8002fb0:	615a      	str	r2, [r3, #20]
 8002fb2:	687b      	ldr	r3, [r7, #4]
 8002fb4:	691b      	ldr	r3, [r3, #16]
 8002fb6:	f003 0301 	and.w	r3, r3, #1
 8002fba:	2b00      	cmp	r3, #0
 8002fbc:	d005      	beq.n	8002fca <TIM_Base_SetConfig+0xc6>
 8002fbe:	687b      	ldr	r3, [r7, #4]
 8002fc0:	691b      	ldr	r3, [r3, #16]
 8002fc2:	f023 0201 	bic.w	r2, r3, #1
 8002fc6:	687b      	ldr	r3, [r7, #4]
 8002fc8:	611a      	str	r2, [r3, #16]
 8002fca:	bf00      	nop
 8002fcc:	3714      	adds	r7, #20
 8002fce:	46bd      	mov	sp, r7
 8002fd0:	bc80      	pop	{r7}
 8002fd2:	4770      	bx	lr
 8002fd4:	40012c00 	.word	0x40012c00
 8002fd8:	40000400 	.word	0x40000400
 8002fdc:	40000800 	.word	0x40000800

08002fe0 <TIM_OC1_SetConfig>:
 8002fe0:	b480      	push	{r7}
 8002fe2:	b087      	sub	sp, #28
 8002fe4:	af00      	add	r7, sp, #0
 8002fe6:	6078      	str	r0, [r7, #4]
 8002fe8:	6039      	str	r1, [r7, #0]
 8002fea:	687b      	ldr	r3, [r7, #4]
 8002fec:	6a1b      	ldr	r3, [r3, #32]
 8002fee:	617b      	str	r3, [r7, #20]
 8002ff0:	687b      	ldr	r3, [r7, #4]
 8002ff2:	6a1b      	ldr	r3, [r3, #32]
 8002ff4:	f023 0201 	bic.w	r2, r3, #1
 8002ff8:	687b      	ldr	r3, [r7, #4]
 8002ffa:	621a      	str	r2, [r3, #32]
 8002ffc:	687b      	ldr	r3, [r7, #4]
 8002ffe:	685b      	ldr	r3, [r3, #4]
 8003000:	613b      	str	r3, [r7, #16]
 8003002:	687b      	ldr	r3, [r7, #4]
 8003004:	699b      	ldr	r3, [r3, #24]
 8003006:	60fb      	str	r3, [r7, #12]
 8003008:	68fb      	ldr	r3, [r7, #12]
 800300a:	f023 0370 	bic.w	r3, r3, #112	@ 0x70
 800300e:	60fb      	str	r3, [r7, #12]
 8003010:	68fb      	ldr	r3, [r7, #12]
 8003012:	f023 0303 	bic.w	r3, r3, #3
 8003016:	60fb      	str	r3, [r7, #12]
 8003018:	683b      	ldr	r3, [r7, #0]
 800301a:	681b      	ldr	r3, [r3, #0]
 800301c:	68fa      	ldr	r2, [r7, #12]
 800301e:	4313      	orrs	r3, r2
 8003020:	60fb      	str	r3, [r7, #12]
 8003022:	697b      	ldr	r3, [r7, #20]
 8003024:	f023 0302 	bic.w	r3, r3, #2
 8003028:	617b      	str	r3, [r7, #20]
 800302a:	683b      	ldr	r3, [r7, #0]
 800302c:	689b      	ldr	r3, [r3, #8]
 800302e:	697a      	ldr	r2, [r7, #20]
 8003030:	4313      	orrs	r3, r2
 8003032:	617b      	str	r3, [r7, #20]
 8003034:	687b      	ldr	r3, [r7, #4]
 8003036:	4a1c      	ldr	r2, [pc, #112]	@ (80030a8 <TIM_OC1_SetConfig+0xc8>)
 8003038:	4293      	cmp	r3, r2
 800303a:	d10c      	bne.n	8003056 <TIM_OC1_SetConfig+0x76>
 800303c:	697b      	ldr	r3, [r7, #20]
 800303e:	f023 0308 	bic.w	r3, r3, #8
 8003042:	617b      	str	r3, [r7, #20]
 8003044:	683b      	ldr	r3, [r7, #0]
 8003046:	68db      	ldr	r3, [r3, #12]
 8003048:	697a      	ldr	r2, [r7, #20]
 800304a:	4313      	orrs	r3, r2
 800304c:	617b      	str	r3, [r7, #20]
 800304e:	697b      	ldr	r3, [r7, #20]
 8003050:	f023 0304 	bic.w	r3, r3, #4
 8003054:	617b      	str	r3, [r7, #20]
 8003056:	687b      	ldr	r3, [r7, #4]
 8003058:	4a13      	ldr	r2, [pc, #76]	@ (80030a8 <TIM_OC1_SetConfig+0xc8>)
 800305a:	4293      	cmp	r3, r2
 800305c:	d111      	bne.n	8003082 <TIM_OC1_SetConfig+0xa2>
 800305e:	693b      	ldr	r3, [r7, #16]
 8003060:	f423 7380 	bic.w	r3, r3, #256	@ 0x100
 8003064:	613b      	str	r3, [r7, #16]
 8003066:	693b      	ldr	r3, [r7, #16]
 8003068:	f423 7300 	bic.w	r3, r3, #512	@ 0x200
 800306c:	613b      	str	r3, [r7, #16]
 800306e:	683b      	ldr	r3, [r7, #0]
 8003070:	695b      	ldr	r3, [r3, #20]
 8003072:	693a      	ldr	r2, [r7, #16]
 8003074:	4313      	orrs	r3, r2
 8003076:	613b      	str	r3, [r7, #16]
 8003078:	683b      	ldr	r3, [r7, #0]
 800307a:	699b      	ldr	r3, [r3, #24]
 800307c:	693a      	ldr	r2, [r7, #16]
 800307e:	4313      	orrs	r3, r2
 8003080:	613b      	str	r3, [r7, #16]
 8003082:	687b      	ldr	r3, [r7, #4]
 8003084:	693a      	ldr	r2, [r7, #16]
 8003086:	605a      	str	r2, [r3, #4]
 8003088:	687b      	ldr	r3, [r7, #4]
 800308a:	68fa      	ldr	r2, [r7, #12]
 800308c:	619a      	str	r2, [r3, #24]
 800308e:	683b      	ldr	r3, [r7, #0]
 8003090:	685a      	ldr	r2, [r3, #4]
 8003092:	687b      	ldr	r3, [r7, #4]
 8003094:	635a      	str	r2, [r3, #52]	@ 0x34
 8003096:	687b      	ldr	r3, [r7, #4]
 8003098:	697a      	ldr	r2, [r7, #20]
 800309a:	621a      	str	r2, [r3, #32]
 800309c:	bf00      	nop
 800309e:	371c      	adds	r7, #28
 80030a0:	46bd      	mov	sp, r7
 80030a2:	bc80      	pop	{r7}
 80030a4:	4770      	bx	lr
 80030a6:	bf00      	nop
 80030a8:	40012c00 	.word	0x40012c00

080030ac <TIM_OC2_SetConfig>:
 80030ac:	b480      	push	{r7}
 80030ae:	b087      	sub	sp, #28
 80030b0:	af00      	add	r7, sp, #0
 80030b2:	6078      	str	r0, [r7, #4]
 80030b4:	6039      	str	r1, [r7, #0]
 80030b6:	687b      	ldr	r3, [r7, #4]
 80030b8:	6a1b      	ldr	r3, [r3, #32]
 80030ba:	617b      	str	r3, [r7, #20]
 80030bc:	687b      	ldr	r3, [r7, #4]
 80030be:	6a1b      	ldr	r3, [r3, #32]
 80030c0:	f023 0210 	bic.w	r2, r3, #16
 80030c4:	687b      	ldr	r3, [r7, #4]
 80030c6:	621a      	str	r2, [r3, #32]
 80030c8:	687b      	ldr	r3, [r7, #4]
 80030ca:	685b      	ldr	r3, [r3, #4]
 80030cc:	613b      	str	r3, [r7, #16]
 80030ce:	687b      	ldr	r3, [r7, #4]
 80030d0:	699b      	ldr	r3, [r3, #24]
 80030d2:	60fb      	str	r3, [r7, #12]
 80030d4:	68fb      	ldr	r3, [r7, #12]
 80030d6:	f423 43e0 	bic.w	r3, r3, #28672	@ 0x7000
 80030da:	60fb      	str	r3, [r7, #12]
 80030dc:	68fb      	ldr	r3, [r7, #12]
 80030de:	f423 7340 	bic.w	r3, r3, #768	@ 0x300
 80030e2:	60fb      	str	r3, [r7, #12]
 80030e4:	683b      	ldr	r3, [r7, #0]
 80030e6:	681b      	ldr	r3, [r3, #0]
 80030e8:	021b      	lsls	r3, r3, #8
 80030ea:	68fa      	ldr	r2, [r7, #12]
 80030ec:	4313      	orrs	r3, r2
 80030ee:	60fb      	str	r3, [r7, #12]
 80030f0:	697b      	ldr	r3, [r7, #20]
 80030f2:	f023 0320 	bic.w	r3, r3, #32
 80030f6:	617b      	str	r3, [r7, #20]
 80030f8:	683b      	ldr	r3, [r7, #0]
 80030fa:	689b      	ldr	r3, [r3, #8]
 80030fc:	011b      	lsls	r3, r3, #4
 80030fe:	697a      	ldr	r2, [r7, #20]
 8003100:	4313      	orrs	r3, r2
 8003102:	617b      	str	r3, [r7, #20]
 8003104:	687b      	ldr	r3, [r7, #4]
 8003106:	4a1d      	ldr	r2, [pc, #116]	@ (800317c <TIM_OC2_SetConfig+0xd0>)
 8003108:	4293      	cmp	r3, r2
 800310a:	d10d      	bne.n	8003128 <TIM_OC2_SetConfig+0x7c>
 800310c:	697b      	ldr	r3, [r7, #20]
 800310e:	f023 0380 	bic.w	r3, r3, #128	@ 0x80
 8003112:	617b      	str	r3, [r7, #20]
 8003114:	683b      	ldr	r3, [r7, #0]
 8003116:	68db      	ldr	r3, [r3, #12]
 8003118:	011b      	lsls	r3, r3, #4
 800311a:	697a      	ldr	r2, [r7, #20]
 800311c:	4313      	orrs	r3, r2
 800311e:	617b      	str	r3, [r7, #20]
 8003120:	697b      	ldr	r3, [r7, #20]
 8003122:	f023 0340 	bic.w	r3, r3, #64	@ 0x40
 8003126:	617b      	str	r3, [r7, #20]
 8003128:	687b      	ldr	r3, [r7, #4]
 800312a:	4a14      	ldr	r2, [pc, #80]	@ (800317c <TIM_OC2_SetConfig+0xd0>)
 800312c:	4293      	cmp	r3, r2
 800312e:	d113      	bne.n	8003158 <TIM_OC2_SetConfig+0xac>
 8003130:	693b      	ldr	r3, [r7, #16]
 8003132:	f423 6380 	bic.w	r3, r3, #1024	@ 0x400
 8003136:	613b      	str	r3, [r7, #16]
 8003138:	693b      	ldr	r3, [r7, #16]
 800313a:	f423 6300 	bic.w	r3, r3, #2048	@ 0x800
 800313e:	613b      	str	r3, [r7, #16]
 8003140:	683b      	ldr	r3, [r7, #0]
 8003142:	695b      	ldr	r3, [r3, #20]
 8003144:	009b      	lsls	r3, r3, #2
 8003146:	693a      	ldr	r2, [r7, #16]
 8003148:	4313      	orrs	r3, r2
 800314a:	613b      	str	r3, [r7, #16]
 800314c:	683b      	ldr	r3, [r7, #0]
 800314e:	699b      	ldr	r3, [r3, #24]
 8003150:	009b      	lsls	r3, r3, #2
 8003152:	693a      	ldr	r2, [r7, #16]
 8003154:	4313      	orrs	r3, r2
 8003156:	613b      	str	r3, [r7, #16]
 8003158:	687b      	ldr	r3, [r7, #4]
 800315a:	693a      	ldr	r2, [r7, #16]
 800315c:	605a      	str	r2, [r3, #4]
 800315e:	687b      	ldr	r3, [r7, #4]
 8003160:	68fa      	ldr	r2, [r7, #12]
 8003162:	619a      	str	r2, [r3, #24]
 8003164:	683b      	ldr	r3, [r7, #0]
 8003166:	685a      	ldr	r2, [r3, #4]
 8003168:	687b      	ldr	r3, [r7, #4]
 800316a:	639a      	str	r2, [r3, #56]	@ 0x38
 800316c:	687b      	ldr	r3, [r7, #4]
 800316e:	697a      	ldr	r2, [r7, #20]
 8003170:	621a      	str	r2, [r3, #32]
 8003172:	bf00      	nop
 8003174:	371c      	adds	r7, #28
 8003176:	46bd      	mov	sp, r7
 8003178:	bc80      	pop	{r7}
 800317a:	4770      	bx	lr
 800317c:	40012c00 	.word	0x40012c00

08003180 <TIM_OC3_SetConfig>:
 8003180:	b480      	push	{r7}
 8003182:	b087      	sub	sp, #28
 8003184:	af00      	add	r7, sp, #0
 8003186:	6078      	str	r0, [r7, #4]
 8003188:	6039      	str	r1, [r7, #0]
 800318a:	687b      	ldr	r3, [r7, #4]
 800318c:	6a1b      	ldr	r3, [r3, #32]
 800318e:	617b      	str	r3, [r7, #20]
 8003190:	687b      	ldr	r3, [r7, #4]
 8003192:	6a1b      	ldr	r3, [r3, #32]
 8003194:	f423 7280 	bic.w	r2, r3, #256	@ 0x100
 8003198:	687b      	ldr	r3, [r7, #4]
 800319a:	621a      	str	r2, [r3, #32]
 800319c:	687b      	ldr	r3, [r7, #4]
 800319e:	685b      	ldr	r3, [r3, #4]
 80031a0:	613b      	str	r3, [r7, #16]
 80031a2:	687b      	ldr	r3, [r7, #4]
 80031a4:	69db      	ldr	r3, [r3, #28]
 80031a6:	60fb      	str	r3, [r7, #12]
 80031a8:	68fb      	ldr	r3, [r7, #12]
 80031aa:	f023 0370 	bic.w	r3, r3, #112	@ 0x70
 80031ae:	60fb      	str	r3, [r7, #12]
 80031b0:	68fb      	ldr	r3, [r7, #12]
 80031b2:	f023 0303 	bic.w	r3, r3, #3
 80031b6:	60fb      	str	r3, [r7, #12]
 80031b8:	683b      	ldr	r3, [r7, #0]
 80031ba:	681b      	ldr	r3, [r3, #0]
 80031bc:	68fa      	ldr	r2, [r7, #12]
 80031be:	4313      	orrs	r3, r2
 80031c0:	60fb      	str	r3, [r7, #12]
 80031c2:	697b      	ldr	r3, [r7, #20]
 80031c4:	f423 7300 	bic.w	r3, r3, #512	@ 0x200
 80031c8:	617b      	str	r3, [r7, #20]
 80031ca:	683b      	ldr	r3, [r7, #0]
 80031cc:	689b      	ldr	r3, [r3, #8]
 80031ce:	021b      	lsls	r3, r3, #8
 80031d0:	697a      	ldr	r2, [r7, #20]
 80031d2:	4313      	orrs	r3, r2
 80031d4:	617b      	str	r3, [r7, #20]
 80031d6:	687b      	ldr	r3, [r7, #4]
 80031d8:	4a1d      	ldr	r2, [pc, #116]	@ (8003250 <TIM_OC3_SetConfig+0xd0>)
 80031da:	4293      	cmp	r3, r2
 80031dc:	d10d      	bne.n	80031fa <TIM_OC3_SetConfig+0x7a>
 80031de:	697b      	ldr	r3, [r7, #20]
 80031e0:	f423 6300 	bic.w	r3, r3, #2048	@ 0x800
 80031e4:	617b      	str	r3, [r7, #20]
 80031e6:	683b      	ldr	r3, [r7, #0]
 80031e8:	68db      	ldr	r3, [r3, #12]
 80031ea:	021b      	lsls	r3, r3, #8
 80031ec:	697a      	ldr	r2, [r7, #20]
 80031ee:	4313      	orrs	r3, r2
 80031f0:	617b      	str	r3, [r7, #20]
 80031f2:	697b      	ldr	r3, [r7, #20]
 80031f4:	f423 6380 	bic.w	r3, r3, #1024	@ 0x400
 80031f8:	617b      	str	r3, [r7, #20]
 80031fa:	687b      	ldr	r3, [r7, #4]
 80031fc:	4a14      	ldr	r2, [pc, #80]	@ (8003250 <TIM_OC3_SetConfig+0xd0>)
 80031fe:	4293      	cmp	r3, r2
 8003200:	d113      	bne.n	800322a <TIM_OC3_SetConfig+0xaa>
 8003202:	693b      	ldr	r3, [r7, #16]
 8003204:	f423 5380 	bic.w	r3, r3, #4096	@ 0x1000
 8003208:	613b      	str	r3, [r7, #16]
 800320a:	693b      	ldr	r3, [r7, #16]
 800320c:	f423 5300 	bic.w	r3, r3, #8192	@ 0x2000
 8003210:	613b      	str	r3, [r7, #16]
 8003212:	683b      	ldr	r3, [r7, #0]
 8003214:	695b      	ldr	r3, [r3, #20]
 8003216:	011b      	lsls	r3, r3, #4
 8003218:	693a      	ldr	r2, [r7, #16]
 800321a:	4313      	orrs	r3, r2
 800321c:	613b      	str	r3, [r7, #16]
 800321e:	683b      	ldr	r3, [r7, #0]
 8003220:	699b      	ldr	r3, [r3, #24]
 8003222:	011b      	lsls	r3, r3, #4
 8003224:	693a      	ldr	r2, [r7, #16]
 8003226:	4313      	orrs	r3, r2
 8003228:	613b      	str	r3, [r7, #16]
 800322a:	687b      	ldr	r3, [r7, #4]
 800322c:	693a      	ldr	r2, [r7, #16]
 800322e:	605a      	str	r2, [r3, #4]
 8003230:	687b      	ldr	r3, [r7, #4]
 8003232:	68fa      	ldr	r2, [r7, #12]
 8003234:	61da      	str	r2, [r3, #28]
 8003236:	683b      	ldr	r3, [r7, #0]
 8003238:	685a      	ldr	r2, [r3, #4]
 800323a:	687b      	ldr	r3, [r7, #4]
 800323c:	63da      	str	r2, [r3, #60]	@ 0x3c
 800323e:	687b      	ldr	r3, [r7, #4]
 8003240:	697a      	ldr	r2, [r7, #20]
 8003242:	621a      	str	r2, [r3, #32]
 8003244:	bf00      	nop
 8003246:	371c      	adds	r7, #28
 8003248:	46bd      	mov	sp, r7
 800324a:	bc80      	pop	{r7}
 800324c:	4770      	bx	lr
 800324e:	bf00      	nop
 8003250:	40012c00 	.word	0x40012c00

08003254 <TIM_OC4_SetConfig>:
 8003254:	b480      	push	{r7}
 8003256:	b087      	sub	sp, #28
 8003258:	af00      	add	r7, sp, #0
 800325a:	6078      	str	r0, [r7, #4]
 800325c:	6039      	str	r1, [r7, #0]
 800325e:	687b      	ldr	r3, [r7, #4]
 8003260:	6a1b      	ldr	r3, [r3, #32]
 8003262:	613b      	str	r3, [r7, #16]
 8003264:	687b      	ldr	r3, [r7, #4]
 8003266:	6a1b      	ldr	r3, [r3, #32]
 8003268:	f423 5280 	bic.w	r2, r3, #4096	@ 0x1000
 800326c:	687b      	ldr	r3, [r7, #4]
 800326e:	621a      	str	r2, [r3, #32]
 8003270:	687b      	ldr	r3, [r7, #4]
 8003272:	685b      	ldr	r3, [r3, #4]
 8003274:	617b      	str	r3, [r7, #20]
 8003276:	687b      	ldr	r3, [r7, #4]
 8003278:	69db      	ldr	r3, [r3, #28]
 800327a:	60fb      	str	r3, [r7, #12]
 800327c:	68fb      	ldr	r3, [r7, #12]
 800327e:	f423 43e0 	bic.w	r3, r3, #28672	@ 0x7000
 8003282:	60fb      	str	r3, [r7, #12]
 8003284:	68fb      	ldr	r3, [r7, #12]
 8003286:	f423 7340 	bic.w	r3, r3, #768	@ 0x300
 800328a:	60fb      	str	r3, [r7, #12]
 800328c:	683b      	ldr	r3, [r7, #0]
 800328e:	681b      	ldr	r3, [r3, #0]
 8003290:	021b      	lsls	r3, r3, #8
 8003292:	68fa      	ldr	r2, [r7, #12]
 8003294:	4313      	orrs	r3, r2
 8003296:	60fb      	str	r3, [r7, #12]
 8003298:	693b      	ldr	r3, [r7, #16]
 800329a:	f423 5300 	bic.w	r3, r3, #8192	@ 0x2000
 800329e:	613b      	str	r3, [r7, #16]
 80032a0:	683b      	ldr	r3, [r7, #0]
 80032a2:	689b      	ldr	r3, [r3, #8]
 80032a4:	031b      	lsls	r3, r3, #12
 80032a6:	693a      	ldr	r2, [r7, #16]
 80032a8:	4313      	orrs	r3, r2
 80032aa:	613b      	str	r3, [r7, #16]
 80032ac:	687b      	ldr	r3, [r7, #4]
 80032ae:	4a0f      	ldr	r2, [pc, #60]	@ (80032ec <TIM_OC4_SetConfig+0x98>)
 80032b0:	4293      	cmp	r3, r2
 80032b2:	d109      	bne.n	80032c8 <TIM_OC4_SetConfig+0x74>
 80032b4:	697b      	ldr	r3, [r7, #20]
 80032b6:	f423 4380 	bic.w	r3, r3, #16384	@ 0x4000
 80032ba:	617b      	str	r3, [r7, #20]
 80032bc:	683b      	ldr	r3, [r7, #0]
 80032be:	695b      	ldr	r3, [r3, #20]
 80032c0:	019b      	lsls	r3, r3, #6
 80032c2:	697a      	ldr	r2, [r7, #20]
 80032c4:	4313      	orrs	r3, r2
 80032c6:	617b      	str	r3, [r7, #20]
 80032c8:	687b      	ldr	r3, [r7, #4]
 80032ca:	697a      	ldr	r2, [r7, #20]
 80032cc:	605a      	str	r2, [r3, #4]
 80032ce:	687b      	ldr	r3, [r7, #4]
 80032d0:	68fa      	ldr	r2, [r7, #12]
 80032d2:	61da      	str	r2, [r3, #28]
 80032d4:	683b      	ldr	r3, [r7, #0]
 80032d6:	685a      	ldr	r2, [r3, #4]
 80032d8:	687b      	ldr	r3, [r7, #4]
 80032da:	641a      	str	r2, [r3, #64]	@ 0x40
 80032dc:	687b      	ldr	r3, [r7, #4]
 80032de:	693a      	ldr	r2, [r7, #16]
 80032e0:	621a      	str	r2, [r3, #32]
 80032e2:	bf00      	nop
 80032e4:	371c      	adds	r7, #28
 80032e6:	46bd      	mov	sp, r7
 80032e8:	bc80      	pop	{r7}
 80032ea:	4770      	bx	lr
 80032ec:	40012c00 	.word	0x40012c00

080032f0 <TIM_TI1_ConfigInputStage>:
 80032f0:	b480      	push	{r7}
 80032f2:	b087      	sub	sp, #28
 80032f4:	af00      	add	r7, sp, #0
 80032f6:	60f8      	str	r0, [r7, #12]
 80032f8:	60b9      	str	r1, [r7, #8]
 80032fa:	607a      	str	r2, [r7, #4]
 80032fc:	68fb      	ldr	r3, [r7, #12]
 80032fe:	6a1b      	ldr	r3, [r3, #32]
 8003300:	617b      	str	r3, [r7, #20]
 8003302:	68fb      	ldr	r3, [r7, #12]
 8003304:	6a1b      	ldr	r3, [r3, #32]
 8003306:	f023 0201 	bic.w	r2, r3, #1
 800330a:	68fb      	ldr	r3, [r7, #12]
 800330c:	621a      	str	r2, [r3, #32]
 800330e:	68fb      	ldr	r3, [r7, #12]
 8003310:	699b      	ldr	r3, [r3, #24]
 8003312:	613b      	str	r3, [r7, #16]
 8003314:	693b      	ldr	r3, [r7, #16]
 8003316:	f023 03f0 	bic.w	r3, r3, #240	@ 0xf0
 800331a:	613b      	str	r3, [r7, #16]
 800331c:	687b      	ldr	r3, [r7, #4]
 800331e:	011b      	lsls	r3, r3, #4
 8003320:	693a      	ldr	r2, [r7, #16]
 8003322:	4313      	orrs	r3, r2
 8003324:	613b      	str	r3, [r7, #16]
 8003326:	697b      	ldr	r3, [r7, #20]
 8003328:	f023 030a 	bic.w	r3, r3, #10
 800332c:	617b      	str	r3, [r7, #20]
 800332e:	697a      	ldr	r2, [r7, #20]
 8003330:	68bb      	ldr	r3, [r7, #8]
 8003332:	4313      	orrs	r3, r2
 8003334:	617b      	str	r3, [r7, #20]
 8003336:	68fb      	ldr	r3, [r7, #12]
 8003338:	693a      	ldr	r2, [r7, #16]
 800333a:	619a      	str	r2, [r3, #24]
 800333c:	68fb      	ldr	r3, [r7, #12]
 800333e:	697a      	ldr	r2, [r7, #20]
 8003340:	621a      	str	r2, [r3, #32]
 8003342:	bf00      	nop
 8003344:	371c      	adds	r7, #28
 8003346:	46bd      	mov	sp, r7
 8003348:	bc80      	pop	{r7}
 800334a:	4770      	bx	lr

0800334c <TIM_TI2_ConfigInputStage>:
 800334c:	b480      	push	{r7}
 800334e:	b087      	sub	sp, #28
 8003350:	af00      	add	r7, sp, #0
 8003352:	60f8      	str	r0, [r7, #12]
 8003354:	60b9      	str	r1, [r7, #8]
 8003356:	607a      	str	r2, [r7, #4]
 8003358:	68fb      	ldr	r3, [r7, #12]
 800335a:	6a1b      	ldr	r3, [r3, #32]
 800335c:	617b      	str	r3, [r7, #20]
 800335e:	68fb      	ldr	r3, [r7, #12]
 8003360:	6a1b      	ldr	r3, [r3, #32]
 8003362:	f023 0210 	bic.w	r2, r3, #16
 8003366:	68fb      	ldr	r3, [r7, #12]
 8003368:	621a      	str	r2, [r3, #32]
 800336a:	68fb      	ldr	r3, [r7, #12]
 800336c:	699b      	ldr	r3, [r3, #24]
 800336e:	613b      	str	r3, [r7, #16]
 8003370:	693b      	ldr	r3, [r7, #16]
 8003372:	f423 4370 	bic.w	r3, r3, #61440	@ 0xf000
 8003376:	613b      	str	r3, [r7, #16]
 8003378:	687b      	ldr	r3, [r7, #4]
 800337a:	031b      	lsls	r3, r3, #12
 800337c:	693a      	ldr	r2, [r7, #16]
 800337e:	4313      	orrs	r3, r2
 8003380:	613b      	str	r3, [r7, #16]
 8003382:	697b      	ldr	r3, [r7, #20]
 8003384:	f023 03a0 	bic.w	r3, r3, #160	@ 0xa0
 8003388:	617b      	str	r3, [r7, #20]
 800338a:	68bb      	ldr	r3, [r7, #8]
 800338c:	011b      	lsls	r3, r3, #4
 800338e:	697a      	ldr	r2, [r7, #20]
 8003390:	4313      	orrs	r3, r2
 8003392:	617b      	str	r3, [r7, #20]
 8003394:	68fb      	ldr	r3, [r7, #12]
 8003396:	693a      	ldr	r2, [r7, #16]
 8003398:	619a      	str	r2, [r3, #24]
 800339a:	68fb      	ldr	r3, [r7, #12]
 800339c:	697a      	ldr	r2, [r7, #20]
 800339e:	621a      	str	r2, [r3, #32]
 80033a0:	bf00      	nop
 80033a2:	371c      	adds	r7, #28
 80033a4:	46bd      	mov	sp, r7
 80033a6:	bc80      	pop	{r7}
 80033a8:	4770      	bx	lr

080033aa <TIM_ITRx_SetConfig>:
 80033aa:	b480      	push	{r7}
 80033ac:	b085      	sub	sp, #20
 80033ae:	af00      	add	r7, sp, #0
 80033b0:	6078      	str	r0, [r7, #4]
 80033b2:	6039      	str	r1, [r7, #0]
 80033b4:	687b      	ldr	r3, [r7, #4]
 80033b6:	689b      	ldr	r3, [r3, #8]
 80033b8:	60fb      	str	r3, [r7, #12]
 80033ba:	68fb      	ldr	r3, [r7, #12]
 80033bc:	f023 0370 	bic.w	r3, r3, #112	@ 0x70
 80033c0:	60fb      	str	r3, [r7, #12]
 80033c2:	683a      	ldr	r2, [r7, #0]
 80033c4:	68fb      	ldr	r3, [r7, #12]
 80033c6:	4313      	orrs	r3, r2
 80033c8:	f043 0307 	orr.w	r3, r3, #7
 80033cc:	60fb      	str	r3, [r7, #12]
 80033ce:	687b      	ldr	r3, [r7, #4]
 80033d0:	68fa      	ldr	r2, [r7, #12]
 80033d2:	609a      	str	r2, [r3, #8]
 80033d4:	bf00      	nop
 80033d6:	3714      	adds	r7, #20
 80033d8:	46bd      	mov	sp, r7
 80033da:	bc80      	pop	{r7}
 80033dc:	4770      	bx	lr

080033de <TIM_ETR_SetConfig>:
 80033de:	b480      	push	{r7}
 80033e0:	b087      	sub	sp, #28
 80033e2:	af00      	add	r7, sp, #0
 80033e4:	60f8      	str	r0, [r7, #12]
 80033e6:	60b9      	str	r1, [r7, #8]
 80033e8:	607a      	str	r2, [r7, #4]
 80033ea:	603b      	str	r3, [r7, #0]
 80033ec:	68fb      	ldr	r3, [r7, #12]
 80033ee:	689b      	ldr	r3, [r3, #8]
 80033f0:	617b      	str	r3, [r7, #20]
 80033f2:	697b      	ldr	r3, [r7, #20]
 80033f4:	f423 437f 	bic.w	r3, r3, #65280	@ 0xff00
 80033f8:	617b      	str	r3, [r7, #20]
 80033fa:	683b      	ldr	r3, [r7, #0]
 80033fc:	021a      	lsls	r2, r3, #8
 80033fe:	687b      	ldr	r3, [r7, #4]
 8003400:	431a      	orrs	r2, r3
 8003402:	68bb      	ldr	r3, [r7, #8]
 8003404:	4313      	orrs	r3, r2
 8003406:	697a      	ldr	r2, [r7, #20]
 8003408:	4313      	orrs	r3, r2
 800340a:	617b      	str	r3, [r7, #20]
 800340c:	68fb      	ldr	r3, [r7, #12]
 800340e:	697a      	ldr	r2, [r7, #20]
 8003410:	609a      	str	r2, [r3, #8]
 8003412:	bf00      	nop
 8003414:	371c      	adds	r7, #28
 8003416:	46bd      	mov	sp, r7
 8003418:	bc80      	pop	{r7}
 800341a:	4770      	bx	lr

0800341c <TIM_CCxChannelCmd>:
 800341c:	b480      	push	{r7}
 800341e:	b087      	sub	sp, #28
 8003420:	af00      	add	r7, sp, #0
 8003422:	60f8      	str	r0, [r7, #12]
 8003424:	60b9      	str	r1, [r7, #8]
 8003426:	607a      	str	r2, [r7, #4]
 8003428:	68bb      	ldr	r3, [r7, #8]
 800342a:	f003 031f 	and.w	r3, r3, #31
 800342e:	2201      	movs	r2, #1
 8003430:	fa02 f303 	lsl.w	r3, r2, r3
 8003434:	617b      	str	r3, [r7, #20]
 8003436:	68fb      	ldr	r3, [r7, #12]
 8003438:	6a1a      	ldr	r2, [r3, #32]
 800343a:	697b      	ldr	r3, [r7, #20]
 800343c:	43db      	mvns	r3, r3
 800343e:	401a      	ands	r2, r3
 8003440:	68fb      	ldr	r3, [r7, #12]
 8003442:	621a      	str	r2, [r3, #32]
 8003444:	68fb      	ldr	r3, [r7, #12]
 8003446:	6a1a      	ldr	r2, [r3, #32]
 8003448:	68bb      	ldr	r3, [r7, #8]
 800344a:	f003 031f 	and.w	r3, r3, #31
 800344e:	6879      	ldr	r1, [r7, #4]
 8003450:	fa01 f303 	lsl.w	r3, r1, r3
 8003454:	431a      	orrs	r2, r3
 8003456:	68fb      	ldr	r3, [r7, #12]
 8003458:	621a      	str	r2, [r3, #32]
 800345a:	bf00      	nop
 800345c:	371c      	adds	r7, #28
 800345e:	46bd      	mov	sp, r7
 8003460:	bc80      	pop	{r7}
 8003462:	4770      	bx	lr

08003464 <HAL_TIMEx_MasterConfigSynchronization>:
 8003464:	b480      	push	{r7}
 8003466:	b085      	sub	sp, #20
 8003468:	af00      	add	r7, sp, #0
 800346a:	6078      	str	r0, [r7, #4]
 800346c:	6039      	str	r1, [r7, #0]
 800346e:	687b      	ldr	r3, [r7, #4]
 8003470:	f893 303c 	ldrb.w	r3, [r3, #60]	@ 0x3c
 8003474:	2b01      	cmp	r3, #1
 8003476:	d101      	bne.n	800347c <HAL_TIMEx_MasterConfigSynchronization+0x18>
 8003478:	2302      	movs	r3, #2
 800347a:	e046      	b.n	800350a <HAL_TIMEx_MasterConfigSynchronization+0xa6>
 800347c:	687b      	ldr	r3, [r7, #4]
 800347e:	2201      	movs	r2, #1
 8003480:	f883 203c 	strb.w	r2, [r3, #60]	@ 0x3c
 8003484:	687b      	ldr	r3, [r7, #4]
 8003486:	2202      	movs	r2, #2
 8003488:	f883 203d 	strb.w	r2, [r3, #61]	@ 0x3d
 800348c:	687b      	ldr	r3, [r7, #4]
 800348e:	681b      	ldr	r3, [r3, #0]
 8003490:	685b      	ldr	r3, [r3, #4]
 8003492:	60fb      	str	r3, [r7, #12]
 8003494:	687b      	ldr	r3, [r7, #4]
 8003496:	681b      	ldr	r3, [r3, #0]
 8003498:	689b      	ldr	r3, [r3, #8]
 800349a:	60bb      	str	r3, [r7, #8]
 800349c:	68fb      	ldr	r3, [r7, #12]
 800349e:	f023 0370 	bic.w	r3, r3, #112	@ 0x70
 80034a2:	60fb      	str	r3, [r7, #12]
 80034a4:	683b      	ldr	r3, [r7, #0]
 80034a6:	681b      	ldr	r3, [r3, #0]
 80034a8:	68fa      	ldr	r2, [r7, #12]
 80034aa:	4313      	orrs	r3, r2
 80034ac:	60fb      	str	r3, [r7, #12]
 80034ae:	687b      	ldr	r3, [r7, #4]
 80034b0:	681b      	ldr	r3, [r3, #0]
 80034b2:	68fa      	ldr	r2, [r7, #12]
 80034b4:	605a      	str	r2, [r3, #4]
 80034b6:	687b      	ldr	r3, [r7, #4]
 80034b8:	681b      	ldr	r3, [r3, #0]
 80034ba:	4a16      	ldr	r2, [pc, #88]	@ (8003514 <HAL_TIMEx_MasterConfigSynchronization+0xb0>)
 80034bc:	4293      	cmp	r3, r2
 80034be:	d00e      	beq.n	80034de <HAL_TIMEx_MasterConfigSynchronization+0x7a>
 80034c0:	687b      	ldr	r3, [r7, #4]
 80034c2:	681b      	ldr	r3, [r3, #0]
 80034c4:	f1b3 4f80 	cmp.w	r3, #1073741824	@ 0x40000000
 80034c8:	d009      	beq.n	80034de <HAL_TIMEx_MasterConfigSynchronization+0x7a>
 80034ca:	687b      	ldr	r3, [r7, #4]
 80034cc:	681b      	ldr	r3, [r3, #0]
 80034ce:	4a12      	ldr	r2, [pc, #72]	@ (8003518 <HAL_TIMEx_MasterConfigSynchronization+0xb4>)
 80034d0:	4293      	cmp	r3, r2
 80034d2:	d004      	beq.n	80034de <HAL_TIMEx_MasterConfigSynchronization+0x7a>
 80034d4:	687b      	ldr	r3, [r7, #4]
 80034d6:	681b      	ldr	r3, [r3, #0]
 80034d8:	4a10      	ldr	r2, [pc, #64]	@ (800351c <HAL_TIMEx_MasterConfigSynchronization+0xb8>)
 80034da:	4293      	cmp	r3, r2
 80034dc:	d10c      	bne.n	80034f8 <HAL_TIMEx_MasterConfigSynchronization+0x94>
 80034de:	68bb      	ldr	r3, [r7, #8]
 80034e0:	f023 0380 	bic.w	r3, r3, #128	@ 0x80
 80034e4:	60bb      	str	r3, [r7, #8]
 80034e6:	683b      	ldr	r3, [r7, #0]
 80034e8:	685b      	ldr	r3, [r3, #4]
 80034ea:	68ba      	ldr	r2, [r7, #8]
 80034ec:	4313      	orrs	r3, r2
 80034ee:	60bb      	str	r3, [r7, #8]
 80034f0:	687b      	ldr	r3, [r7, #4]
 80034f2:	681b      	ldr	r3, [r3, #0]
 80034f4:	68ba      	ldr	r2, [r7, #8]
 80034f6:	609a      	str	r2, [r3, #8]
 80034f8:	687b      	ldr	r3, [r7, #4]
 80034fa:	2201      	movs	r2, #1
 80034fc:	f883 203d 	strb.w	r2, [r3, #61]	@ 0x3d
 8003500:	687b      	ldr	r3, [r7, #4]
 8003502:	2200      	movs	r2, #0
 8003504:	f883 203c 	strb.w	r2, [r3, #60]	@ 0x3c
 8003508:	2300      	movs	r3, #0
 800350a:	4618      	mov	r0, r3
 800350c:	3714      	adds	r7, #20
 800350e:	46bd      	mov	sp, r7
 8003510:	bc80      	pop	{r7}
 8003512:	4770      	bx	lr
 8003514:	40012c00 	.word	0x40012c00
 8003518:	40000400 	.word	0x40000400
 800351c:	40000800 	.word	0x40000800

08003520 <HAL_TIMEx_CommutCallback>:
 8003520:	b480      	push	{r7}
 8003522:	b083      	sub	sp, #12
 8003524:	af00      	add	r7, sp, #0
 8003526:	6078      	str	r0, [r7, #4]
 8003528:	bf00      	nop
 800352a:	370c      	adds	r7, #12
 800352c:	46bd      	mov	sp, r7
 800352e:	bc80      	pop	{r7}
 8003530:	4770      	bx	lr

08003532 <HAL_TIMEx_BreakCallback>:
 8003532:	b480      	push	{r7}
 8003534:	b083      	sub	sp, #12
 8003536:	af00      	add	r7, sp, #0
 8003538:	6078      	str	r0, [r7, #4]
 800353a:	bf00      	nop
 800353c:	370c      	adds	r7, #12
 800353e:	46bd      	mov	sp, r7
 8003540:	bc80      	pop	{r7}
 8003542:	4770      	bx	lr

08003544 <HAL_HalfDuplex_Init>:
 8003544:	b580      	push	{r7, lr}
 8003546:	b082      	sub	sp, #8
 8003548:	af00      	add	r7, sp, #0
 800354a:	6078      	str	r0, [r7, #4]
 800354c:	687b      	ldr	r3, [r7, #4]
 800354e:	2b00      	cmp	r3, #0
 8003550:	d101      	bne.n	8003556 <HAL_HalfDuplex_Init+0x12>
 8003552:	2301      	movs	r3, #1
 8003554:	e04a      	b.n	80035ec <HAL_HalfDuplex_Init+0xa8>
 8003556:	687b      	ldr	r3, [r7, #4]
 8003558:	f893 3041 	ldrb.w	r3, [r3, #65]	@ 0x41
 800355c:	b2db      	uxtb	r3, r3
 800355e:	2b00      	cmp	r3, #0
 8003560:	d106      	bne.n	8003570 <HAL_HalfDuplex_Init+0x2c>
 8003562:	687b      	ldr	r3, [r7, #4]
 8003564:	2200      	movs	r2, #0
 8003566:	f883 2040 	strb.w	r2, [r3, #64]	@ 0x40
 800356a:	6878      	ldr	r0, [r7, #4]
 800356c:	f7fd ffb4 	bl	80014d8 <HAL_UART_MspInit>
 8003570:	687b      	ldr	r3, [r7, #4]
 8003572:	2224      	movs	r2, #36	@ 0x24
 8003574:	f883 2041 	strb.w	r2, [r3, #65]	@ 0x41
 8003578:	687b      	ldr	r3, [r7, #4]
 800357a:	681b      	ldr	r3, [r3, #0]
 800357c:	68da      	ldr	r2, [r3, #12]
 800357e:	687b      	ldr	r3, [r7, #4]
 8003580:	681b      	ldr	r3, [r3, #0]
 8003582:	f422 5200 	bic.w	r2, r2, #8192	@ 0x2000
 8003586:	60da      	str	r2, [r3, #12]
 8003588:	6878      	ldr	r0, [r7, #4]
 800358a:	f000 f979 	bl	8003880 <UART_SetConfig>
 800358e:	687b      	ldr	r3, [r7, #4]
 8003590:	681b      	ldr	r3, [r3, #0]
 8003592:	691a      	ldr	r2, [r3, #16]
 8003594:	687b      	ldr	r3, [r7, #4]
 8003596:	681b      	ldr	r3, [r3, #0]
 8003598:	f422 4290 	bic.w	r2, r2, #18432	@ 0x4800
 800359c:	611a      	str	r2, [r3, #16]
 800359e:	687b      	ldr	r3, [r7, #4]
 80035a0:	681b      	ldr	r3, [r3, #0]
 80035a2:	695a      	ldr	r2, [r3, #20]
 80035a4:	687b      	ldr	r3, [r7, #4]
 80035a6:	681b      	ldr	r3, [r3, #0]
 80035a8:	f022 0222 	bic.w	r2, r2, #34	@ 0x22
 80035ac:	615a      	str	r2, [r3, #20]
 80035ae:	687b      	ldr	r3, [r7, #4]
 80035b0:	681b      	ldr	r3, [r3, #0]
 80035b2:	695a      	ldr	r2, [r3, #20]
 80035b4:	687b      	ldr	r3, [r7, #4]
 80035b6:	681b      	ldr	r3, [r3, #0]
 80035b8:	f042 0208 	orr.w	r2, r2, #8
 80035bc:	615a      	str	r2, [r3, #20]
 80035be:	687b      	ldr	r3, [r7, #4]
 80035c0:	681b      	ldr	r3, [r3, #0]
 80035c2:	68da      	ldr	r2, [r3, #12]
 80035c4:	687b      	ldr	r3, [r7, #4]
 80035c6:	681b      	ldr	r3, [r3, #0]
 80035c8:	f442 5200 	orr.w	r2, r2, #8192	@ 0x2000
 80035cc:	60da      	str	r2, [r3, #12]
 80035ce:	687b      	ldr	r3, [r7, #4]
 80035d0:	2200      	movs	r2, #0
 80035d2:	645a      	str	r2, [r3, #68]	@ 0x44
 80035d4:	687b      	ldr	r3, [r7, #4]
 80035d6:	2220      	movs	r2, #32
 80035d8:	f883 2041 	strb.w	r2, [r3, #65]	@ 0x41
 80035dc:	687b      	ldr	r3, [r7, #4]
 80035de:	2220      	movs	r2, #32
 80035e0:	f883 2042 	strb.w	r2, [r3, #66]	@ 0x42
 80035e4:	687b      	ldr	r3, [r7, #4]
 80035e6:	2200      	movs	r2, #0
 80035e8:	635a      	str	r2, [r3, #52]	@ 0x34
 80035ea:	2300      	movs	r3, #0
 80035ec:	4618      	mov	r0, r3
 80035ee:	3708      	adds	r7, #8
 80035f0:	46bd      	mov	sp, r7
 80035f2:	bd80      	pop	{r7, pc}

080035f4 <HAL_UART_Transmit>:
 80035f4:	b580      	push	{r7, lr}
 80035f6:	b08a      	sub	sp, #40	@ 0x28
 80035f8:	af02      	add	r7, sp, #8
 80035fa:	60f8      	str	r0, [r7, #12]
 80035fc:	60b9      	str	r1, [r7, #8]
 80035fe:	603b      	str	r3, [r7, #0]
 8003600:	4613      	mov	r3, r2
 8003602:	80fb      	strh	r3, [r7, #6]
 8003604:	2300      	movs	r3, #0
 8003606:	617b      	str	r3, [r7, #20]
 8003608:	68fb      	ldr	r3, [r7, #12]
 800360a:	f893 3041 	ldrb.w	r3, [r3, #65]	@ 0x41
 800360e:	b2db      	uxtb	r3, r3
 8003610:	2b20      	cmp	r3, #32
 8003612:	d175      	bne.n	8003700 <HAL_UART_Transmit+0x10c>
 8003614:	68bb      	ldr	r3, [r7, #8]
 8003616:	2b00      	cmp	r3, #0
 8003618:	d002      	beq.n	8003620 <HAL_UART_Transmit+0x2c>
 800361a:	88fb      	ldrh	r3, [r7, #6]
 800361c:	2b00      	cmp	r3, #0
 800361e:	d101      	bne.n	8003624 <HAL_UART_Transmit+0x30>
 8003620:	2301      	movs	r3, #1
 8003622:	e06e      	b.n	8003702 <HAL_UART_Transmit+0x10e>
 8003624:	68fb      	ldr	r3, [r7, #12]
 8003626:	2200      	movs	r2, #0
 8003628:	645a      	str	r2, [r3, #68]	@ 0x44
 800362a:	68fb      	ldr	r3, [r7, #12]
 800362c:	2221      	movs	r2, #33	@ 0x21
 800362e:	f883 2041 	strb.w	r2, [r3, #65]	@ 0x41
 8003632:	f7fe f913 	bl	800185c <HAL_GetTick>
 8003636:	6178      	str	r0, [r7, #20]
 8003638:	68fb      	ldr	r3, [r7, #12]
 800363a:	88fa      	ldrh	r2, [r7, #6]
 800363c:	849a      	strh	r2, [r3, #36]	@ 0x24
 800363e:	68fb      	ldr	r3, [r7, #12]
 8003640:	88fa      	ldrh	r2, [r7, #6]
 8003642:	84da      	strh	r2, [r3, #38]	@ 0x26
 8003644:	68fb      	ldr	r3, [r7, #12]
 8003646:	689b      	ldr	r3, [r3, #8]
 8003648:	f5b3 5f80 	cmp.w	r3, #4096	@ 0x1000
 800364c:	d108      	bne.n	8003660 <HAL_UART_Transmit+0x6c>
 800364e:	68fb      	ldr	r3, [r7, #12]
 8003650:	691b      	ldr	r3, [r3, #16]
 8003652:	2b00      	cmp	r3, #0
 8003654:	d104      	bne.n	8003660 <HAL_UART_Transmit+0x6c>
 8003656:	2300      	movs	r3, #0
 8003658:	61fb      	str	r3, [r7, #28]
 800365a:	68bb      	ldr	r3, [r7, #8]
 800365c:	61bb      	str	r3, [r7, #24]
 800365e:	e003      	b.n	8003668 <HAL_UART_Transmit+0x74>
 8003660:	68bb      	ldr	r3, [r7, #8]
 8003662:	61fb      	str	r3, [r7, #28]
 8003664:	2300      	movs	r3, #0
 8003666:	61bb      	str	r3, [r7, #24]
 8003668:	e02e      	b.n	80036c8 <HAL_UART_Transmit+0xd4>
 800366a:	683b      	ldr	r3, [r7, #0]
 800366c:	9300      	str	r3, [sp, #0]
 800366e:	697b      	ldr	r3, [r7, #20]
 8003670:	2200      	movs	r2, #0
 8003672:	2180      	movs	r1, #128	@ 0x80
 8003674:	68f8      	ldr	r0, [r7, #12]
 8003676:	f000 f848 	bl	800370a <UART_WaitOnFlagUntilTimeout>
 800367a:	4603      	mov	r3, r0
 800367c:	2b00      	cmp	r3, #0
 800367e:	d005      	beq.n	800368c <HAL_UART_Transmit+0x98>
 8003680:	68fb      	ldr	r3, [r7, #12]
 8003682:	2220      	movs	r2, #32
 8003684:	f883 2041 	strb.w	r2, [r3, #65]	@ 0x41
 8003688:	2303      	movs	r3, #3
 800368a:	e03a      	b.n	8003702 <HAL_UART_Transmit+0x10e>
 800368c:	69fb      	ldr	r3, [r7, #28]
 800368e:	2b00      	cmp	r3, #0
 8003690:	d10b      	bne.n	80036aa <HAL_UART_Transmit+0xb6>
 8003692:	69bb      	ldr	r3, [r7, #24]
 8003694:	881b      	ldrh	r3, [r3, #0]
 8003696:	461a      	mov	r2, r3
 8003698:	68fb      	ldr	r3, [r7, #12]
 800369a:	681b      	ldr	r3, [r3, #0]
 800369c:	f3c2 0208 	ubfx	r2, r2, #0, #9
 80036a0:	605a      	str	r2, [r3, #4]
 80036a2:	69bb      	ldr	r3, [r7, #24]
 80036a4:	3302      	adds	r3, #2
 80036a6:	61bb      	str	r3, [r7, #24]
 80036a8:	e007      	b.n	80036ba <HAL_UART_Transmit+0xc6>
 80036aa:	69fb      	ldr	r3, [r7, #28]
 80036ac:	781a      	ldrb	r2, [r3, #0]
 80036ae:	68fb      	ldr	r3, [r7, #12]
 80036b0:	681b      	ldr	r3, [r3, #0]
 80036b2:	605a      	str	r2, [r3, #4]
 80036b4:	69fb      	ldr	r3, [r7, #28]
 80036b6:	3301      	adds	r3, #1
 80036b8:	61fb      	str	r3, [r7, #28]
 80036ba:	68fb      	ldr	r3, [r7, #12]
 80036bc:	8cdb      	ldrh	r3, [r3, #38]	@ 0x26
 80036be:	b29b      	uxth	r3, r3
 80036c0:	3b01      	subs	r3, #1
 80036c2:	b29a      	uxth	r2, r3
 80036c4:	68fb      	ldr	r3, [r7, #12]
 80036c6:	84da      	strh	r2, [r3, #38]	@ 0x26
 80036c8:	68fb      	ldr	r3, [r7, #12]
 80036ca:	8cdb      	ldrh	r3, [r3, #38]	@ 0x26
 80036cc:	b29b      	uxth	r3, r3
 80036ce:	2b00      	cmp	r3, #0
 80036d0:	d1cb      	bne.n	800366a <HAL_UART_Transmit+0x76>
 80036d2:	683b      	ldr	r3, [r7, #0]
 80036d4:	9300      	str	r3, [sp, #0]
 80036d6:	697b      	ldr	r3, [r7, #20]
 80036d8:	2200      	movs	r2, #0
 80036da:	2140      	movs	r1, #64	@ 0x40
 80036dc:	68f8      	ldr	r0, [r7, #12]
 80036de:	f000 f814 	bl	800370a <UART_WaitOnFlagUntilTimeout>
 80036e2:	4603      	mov	r3, r0
 80036e4:	2b00      	cmp	r3, #0
 80036e6:	d005      	beq.n	80036f4 <HAL_UART_Transmit+0x100>
 80036e8:	68fb      	ldr	r3, [r7, #12]
 80036ea:	2220      	movs	r2, #32
 80036ec:	f883 2041 	strb.w	r2, [r3, #65]	@ 0x41
 80036f0:	2303      	movs	r3, #3
 80036f2:	e006      	b.n	8003702 <HAL_UART_Transmit+0x10e>
 80036f4:	68fb      	ldr	r3, [r7, #12]
 80036f6:	2220      	movs	r2, #32
 80036f8:	f883 2041 	strb.w	r2, [r3, #65]	@ 0x41
 80036fc:	2300      	movs	r3, #0
 80036fe:	e000      	b.n	8003702 <HAL_UART_Transmit+0x10e>
 8003700:	2302      	movs	r3, #2
 8003702:	4618      	mov	r0, r3
 8003704:	3720      	adds	r7, #32
 8003706:	46bd      	mov	sp, r7
 8003708:	bd80      	pop	{r7, pc}

0800370a <UART_WaitOnFlagUntilTimeout>:
 800370a:	b580      	push	{r7, lr}
 800370c:	b086      	sub	sp, #24
 800370e:	af00      	add	r7, sp, #0
 8003710:	60f8      	str	r0, [r7, #12]
 8003712:	60b9      	str	r1, [r7, #8]
 8003714:	603b      	str	r3, [r7, #0]
 8003716:	4613      	mov	r3, r2
 8003718:	71fb      	strb	r3, [r7, #7]
 800371a:	e03b      	b.n	8003794 <UART_WaitOnFlagUntilTimeout+0x8a>
 800371c:	6a3b      	ldr	r3, [r7, #32]
 800371e:	f1b3 3fff 	cmp.w	r3, #4294967295	@ 0xffffffff
 8003722:	d037      	beq.n	8003794 <UART_WaitOnFlagUntilTimeout+0x8a>
 8003724:	f7fe f89a 	bl	800185c <HAL_GetTick>
 8003728:	4602      	mov	r2, r0
 800372a:	683b      	ldr	r3, [r7, #0]
 800372c:	1ad3      	subs	r3, r2, r3
 800372e:	6a3a      	ldr	r2, [r7, #32]
 8003730:	429a      	cmp	r2, r3
 8003732:	d302      	bcc.n	800373a <UART_WaitOnFlagUntilTimeout+0x30>
 8003734:	6a3b      	ldr	r3, [r7, #32]
 8003736:	2b00      	cmp	r3, #0
 8003738:	d101      	bne.n	800373e <UART_WaitOnFlagUntilTimeout+0x34>
 800373a:	2303      	movs	r3, #3
 800373c:	e03a      	b.n	80037b4 <UART_WaitOnFlagUntilTimeout+0xaa>
 800373e:	68fb      	ldr	r3, [r7, #12]
 8003740:	681b      	ldr	r3, [r3, #0]
 8003742:	68db      	ldr	r3, [r3, #12]
 8003744:	f003 0304 	and.w	r3, r3, #4
 8003748:	2b00      	cmp	r3, #0
 800374a:	d023      	beq.n	8003794 <UART_WaitOnFlagUntilTimeout+0x8a>
 800374c:	68bb      	ldr	r3, [r7, #8]
 800374e:	2b80      	cmp	r3, #128	@ 0x80
 8003750:	d020      	beq.n	8003794 <UART_WaitOnFlagUntilTimeout+0x8a>
 8003752:	68bb      	ldr	r3, [r7, #8]
 8003754:	2b40      	cmp	r3, #64	@ 0x40
 8003756:	d01d      	beq.n	8003794 <UART_WaitOnFlagUntilTimeout+0x8a>
 8003758:	68fb      	ldr	r3, [r7, #12]
 800375a:	681b      	ldr	r3, [r3, #0]
 800375c:	681b      	ldr	r3, [r3, #0]
 800375e:	f003 0308 	and.w	r3, r3, #8
 8003762:	2b08      	cmp	r3, #8
 8003764:	d116      	bne.n	8003794 <UART_WaitOnFlagUntilTimeout+0x8a>
 8003766:	2300      	movs	r3, #0
 8003768:	617b      	str	r3, [r7, #20]
 800376a:	68fb      	ldr	r3, [r7, #12]
 800376c:	681b      	ldr	r3, [r3, #0]
 800376e:	681b      	ldr	r3, [r3, #0]
 8003770:	617b      	str	r3, [r7, #20]
 8003772:	68fb      	ldr	r3, [r7, #12]
 8003774:	681b      	ldr	r3, [r3, #0]
 8003776:	685b      	ldr	r3, [r3, #4]
 8003778:	617b      	str	r3, [r7, #20]
 800377a:	697b      	ldr	r3, [r7, #20]
 800377c:	68f8      	ldr	r0, [r7, #12]
 800377e:	f000 f81d 	bl	80037bc <UART_EndRxTransfer>
 8003782:	68fb      	ldr	r3, [r7, #12]
 8003784:	2208      	movs	r2, #8
 8003786:	645a      	str	r2, [r3, #68]	@ 0x44
 8003788:	68fb      	ldr	r3, [r7, #12]
 800378a:	2200      	movs	r2, #0
 800378c:	f883 2040 	strb.w	r2, [r3, #64]	@ 0x40
 8003790:	2301      	movs	r3, #1
 8003792:	e00f      	b.n	80037b4 <UART_WaitOnFlagUntilTimeout+0xaa>
 8003794:	68fb      	ldr	r3, [r7, #12]
 8003796:	681b      	ldr	r3, [r3, #0]
 8003798:	681a      	ldr	r2, [r3, #0]
 800379a:	68bb      	ldr	r3, [r7, #8]
 800379c:	4013      	ands	r3, r2
 800379e:	68ba      	ldr	r2, [r7, #8]
 80037a0:	429a      	cmp	r2, r3
 80037a2:	bf0c      	ite	eq
 80037a4:	2301      	moveq	r3, #1
 80037a6:	2300      	movne	r3, #0
 80037a8:	b2db      	uxtb	r3, r3
 80037aa:	461a      	mov	r2, r3
 80037ac:	79fb      	ldrb	r3, [r7, #7]
 80037ae:	429a      	cmp	r2, r3
 80037b0:	d0b4      	beq.n	800371c <UART_WaitOnFlagUntilTimeout+0x12>
 80037b2:	2300      	movs	r3, #0
 80037b4:	4618      	mov	r0, r3
 80037b6:	3718      	adds	r7, #24
 80037b8:	46bd      	mov	sp, r7
 80037ba:	bd80      	pop	{r7, pc}

080037bc <UART_EndRxTransfer>:
 80037bc:	b480      	push	{r7}
 80037be:	b095      	sub	sp, #84	@ 0x54
 80037c0:	af00      	add	r7, sp, #0
 80037c2:	6078      	str	r0, [r7, #4]
 80037c4:	687b      	ldr	r3, [r7, #4]
 80037c6:	681b      	ldr	r3, [r3, #0]
 80037c8:	330c      	adds	r3, #12
 80037ca:	637b      	str	r3, [r7, #52]	@ 0x34
 80037cc:	6b7b      	ldr	r3, [r7, #52]	@ 0x34
 80037ce:	e853 3f00 	ldrex	r3, [r3]
 80037d2:	633b      	str	r3, [r7, #48]	@ 0x30
 80037d4:	6b3b      	ldr	r3, [r7, #48]	@ 0x30
 80037d6:	f423 7390 	bic.w	r3, r3, #288	@ 0x120
 80037da:	64fb      	str	r3, [r7, #76]	@ 0x4c
 80037dc:	687b      	ldr	r3, [r7, #4]
 80037de:	681b      	ldr	r3, [r3, #0]
 80037e0:	330c      	adds	r3, #12
 80037e2:	6cfa      	ldr	r2, [r7, #76]	@ 0x4c
 80037e4:	643a      	str	r2, [r7, #64]	@ 0x40
 80037e6:	63fb      	str	r3, [r7, #60]	@ 0x3c
 80037e8:	6bf9      	ldr	r1, [r7, #60]	@ 0x3c
 80037ea:	6c3a      	ldr	r2, [r7, #64]	@ 0x40
 80037ec:	e841 2300 	strex	r3, r2, [r1]
 80037f0:	63bb      	str	r3, [r7, #56]	@ 0x38
 80037f2:	6bbb      	ldr	r3, [r7, #56]	@ 0x38
 80037f4:	2b00      	cmp	r3, #0
 80037f6:	d1e5      	bne.n	80037c4 <UART_EndRxTransfer+0x8>
 80037f8:	687b      	ldr	r3, [r7, #4]
 80037fa:	681b      	ldr	r3, [r3, #0]
 80037fc:	3314      	adds	r3, #20
 80037fe:	623b      	str	r3, [r7, #32]
 8003800:	6a3b      	ldr	r3, [r7, #32]
 8003802:	e853 3f00 	ldrex	r3, [r3]
 8003806:	61fb      	str	r3, [r7, #28]
 8003808:	69fb      	ldr	r3, [r7, #28]
 800380a:	f023 0301 	bic.w	r3, r3, #1
 800380e:	64bb      	str	r3, [r7, #72]	@ 0x48
 8003810:	687b      	ldr	r3, [r7, #4]
 8003812:	681b      	ldr	r3, [r3, #0]
 8003814:	3314      	adds	r3, #20
 8003816:	6cba      	ldr	r2, [r7, #72]	@ 0x48
 8003818:	62fa      	str	r2, [r7, #44]	@ 0x2c
 800381a:	62bb      	str	r3, [r7, #40]	@ 0x28
 800381c:	6ab9      	ldr	r1, [r7, #40]	@ 0x28
 800381e:	6afa      	ldr	r2, [r7, #44]	@ 0x2c
 8003820:	e841 2300 	strex	r3, r2, [r1]
 8003824:	627b      	str	r3, [r7, #36]	@ 0x24
 8003826:	6a7b      	ldr	r3, [r7, #36]	@ 0x24
 8003828:	2b00      	cmp	r3, #0
 800382a:	d1e5      	bne.n	80037f8 <UART_EndRxTransfer+0x3c>
 800382c:	687b      	ldr	r3, [r7, #4]
 800382e:	6b1b      	ldr	r3, [r3, #48]	@ 0x30
 8003830:	2b01      	cmp	r3, #1
 8003832:	d119      	bne.n	8003868 <UART_EndRxTransfer+0xac>
 8003834:	687b      	ldr	r3, [r7, #4]
 8003836:	681b      	ldr	r3, [r3, #0]
 8003838:	330c      	adds	r3, #12
 800383a:	60fb      	str	r3, [r7, #12]
 800383c:	68fb      	ldr	r3, [r7, #12]
 800383e:	e853 3f00 	ldrex	r3, [r3]
 8003842:	60bb      	str	r3, [r7, #8]
 8003844:	68bb      	ldr	r3, [r7, #8]
 8003846:	f023 0310 	bic.w	r3, r3, #16
 800384a:	647b      	str	r3, [r7, #68]	@ 0x44
 800384c:	687b      	ldr	r3, [r7, #4]
 800384e:	681b      	ldr	r3, [r3, #0]
 8003850:	330c      	adds	r3, #12
 8003852:	6c7a      	ldr	r2, [r7, #68]	@ 0x44
 8003854:	61ba      	str	r2, [r7, #24]
 8003856:	617b      	str	r3, [r7, #20]
 8003858:	6979      	ldr	r1, [r7, #20]
 800385a:	69ba      	ldr	r2, [r7, #24]
 800385c:	e841 2300 	strex	r3, r2, [r1]
 8003860:	613b      	str	r3, [r7, #16]
 8003862:	693b      	ldr	r3, [r7, #16]
 8003864:	2b00      	cmp	r3, #0
 8003866:	d1e5      	bne.n	8003834 <UART_EndRxTransfer+0x78>
 8003868:	687b      	ldr	r3, [r7, #4]
 800386a:	2220      	movs	r2, #32
 800386c:	f883 2042 	strb.w	r2, [r3, #66]	@ 0x42
 8003870:	687b      	ldr	r3, [r7, #4]
 8003872:	2200      	movs	r2, #0
 8003874:	631a      	str	r2, [r3, #48]	@ 0x30
 8003876:	bf00      	nop
 8003878:	3754      	adds	r7, #84	@ 0x54
 800387a:	46bd      	mov	sp, r7
 800387c:	bc80      	pop	{r7}
 800387e:	4770      	bx	lr

08003880 <UART_SetConfig>:
 8003880:	b580      	push	{r7, lr}
 8003882:	b084      	sub	sp, #16
 8003884:	af00      	add	r7, sp, #0
 8003886:	6078      	str	r0, [r7, #4]
 8003888:	687b      	ldr	r3, [r7, #4]
 800388a:	681b      	ldr	r3, [r3, #0]
 800388c:	691b      	ldr	r3, [r3, #16]
 800388e:	f423 5140 	bic.w	r1, r3, #12288	@ 0x3000
 8003892:	687b      	ldr	r3, [r7, #4]
 8003894:	68da      	ldr	r2, [r3, #12]
 8003896:	687b      	ldr	r3, [r7, #4]
 8003898:	681b      	ldr	r3, [r3, #0]
 800389a:	430a      	orrs	r2, r1
 800389c:	611a      	str	r2, [r3, #16]
 800389e:	687b      	ldr	r3, [r7, #4]
 80038a0:	689a      	ldr	r2, [r3, #8]
 80038a2:	687b      	ldr	r3, [r7, #4]
 80038a4:	691b      	ldr	r3, [r3, #16]
 80038a6:	431a      	orrs	r2, r3
 80038a8:	687b      	ldr	r3, [r7, #4]
 80038aa:	695b      	ldr	r3, [r3, #20]
 80038ac:	4313      	orrs	r3, r2
 80038ae:	60bb      	str	r3, [r7, #8]
 80038b0:	687b      	ldr	r3, [r7, #4]
 80038b2:	681b      	ldr	r3, [r3, #0]
 80038b4:	68db      	ldr	r3, [r3, #12]
 80038b6:	f423 53b0 	bic.w	r3, r3, #5632	@ 0x1600
 80038ba:	f023 030c 	bic.w	r3, r3, #12
 80038be:	687a      	ldr	r2, [r7, #4]
 80038c0:	6812      	ldr	r2, [r2, #0]
 80038c2:	68b9      	ldr	r1, [r7, #8]
 80038c4:	430b      	orrs	r3, r1
 80038c6:	60d3      	str	r3, [r2, #12]
 80038c8:	687b      	ldr	r3, [r7, #4]
 80038ca:	681b      	ldr	r3, [r3, #0]
 80038cc:	695b      	ldr	r3, [r3, #20]
 80038ce:	f423 7140 	bic.w	r1, r3, #768	@ 0x300
 80038d2:	687b      	ldr	r3, [r7, #4]
 80038d4:	699a      	ldr	r2, [r3, #24]
 80038d6:	687b      	ldr	r3, [r7, #4]
 80038d8:	681b      	ldr	r3, [r3, #0]
 80038da:	430a      	orrs	r2, r1
 80038dc:	615a      	str	r2, [r3, #20]
 80038de:	687b      	ldr	r3, [r7, #4]
 80038e0:	681b      	ldr	r3, [r3, #0]
 80038e2:	4a2c      	ldr	r2, [pc, #176]	@ (8003994 <UART_SetConfig+0x114>)
 80038e4:	4293      	cmp	r3, r2
 80038e6:	d103      	bne.n	80038f0 <UART_SetConfig+0x70>
 80038e8:	f7fe fea0 	bl	800262c <HAL_RCC_GetPCLK2Freq>
 80038ec:	60f8      	str	r0, [r7, #12]
 80038ee:	e002      	b.n	80038f6 <UART_SetConfig+0x76>
 80038f0:	f7fe fe88 	bl	8002604 <HAL_RCC_GetPCLK1Freq>
 80038f4:	60f8      	str	r0, [r7, #12]
 80038f6:	68fa      	ldr	r2, [r7, #12]
 80038f8:	4613      	mov	r3, r2
 80038fa:	009b      	lsls	r3, r3, #2
 80038fc:	4413      	add	r3, r2
 80038fe:	009a      	lsls	r2, r3, #2
 8003900:	441a      	add	r2, r3
 8003902:	687b      	ldr	r3, [r7, #4]
 8003904:	685b      	ldr	r3, [r3, #4]
 8003906:	009b      	lsls	r3, r3, #2
 8003908:	fbb2 f3f3 	udiv	r3, r2, r3
 800390c:	4a22      	ldr	r2, [pc, #136]	@ (8003998 <UART_SetConfig+0x118>)
 800390e:	fba2 2303 	umull	r2, r3, r2, r3
 8003912:	095b      	lsrs	r3, r3, #5
 8003914:	0119      	lsls	r1, r3, #4
 8003916:	68fa      	ldr	r2, [r7, #12]
 8003918:	4613      	mov	r3, r2
 800391a:	009b      	lsls	r3, r3, #2
 800391c:	4413      	add	r3, r2
 800391e:	009a      	lsls	r2, r3, #2
 8003920:	441a      	add	r2, r3
 8003922:	687b      	ldr	r3, [r7, #4]
 8003924:	685b      	ldr	r3, [r3, #4]
 8003926:	009b      	lsls	r3, r3, #2
 8003928:	fbb2 f2f3 	udiv	r2, r2, r3
 800392c:	4b1a      	ldr	r3, [pc, #104]	@ (8003998 <UART_SetConfig+0x118>)
 800392e:	fba3 0302 	umull	r0, r3, r3, r2
 8003932:	095b      	lsrs	r3, r3, #5
 8003934:	2064      	movs	r0, #100	@ 0x64
 8003936:	fb00 f303 	mul.w	r3, r0, r3
 800393a:	1ad3      	subs	r3, r2, r3
 800393c:	011b      	lsls	r3, r3, #4
 800393e:	3332      	adds	r3, #50	@ 0x32
 8003940:	4a15      	ldr	r2, [pc, #84]	@ (8003998 <UART_SetConfig+0x118>)
 8003942:	fba2 2303 	umull	r2, r3, r2, r3
 8003946:	095b      	lsrs	r3, r3, #5
 8003948:	f003 03f0 	and.w	r3, r3, #240	@ 0xf0
 800394c:	4419      	add	r1, r3
 800394e:	68fa      	ldr	r2, [r7, #12]
 8003950:	4613      	mov	r3, r2
 8003952:	009b      	lsls	r3, r3, #2
 8003954:	4413      	add	r3, r2
 8003956:	009a      	lsls	r2, r3, #2
 8003958:	441a      	add	r2, r3
 800395a:	687b      	ldr	r3, [r7, #4]
 800395c:	685b      	ldr	r3, [r3, #4]
 800395e:	009b      	lsls	r3, r3, #2
 8003960:	fbb2 f2f3 	udiv	r2, r2, r3
 8003964:	4b0c      	ldr	r3, [pc, #48]	@ (8003998 <UART_SetConfig+0x118>)
 8003966:	fba3 0302 	umull	r0, r3, r3, r2
 800396a:	095b      	lsrs	r3, r3, #5
 800396c:	2064      	movs	r0, #100	@ 0x64
 800396e:	fb00 f303 	mul.w	r3, r0, r3
 8003972:	1ad3      	subs	r3, r2, r3
 8003974:	011b      	lsls	r3, r3, #4
 8003976:	3332      	adds	r3, #50	@ 0x32
 8003978:	4a07      	ldr	r2, [pc, #28]	@ (8003998 <UART_SetConfig+0x118>)
 800397a:	fba2 2303 	umull	r2, r3, r2, r3
 800397e:	095b      	lsrs	r3, r3, #5
 8003980:	f003 020f 	and.w	r2, r3, #15
 8003984:	687b      	ldr	r3, [r7, #4]
 8003986:	681b      	ldr	r3, [r3, #0]
 8003988:	440a      	add	r2, r1
 800398a:	609a      	str	r2, [r3, #8]
 800398c:	bf00      	nop
 800398e:	3710      	adds	r7, #16
 8003990:	46bd      	mov	sp, r7
 8003992:	bd80      	pop	{r7, pc}
 8003994:	40013800 	.word	0x40013800
 8003998:	51eb851f 	.word	0x51eb851f

0800399c <__cvt>:
 800399c:	2b00      	cmp	r3, #0
 800399e:	e92d 47f0 	stmdb	sp!, {r4, r5, r6, r7, r8, r9, sl, lr}
 80039a2:	461d      	mov	r5, r3
 80039a4:	bfbb      	ittet	lt
 80039a6:	f103 4300 	addlt.w	r3, r3, #2147483648	@ 0x80000000
 80039aa:	461d      	movlt	r5, r3
 80039ac:	2300      	movge	r3, #0
 80039ae:	232d      	movlt	r3, #45	@ 0x2d
 80039b0:	b088      	sub	sp, #32
 80039b2:	4614      	mov	r4, r2
 80039b4:	bfb8      	it	lt
 80039b6:	4614      	movlt	r4, r2
 80039b8:	9a12      	ldr	r2, [sp, #72]	@ 0x48
 80039ba:	9e10      	ldr	r6, [sp, #64]	@ 0x40
 80039bc:	7013      	strb	r3, [r2, #0]
 80039be:	9b14      	ldr	r3, [sp, #80]	@ 0x50
 80039c0:	f8dd a04c 	ldr.w	sl, [sp, #76]	@ 0x4c
 80039c4:	f023 0820 	bic.w	r8, r3, #32
 80039c8:	f1b8 0f46 	cmp.w	r8, #70	@ 0x46
 80039cc:	d005      	beq.n	80039da <__cvt+0x3e>
 80039ce:	f1b8 0f45 	cmp.w	r8, #69	@ 0x45
 80039d2:	d100      	bne.n	80039d6 <__cvt+0x3a>
 80039d4:	3601      	adds	r6, #1
 80039d6:	2302      	movs	r3, #2
 80039d8:	e000      	b.n	80039dc <__cvt+0x40>
 80039da:	2303      	movs	r3, #3
 80039dc:	aa07      	add	r2, sp, #28
 80039de:	9204      	str	r2, [sp, #16]
 80039e0:	aa06      	add	r2, sp, #24
 80039e2:	e9cd a202 	strd	sl, r2, [sp, #8]
 80039e6:	e9cd 3600 	strd	r3, r6, [sp]
 80039ea:	4622      	mov	r2, r4
 80039ec:	462b      	mov	r3, r5
 80039ee:	f000 fe67 	bl	80046c0 <_dtoa_r>
 80039f2:	f1b8 0f47 	cmp.w	r8, #71	@ 0x47
 80039f6:	4607      	mov	r7, r0
 80039f8:	d119      	bne.n	8003a2e <__cvt+0x92>
 80039fa:	9b11      	ldr	r3, [sp, #68]	@ 0x44
 80039fc:	07db      	lsls	r3, r3, #31
 80039fe:	d50e      	bpl.n	8003a1e <__cvt+0x82>
 8003a00:	eb00 0906 	add.w	r9, r0, r6
 8003a04:	2200      	movs	r2, #0
 8003a06:	2300      	movs	r3, #0
 8003a08:	4620      	mov	r0, r4
 8003a0a:	4629      	mov	r1, r5
 8003a0c:	f7fc ffcc 	bl	80009a8 <__aeabi_dcmpeq>
 8003a10:	b108      	cbz	r0, 8003a16 <__cvt+0x7a>
 8003a12:	f8cd 901c 	str.w	r9, [sp, #28]
 8003a16:	2230      	movs	r2, #48	@ 0x30
 8003a18:	9b07      	ldr	r3, [sp, #28]
 8003a1a:	454b      	cmp	r3, r9
 8003a1c:	d31e      	bcc.n	8003a5c <__cvt+0xc0>
 8003a1e:	4638      	mov	r0, r7
 8003a20:	9b07      	ldr	r3, [sp, #28]
 8003a22:	9a15      	ldr	r2, [sp, #84]	@ 0x54
 8003a24:	1bdb      	subs	r3, r3, r7
 8003a26:	6013      	str	r3, [r2, #0]
 8003a28:	b008      	add	sp, #32
 8003a2a:	e8bd 87f0 	ldmia.w	sp!, {r4, r5, r6, r7, r8, r9, sl, pc}
 8003a2e:	f1b8 0f46 	cmp.w	r8, #70	@ 0x46
 8003a32:	eb00 0906 	add.w	r9, r0, r6
 8003a36:	d1e5      	bne.n	8003a04 <__cvt+0x68>
 8003a38:	7803      	ldrb	r3, [r0, #0]
 8003a3a:	2b30      	cmp	r3, #48	@ 0x30
 8003a3c:	d10a      	bne.n	8003a54 <__cvt+0xb8>
 8003a3e:	2200      	movs	r2, #0
 8003a40:	2300      	movs	r3, #0
 8003a42:	4620      	mov	r0, r4
 8003a44:	4629      	mov	r1, r5
 8003a46:	f7fc ffaf 	bl	80009a8 <__aeabi_dcmpeq>
 8003a4a:	b918      	cbnz	r0, 8003a54 <__cvt+0xb8>
 8003a4c:	f1c6 0601 	rsb	r6, r6, #1
 8003a50:	f8ca 6000 	str.w	r6, [sl]
 8003a54:	f8da 3000 	ldr.w	r3, [sl]
 8003a58:	4499      	add	r9, r3
 8003a5a:	e7d3      	b.n	8003a04 <__cvt+0x68>
 8003a5c:	1c59      	adds	r1, r3, #1
 8003a5e:	9107      	str	r1, [sp, #28]
 8003a60:	701a      	strb	r2, [r3, #0]
 8003a62:	e7d9      	b.n	8003a18 <__cvt+0x7c>

08003a64 <__exponent>:
 8003a64:	b5f7      	push	{r0, r1, r2, r4, r5, r6, r7, lr}
 8003a66:	2900      	cmp	r1, #0
 8003a68:	bfb6      	itet	lt
 8003a6a:	232d      	movlt	r3, #45	@ 0x2d
 8003a6c:	232b      	movge	r3, #43	@ 0x2b
 8003a6e:	4249      	neglt	r1, r1
 8003a70:	2909      	cmp	r1, #9
 8003a72:	7002      	strb	r2, [r0, #0]
 8003a74:	7043      	strb	r3, [r0, #1]
 8003a76:	dd29      	ble.n	8003acc <__exponent+0x68>
 8003a78:	f10d 0407 	add.w	r4, sp, #7
 8003a7c:	4625      	mov	r5, r4
 8003a7e:	270a      	movs	r7, #10
 8003a80:	fbb1 f6f7 	udiv	r6, r1, r7
 8003a84:	4622      	mov	r2, r4
 8003a86:	fb07 1316 	mls	r3, r7, r6, r1
 8003a8a:	3330      	adds	r3, #48	@ 0x30
 8003a8c:	f802 3c01 	strb.w	r3, [r2, #-1]
 8003a90:	460b      	mov	r3, r1
 8003a92:	2b63      	cmp	r3, #99	@ 0x63
 8003a94:	4631      	mov	r1, r6
 8003a96:	f104 34ff 	add.w	r4, r4, #4294967295	@ 0xffffffff
 8003a9a:	dcf1      	bgt.n	8003a80 <__exponent+0x1c>
 8003a9c:	3130      	adds	r1, #48	@ 0x30
 8003a9e:	1e93      	subs	r3, r2, #2
 8003aa0:	f804 1c01 	strb.w	r1, [r4, #-1]
 8003aa4:	461c      	mov	r4, r3
 8003aa6:	1c41      	adds	r1, r0, #1
 8003aa8:	42ab      	cmp	r3, r5
 8003aaa:	d30a      	bcc.n	8003ac2 <__exponent+0x5e>
 8003aac:	f10d 0309 	add.w	r3, sp, #9
 8003ab0:	1a9b      	subs	r3, r3, r2
 8003ab2:	42a5      	cmp	r5, r4
 8003ab4:	bf38      	it	cc
 8003ab6:	2300      	movcc	r3, #0
 8003ab8:	1c82      	adds	r2, r0, #2
 8003aba:	4413      	add	r3, r2
 8003abc:	1a18      	subs	r0, r3, r0
 8003abe:	b003      	add	sp, #12
 8003ac0:	bdf0      	pop	{r4, r5, r6, r7, pc}
 8003ac2:	f813 6b01 	ldrb.w	r6, [r3], #1
 8003ac6:	f801 6f01 	strb.w	r6, [r1, #1]!
 8003aca:	e7ed      	b.n	8003aa8 <__exponent+0x44>
 8003acc:	2330      	movs	r3, #48	@ 0x30
 8003ace:	3130      	adds	r1, #48	@ 0x30
 8003ad0:	7083      	strb	r3, [r0, #2]
 8003ad2:	70c1      	strb	r1, [r0, #3]
 8003ad4:	1d03      	adds	r3, r0, #4
 8003ad6:	e7f1      	b.n	8003abc <__exponent+0x58>

08003ad8 <_printf_float>:
 8003ad8:	e92d 4ff0 	stmdb	sp!, {r4, r5, r6, r7, r8, r9, sl, fp, lr}
 8003adc:	b091      	sub	sp, #68	@ 0x44
 8003ade:	460c      	mov	r4, r1
 8003ae0:	f8dd 8068 	ldr.w	r8, [sp, #104]	@ 0x68
 8003ae4:	4616      	mov	r6, r2
 8003ae6:	461f      	mov	r7, r3
 8003ae8:	4605      	mov	r5, r0
 8003aea:	f000 fcdb 	bl	80044a4 <_localeconv_r>
 8003aee:	6803      	ldr	r3, [r0, #0]
 8003af0:	4618      	mov	r0, r3
 8003af2:	930a      	str	r3, [sp, #40]	@ 0x28
 8003af4:	f7fc fb2c 	bl	8000150 <strlen>
 8003af8:	2300      	movs	r3, #0
 8003afa:	930e      	str	r3, [sp, #56]	@ 0x38
 8003afc:	f8d8 3000 	ldr.w	r3, [r8]
 8003b00:	f894 a018 	ldrb.w	sl, [r4, #24]
 8003b04:	3307      	adds	r3, #7
 8003b06:	f023 0307 	bic.w	r3, r3, #7
 8003b0a:	e8f3 1202 	ldrd	r1, r2, [r3], #8
 8003b0e:	f8d4 b000 	ldr.w	fp, [r4]
 8003b12:	e9cd 1208 	strd	r1, r2, [sp, #32]
 8003b16:	f8c8 3000 	str.w	r3, [r8]
 8003b1a:	4613      	mov	r3, r2
 8003b1c:	460a      	mov	r2, r1
 8003b1e:	e9c4 2312 	strd	r2, r3, [r4, #72]	@ 0x48
 8003b22:	e9dd 8308 	ldrd	r8, r3, [sp, #32]
 8003b26:	f023 4900 	bic.w	r9, r3, #2147483648	@ 0x80000000
 8003b2a:	900b      	str	r0, [sp, #44]	@ 0x2c
 8003b2c:	f04f 32ff 	mov.w	r2, #4294967295	@ 0xffffffff
 8003b30:	4640      	mov	r0, r8
 8003b32:	4649      	mov	r1, r9
 8003b34:	4b9b      	ldr	r3, [pc, #620]	@ (8003da4 <_printf_float+0x2cc>)
 8003b36:	f7fc ff69 	bl	8000a0c <__aeabi_dcmpun>
 8003b3a:	bb70      	cbnz	r0, 8003b9a <_printf_float+0xc2>
 8003b3c:	f04f 32ff 	mov.w	r2, #4294967295	@ 0xffffffff
 8003b40:	4640      	mov	r0, r8
 8003b42:	4649      	mov	r1, r9
 8003b44:	4b97      	ldr	r3, [pc, #604]	@ (8003da4 <_printf_float+0x2cc>)
 8003b46:	f7fc ff43 	bl	80009d0 <__aeabi_dcmple>
 8003b4a:	bb30      	cbnz	r0, 8003b9a <_printf_float+0xc2>
 8003b4c:	e9dd 0108 	ldrd	r0, r1, [sp, #32]
 8003b50:	2200      	movs	r2, #0
 8003b52:	2300      	movs	r3, #0
 8003b54:	f7fc ff32 	bl	80009bc <__aeabi_dcmplt>
 8003b58:	b110      	cbz	r0, 8003b60 <_printf_float+0x88>
 8003b5a:	232d      	movs	r3, #45	@ 0x2d
 8003b5c:	f884 3043 	strb.w	r3, [r4, #67]	@ 0x43
 8003b60:	4a91      	ldr	r2, [pc, #580]	@ (8003da8 <_printf_float+0x2d0>)
 8003b62:	4b92      	ldr	r3, [pc, #584]	@ (8003dac <_printf_float+0x2d4>)
 8003b64:	f1ba 0f47 	cmp.w	sl, #71	@ 0x47
 8003b68:	bf8c      	ite	hi
 8003b6a:	4690      	movhi	r8, r2
 8003b6c:	4698      	movls	r8, r3
 8003b6e:	2303      	movs	r3, #3
 8003b70:	f04f 0900 	mov.w	r9, #0
 8003b74:	6123      	str	r3, [r4, #16]
 8003b76:	f02b 0304 	bic.w	r3, fp, #4
 8003b7a:	6023      	str	r3, [r4, #0]
 8003b7c:	4633      	mov	r3, r6
 8003b7e:	4621      	mov	r1, r4
 8003b80:	4628      	mov	r0, r5
 8003b82:	9700      	str	r7, [sp, #0]
 8003b84:	aa0f      	add	r2, sp, #60	@ 0x3c
 8003b86:	f000 f9d3 	bl	8003f30 <_printf_common>
 8003b8a:	3001      	adds	r0, #1
 8003b8c:	f040 808f 	bne.w	8003cae <_printf_float+0x1d6>
 8003b90:	f04f 30ff 	mov.w	r0, #4294967295	@ 0xffffffff
 8003b94:	b011      	add	sp, #68	@ 0x44
 8003b96:	e8bd 8ff0 	ldmia.w	sp!, {r4, r5, r6, r7, r8, r9, sl, fp, pc}
 8003b9a:	e9dd 2308 	ldrd	r2, r3, [sp, #32]
 8003b9e:	4610      	mov	r0, r2
 8003ba0:	4619      	mov	r1, r3
 8003ba2:	f7fc ff33 	bl	8000a0c <__aeabi_dcmpun>
 8003ba6:	b140      	cbz	r0, 8003bba <_printf_float+0xe2>
 8003ba8:	9b09      	ldr	r3, [sp, #36]	@ 0x24
 8003baa:	4a81      	ldr	r2, [pc, #516]	@ (8003db0 <_printf_float+0x2d8>)
 8003bac:	2b00      	cmp	r3, #0
 8003bae:	bfbc      	itt	lt
 8003bb0:	232d      	movlt	r3, #45	@ 0x2d
 8003bb2:	f884 3043 	strblt.w	r3, [r4, #67]	@ 0x43
 8003bb6:	4b7f      	ldr	r3, [pc, #508]	@ (8003db4 <_printf_float+0x2dc>)
 8003bb8:	e7d4      	b.n	8003b64 <_printf_float+0x8c>
 8003bba:	6863      	ldr	r3, [r4, #4]
 8003bbc:	f00a 09df 	and.w	r9, sl, #223	@ 0xdf
 8003bc0:	1c5a      	adds	r2, r3, #1
 8003bc2:	d13e      	bne.n	8003c42 <_printf_float+0x16a>
 8003bc4:	2306      	movs	r3, #6
 8003bc6:	6063      	str	r3, [r4, #4]
 8003bc8:	2200      	movs	r2, #0
 8003bca:	f44b 6380 	orr.w	r3, fp, #1024	@ 0x400
 8003bce:	6023      	str	r3, [r4, #0]
 8003bd0:	9206      	str	r2, [sp, #24]
 8003bd2:	aa0e      	add	r2, sp, #56	@ 0x38
 8003bd4:	e9cd a204 	strd	sl, r2, [sp, #16]
 8003bd8:	aa0d      	add	r2, sp, #52	@ 0x34
 8003bda:	9203      	str	r2, [sp, #12]
 8003bdc:	f10d 0233 	add.w	r2, sp, #51	@ 0x33
 8003be0:	e9cd 3201 	strd	r3, r2, [sp, #4]
 8003be4:	6863      	ldr	r3, [r4, #4]
 8003be6:	4628      	mov	r0, r5
 8003be8:	9300      	str	r3, [sp, #0]
 8003bea:	e9dd 2308 	ldrd	r2, r3, [sp, #32]
 8003bee:	f7ff fed5 	bl	800399c <__cvt>
 8003bf2:	f1b9 0f47 	cmp.w	r9, #71	@ 0x47
 8003bf6:	4680      	mov	r8, r0
 8003bf8:	990d      	ldr	r1, [sp, #52]	@ 0x34
 8003bfa:	d129      	bne.n	8003c50 <_printf_float+0x178>
 8003bfc:	1cc8      	adds	r0, r1, #3
 8003bfe:	db02      	blt.n	8003c06 <_printf_float+0x12e>
 8003c00:	6863      	ldr	r3, [r4, #4]
 8003c02:	428b      	cmp	r3, r1
 8003c04:	da41      	bge.n	8003c8a <_printf_float+0x1b2>
 8003c06:	f1aa 0a02 	sub.w	sl, sl, #2
 8003c0a:	fa5f fa8a 	uxtb.w	sl, sl
 8003c0e:	4652      	mov	r2, sl
 8003c10:	3901      	subs	r1, #1
 8003c12:	f104 0050 	add.w	r0, r4, #80	@ 0x50
 8003c16:	910d      	str	r1, [sp, #52]	@ 0x34
 8003c18:	f7ff ff24 	bl	8003a64 <__exponent>
 8003c1c:	9a0e      	ldr	r2, [sp, #56]	@ 0x38
 8003c1e:	4681      	mov	r9, r0
 8003c20:	1813      	adds	r3, r2, r0
 8003c22:	2a01      	cmp	r2, #1
 8003c24:	6123      	str	r3, [r4, #16]
 8003c26:	dc02      	bgt.n	8003c2e <_printf_float+0x156>
 8003c28:	6822      	ldr	r2, [r4, #0]
 8003c2a:	07d2      	lsls	r2, r2, #31
 8003c2c:	d501      	bpl.n	8003c32 <_printf_float+0x15a>
 8003c2e:	3301      	adds	r3, #1
 8003c30:	6123      	str	r3, [r4, #16]
 8003c32:	f89d 3033 	ldrb.w	r3, [sp, #51]	@ 0x33
 8003c36:	2b00      	cmp	r3, #0
 8003c38:	d0a0      	beq.n	8003b7c <_printf_float+0xa4>
 8003c3a:	232d      	movs	r3, #45	@ 0x2d
 8003c3c:	f884 3043 	strb.w	r3, [r4, #67]	@ 0x43
 8003c40:	e79c      	b.n	8003b7c <_printf_float+0xa4>
 8003c42:	f1b9 0f47 	cmp.w	r9, #71	@ 0x47
 8003c46:	d1bf      	bne.n	8003bc8 <_printf_float+0xf0>
 8003c48:	2b00      	cmp	r3, #0
 8003c4a:	d1bd      	bne.n	8003bc8 <_printf_float+0xf0>
 8003c4c:	2301      	movs	r3, #1
 8003c4e:	e7ba      	b.n	8003bc6 <_printf_float+0xee>
 8003c50:	f1ba 0f65 	cmp.w	sl, #101	@ 0x65
 8003c54:	d9db      	bls.n	8003c0e <_printf_float+0x136>
 8003c56:	f1ba 0f66 	cmp.w	sl, #102	@ 0x66
 8003c5a:	d118      	bne.n	8003c8e <_printf_float+0x1b6>
 8003c5c:	2900      	cmp	r1, #0
 8003c5e:	6863      	ldr	r3, [r4, #4]
 8003c60:	dd0b      	ble.n	8003c7a <_printf_float+0x1a2>
 8003c62:	6121      	str	r1, [r4, #16]
 8003c64:	b913      	cbnz	r3, 8003c6c <_printf_float+0x194>
 8003c66:	6822      	ldr	r2, [r4, #0]
 8003c68:	07d0      	lsls	r0, r2, #31
 8003c6a:	d502      	bpl.n	8003c72 <_printf_float+0x19a>
 8003c6c:	3301      	adds	r3, #1
 8003c6e:	440b      	add	r3, r1
 8003c70:	6123      	str	r3, [r4, #16]
 8003c72:	f04f 0900 	mov.w	r9, #0
 8003c76:	65a1      	str	r1, [r4, #88]	@ 0x58
 8003c78:	e7db      	b.n	8003c32 <_printf_float+0x15a>
 8003c7a:	b913      	cbnz	r3, 8003c82 <_printf_float+0x1aa>
 8003c7c:	6822      	ldr	r2, [r4, #0]
 8003c7e:	07d2      	lsls	r2, r2, #31
 8003c80:	d501      	bpl.n	8003c86 <_printf_float+0x1ae>
 8003c82:	3302      	adds	r3, #2
 8003c84:	e7f4      	b.n	8003c70 <_printf_float+0x198>
 8003c86:	2301      	movs	r3, #1
 8003c88:	e7f2      	b.n	8003c70 <_printf_float+0x198>
 8003c8a:	f04f 0a67 	mov.w	sl, #103	@ 0x67
 8003c8e:	9b0e      	ldr	r3, [sp, #56]	@ 0x38
 8003c90:	428b      	cmp	r3, r1
 8003c92:	dc05      	bgt.n	8003ca0 <_printf_float+0x1c8>
 8003c94:	6823      	ldr	r3, [r4, #0]
 8003c96:	6121      	str	r1, [r4, #16]
 8003c98:	07d8      	lsls	r0, r3, #31
 8003c9a:	d5ea      	bpl.n	8003c72 <_printf_float+0x19a>
 8003c9c:	1c4b      	adds	r3, r1, #1
 8003c9e:	e7e7      	b.n	8003c70 <_printf_float+0x198>
 8003ca0:	2900      	cmp	r1, #0
 8003ca2:	bfcc      	ite	gt
 8003ca4:	2201      	movgt	r2, #1
 8003ca6:	f1c1 0202 	rsble	r2, r1, #2
 8003caa:	4413      	add	r3, r2
 8003cac:	e7e0      	b.n	8003c70 <_printf_float+0x198>
 8003cae:	6823      	ldr	r3, [r4, #0]
 8003cb0:	055a      	lsls	r2, r3, #21
 8003cb2:	d407      	bmi.n	8003cc4 <_printf_float+0x1ec>
 8003cb4:	6923      	ldr	r3, [r4, #16]
 8003cb6:	4642      	mov	r2, r8
 8003cb8:	4631      	mov	r1, r6
 8003cba:	4628      	mov	r0, r5
 8003cbc:	47b8      	blx	r7
 8003cbe:	3001      	adds	r0, #1
 8003cc0:	d12b      	bne.n	8003d1a <_printf_float+0x242>
 8003cc2:	e765      	b.n	8003b90 <_printf_float+0xb8>
 8003cc4:	f1ba 0f65 	cmp.w	sl, #101	@ 0x65
 8003cc8:	f240 80dc 	bls.w	8003e84 <_printf_float+0x3ac>
 8003ccc:	e9d4 0112 	ldrd	r0, r1, [r4, #72]	@ 0x48
 8003cd0:	2200      	movs	r2, #0
 8003cd2:	2300      	movs	r3, #0
 8003cd4:	f7fc fe68 	bl	80009a8 <__aeabi_dcmpeq>
 8003cd8:	2800      	cmp	r0, #0
 8003cda:	d033      	beq.n	8003d44 <_printf_float+0x26c>
 8003cdc:	2301      	movs	r3, #1
 8003cde:	4631      	mov	r1, r6
 8003ce0:	4628      	mov	r0, r5
 8003ce2:	4a35      	ldr	r2, [pc, #212]	@ (8003db8 <_printf_float+0x2e0>)
 8003ce4:	47b8      	blx	r7
 8003ce6:	3001      	adds	r0, #1
 8003ce8:	f43f af52 	beq.w	8003b90 <_printf_float+0xb8>
 8003cec:	e9dd 380d 	ldrd	r3, r8, [sp, #52]	@ 0x34
 8003cf0:	4543      	cmp	r3, r8
 8003cf2:	db02      	blt.n	8003cfa <_printf_float+0x222>
 8003cf4:	6823      	ldr	r3, [r4, #0]
 8003cf6:	07d8      	lsls	r0, r3, #31
 8003cf8:	d50f      	bpl.n	8003d1a <_printf_float+0x242>
 8003cfa:	e9dd 230a 	ldrd	r2, r3, [sp, #40]	@ 0x28
 8003cfe:	4631      	mov	r1, r6
 8003d00:	4628      	mov	r0, r5
 8003d02:	47b8      	blx	r7
 8003d04:	3001      	adds	r0, #1
 8003d06:	f43f af43 	beq.w	8003b90 <_printf_float+0xb8>
 8003d0a:	f04f 0900 	mov.w	r9, #0
 8003d0e:	f108 38ff 	add.w	r8, r8, #4294967295	@ 0xffffffff
 8003d12:	f104 0a1a 	add.w	sl, r4, #26
 8003d16:	45c8      	cmp	r8, r9
 8003d18:	dc09      	bgt.n	8003d2e <_printf_float+0x256>
 8003d1a:	6823      	ldr	r3, [r4, #0]
 8003d1c:	079b      	lsls	r3, r3, #30
 8003d1e:	f100 8102 	bmi.w	8003f26 <_printf_float+0x44e>
 8003d22:	68e0      	ldr	r0, [r4, #12]
 8003d24:	9b0f      	ldr	r3, [sp, #60]	@ 0x3c
 8003d26:	4298      	cmp	r0, r3
 8003d28:	bfb8      	it	lt
 8003d2a:	4618      	movlt	r0, r3
 8003d2c:	e732      	b.n	8003b94 <_printf_float+0xbc>
 8003d2e:	2301      	movs	r3, #1
 8003d30:	4652      	mov	r2, sl
 8003d32:	4631      	mov	r1, r6
 8003d34:	4628      	mov	r0, r5
 8003d36:	47b8      	blx	r7
 8003d38:	3001      	adds	r0, #1
 8003d3a:	f43f af29 	beq.w	8003b90 <_printf_float+0xb8>
 8003d3e:	f109 0901 	add.w	r9, r9, #1
 8003d42:	e7e8      	b.n	8003d16 <_printf_float+0x23e>
 8003d44:	9b0d      	ldr	r3, [sp, #52]	@ 0x34
 8003d46:	2b00      	cmp	r3, #0
 8003d48:	dc38      	bgt.n	8003dbc <_printf_float+0x2e4>
 8003d4a:	2301      	movs	r3, #1
 8003d4c:	4631      	mov	r1, r6
 8003d4e:	4628      	mov	r0, r5
 8003d50:	4a19      	ldr	r2, [pc, #100]	@ (8003db8 <_printf_float+0x2e0>)
 8003d52:	47b8      	blx	r7
 8003d54:	3001      	adds	r0, #1
 8003d56:	f43f af1b 	beq.w	8003b90 <_printf_float+0xb8>
 8003d5a:	e9dd 390d 	ldrd	r3, r9, [sp, #52]	@ 0x34
 8003d5e:	ea59 0303 	orrs.w	r3, r9, r3
 8003d62:	d102      	bne.n	8003d6a <_printf_float+0x292>
 8003d64:	6823      	ldr	r3, [r4, #0]
 8003d66:	07d9      	lsls	r1, r3, #31
 8003d68:	d5d7      	bpl.n	8003d1a <_printf_float+0x242>
 8003d6a:	e9dd 230a 	ldrd	r2, r3, [sp, #40]	@ 0x28
 8003d6e:	4631      	mov	r1, r6
 8003d70:	4628      	mov	r0, r5
 8003d72:	47b8      	blx	r7
 8003d74:	3001      	adds	r0, #1
 8003d76:	f43f af0b 	beq.w	8003b90 <_printf_float+0xb8>
 8003d7a:	f04f 0a00 	mov.w	sl, #0
 8003d7e:	f104 0b1a 	add.w	fp, r4, #26
 8003d82:	9b0d      	ldr	r3, [sp, #52]	@ 0x34
 8003d84:	425b      	negs	r3, r3
 8003d86:	4553      	cmp	r3, sl
 8003d88:	dc01      	bgt.n	8003d8e <_printf_float+0x2b6>
 8003d8a:	464b      	mov	r3, r9
 8003d8c:	e793      	b.n	8003cb6 <_printf_float+0x1de>
 8003d8e:	2301      	movs	r3, #1
 8003d90:	465a      	mov	r2, fp
 8003d92:	4631      	mov	r1, r6
 8003d94:	4628      	mov	r0, r5
 8003d96:	47b8      	blx	r7
 8003d98:	3001      	adds	r0, #1
 8003d9a:	f43f aef9 	beq.w	8003b90 <_printf_float+0xb8>
 8003d9e:	f10a 0a01 	add.w	sl, sl, #1
 8003da2:	e7ee      	b.n	8003d82 <_printf_float+0x2aa>
 8003da4:	7fefffff 	.word	0x7fefffff
 8003da8:	0800636a 	.word	0x0800636a
 8003dac:	08006366 	.word	0x08006366
 8003db0:	08006372 	.word	0x08006372
 8003db4:	0800636e 	.word	0x0800636e
 8003db8:	08006376 	.word	0x08006376
 8003dbc:	6da3      	ldr	r3, [r4, #88]	@ 0x58
 8003dbe:	f8dd a038 	ldr.w	sl, [sp, #56]	@ 0x38
 8003dc2:	4553      	cmp	r3, sl
 8003dc4:	bfa8      	it	ge
 8003dc6:	4653      	movge	r3, sl
 8003dc8:	2b00      	cmp	r3, #0
 8003dca:	4699      	mov	r9, r3
 8003dcc:	dc36      	bgt.n	8003e3c <_printf_float+0x364>
 8003dce:	f04f 0b00 	mov.w	fp, #0
 8003dd2:	ea29 79e9 	bic.w	r9, r9, r9, asr #31
 8003dd6:	f104 021a 	add.w	r2, r4, #26
 8003dda:	6da3      	ldr	r3, [r4, #88]	@ 0x58
 8003ddc:	9308      	str	r3, [sp, #32]
 8003dde:	eba3 0309 	sub.w	r3, r3, r9
 8003de2:	455b      	cmp	r3, fp
 8003de4:	dc31      	bgt.n	8003e4a <_printf_float+0x372>
 8003de6:	9b0d      	ldr	r3, [sp, #52]	@ 0x34
 8003de8:	459a      	cmp	sl, r3
 8003dea:	dc3a      	bgt.n	8003e62 <_printf_float+0x38a>
 8003dec:	6823      	ldr	r3, [r4, #0]
 8003dee:	07da      	lsls	r2, r3, #31
 8003df0:	d437      	bmi.n	8003e62 <_printf_float+0x38a>
 8003df2:	9b0d      	ldr	r3, [sp, #52]	@ 0x34
 8003df4:	ebaa 0903 	sub.w	r9, sl, r3
 8003df8:	9b08      	ldr	r3, [sp, #32]
 8003dfa:	ebaa 0303 	sub.w	r3, sl, r3
 8003dfe:	4599      	cmp	r9, r3
 8003e00:	bfa8      	it	ge
 8003e02:	4699      	movge	r9, r3
 8003e04:	f1b9 0f00 	cmp.w	r9, #0
 8003e08:	dc33      	bgt.n	8003e72 <_printf_float+0x39a>
 8003e0a:	f04f 0800 	mov.w	r8, #0
 8003e0e:	ea29 79e9 	bic.w	r9, r9, r9, asr #31
 8003e12:	f104 0b1a 	add.w	fp, r4, #26
 8003e16:	9b0d      	ldr	r3, [sp, #52]	@ 0x34
 8003e18:	ebaa 0303 	sub.w	r3, sl, r3
 8003e1c:	eba3 0309 	sub.w	r3, r3, r9
 8003e20:	4543      	cmp	r3, r8
 8003e22:	f77f af7a 	ble.w	8003d1a <_printf_float+0x242>
 8003e26:	2301      	movs	r3, #1
 8003e28:	465a      	mov	r2, fp
 8003e2a:	4631      	mov	r1, r6
 8003e2c:	4628      	mov	r0, r5
 8003e2e:	47b8      	blx	r7
 8003e30:	3001      	adds	r0, #1
 8003e32:	f43f aead 	beq.w	8003b90 <_printf_float+0xb8>
 8003e36:	f108 0801 	add.w	r8, r8, #1
 8003e3a:	e7ec      	b.n	8003e16 <_printf_float+0x33e>
 8003e3c:	4642      	mov	r2, r8
 8003e3e:	4631      	mov	r1, r6
 8003e40:	4628      	mov	r0, r5
 8003e42:	47b8      	blx	r7
 8003e44:	3001      	adds	r0, #1
 8003e46:	d1c2      	bne.n	8003dce <_printf_float+0x2f6>
 8003e48:	e6a2      	b.n	8003b90 <_printf_float+0xb8>
 8003e4a:	2301      	movs	r3, #1
 8003e4c:	4631      	mov	r1, r6
 8003e4e:	4628      	mov	r0, r5
 8003e50:	9208      	str	r2, [sp, #32]
 8003e52:	47b8      	blx	r7
 8003e54:	3001      	adds	r0, #1
 8003e56:	f43f ae9b 	beq.w	8003b90 <_printf_float+0xb8>
 8003e5a:	9a08      	ldr	r2, [sp, #32]
 8003e5c:	f10b 0b01 	add.w	fp, fp, #1
 8003e60:	e7bb      	b.n	8003dda <_printf_float+0x302>
 8003e62:	4631      	mov	r1, r6
 8003e64:	e9dd 230a 	ldrd	r2, r3, [sp, #40]	@ 0x28
 8003e68:	4628      	mov	r0, r5
 8003e6a:	47b8      	blx	r7
 8003e6c:	3001      	adds	r0, #1
 8003e6e:	d1c0      	bne.n	8003df2 <_printf_float+0x31a>
 8003e70:	e68e      	b.n	8003b90 <_printf_float+0xb8>
 8003e72:	9a08      	ldr	r2, [sp, #32]
 8003e74:	464b      	mov	r3, r9
 8003e76:	4631      	mov	r1, r6
 8003e78:	4628      	mov	r0, r5
 8003e7a:	4442      	add	r2, r8
 8003e7c:	47b8      	blx	r7
 8003e7e:	3001      	adds	r0, #1
 8003e80:	d1c3      	bne.n	8003e0a <_printf_float+0x332>
 8003e82:	e685      	b.n	8003b90 <_printf_float+0xb8>
 8003e84:	f8dd a038 	ldr.w	sl, [sp, #56]	@ 0x38
 8003e88:	f1ba 0f01 	cmp.w	sl, #1
 8003e8c:	dc01      	bgt.n	8003e92 <_printf_float+0x3ba>
 8003e8e:	07db      	lsls	r3, r3, #31
 8003e90:	d536      	bpl.n	8003f00 <_printf_float+0x428>
 8003e92:	2301      	movs	r3, #1
 8003e94:	4642      	mov	r2, r8
 8003e96:	4631      	mov	r1, r6
 8003e98:	4628      	mov	r0, r5
 8003e9a:	47b8      	blx	r7
 8003e9c:	3001      	adds	r0, #1
 8003e9e:	f43f ae77 	beq.w	8003b90 <_printf_float+0xb8>
 8003ea2:	e9dd 230a 	ldrd	r2, r3, [sp, #40]	@ 0x28
 8003ea6:	4631      	mov	r1, r6
 8003ea8:	4628      	mov	r0, r5
 8003eaa:	47b8      	blx	r7
 8003eac:	3001      	adds	r0, #1
 8003eae:	f43f ae6f 	beq.w	8003b90 <_printf_float+0xb8>
 8003eb2:	e9d4 0112 	ldrd	r0, r1, [r4, #72]	@ 0x48
 8003eb6:	2200      	movs	r2, #0
 8003eb8:	2300      	movs	r3, #0
 8003eba:	f10a 3aff 	add.w	sl, sl, #4294967295	@ 0xffffffff
 8003ebe:	f7fc fd73 	bl	80009a8 <__aeabi_dcmpeq>
 8003ec2:	b9c0      	cbnz	r0, 8003ef6 <_printf_float+0x41e>
 8003ec4:	4653      	mov	r3, sl
 8003ec6:	f108 0201 	add.w	r2, r8, #1
 8003eca:	4631      	mov	r1, r6
 8003ecc:	4628      	mov	r0, r5
 8003ece:	47b8      	blx	r7
 8003ed0:	3001      	adds	r0, #1
 8003ed2:	d10c      	bne.n	8003eee <_printf_float+0x416>
 8003ed4:	e65c      	b.n	8003b90 <_printf_float+0xb8>
 8003ed6:	2301      	movs	r3, #1
 8003ed8:	465a      	mov	r2, fp
 8003eda:	4631      	mov	r1, r6
 8003edc:	4628      	mov	r0, r5
 8003ede:	47b8      	blx	r7
 8003ee0:	3001      	adds	r0, #1
 8003ee2:	f43f ae55 	beq.w	8003b90 <_printf_float+0xb8>
 8003ee6:	f108 0801 	add.w	r8, r8, #1
 8003eea:	45d0      	cmp	r8, sl
 8003eec:	dbf3      	blt.n	8003ed6 <_printf_float+0x3fe>
 8003eee:	464b      	mov	r3, r9
 8003ef0:	f104 0250 	add.w	r2, r4, #80	@ 0x50
 8003ef4:	e6e0      	b.n	8003cb8 <_printf_float+0x1e0>
 8003ef6:	f04f 0800 	mov.w	r8, #0
 8003efa:	f104 0b1a 	add.w	fp, r4, #26
 8003efe:	e7f4      	b.n	8003eea <_printf_float+0x412>
 8003f00:	2301      	movs	r3, #1
 8003f02:	4642      	mov	r2, r8
 8003f04:	e7e1      	b.n	8003eca <_printf_float+0x3f2>
 8003f06:	2301      	movs	r3, #1
 8003f08:	464a      	mov	r2, r9
 8003f0a:	4631      	mov	r1, r6
 8003f0c:	4628      	mov	r0, r5
 8003f0e:	47b8      	blx	r7
 8003f10:	3001      	adds	r0, #1
 8003f12:	f43f ae3d 	beq.w	8003b90 <_printf_float+0xb8>
 8003f16:	f108 0801 	add.w	r8, r8, #1
 8003f1a:	68e3      	ldr	r3, [r4, #12]
 8003f1c:	990f      	ldr	r1, [sp, #60]	@ 0x3c
 8003f1e:	1a5b      	subs	r3, r3, r1
 8003f20:	4543      	cmp	r3, r8
 8003f22:	dcf0      	bgt.n	8003f06 <_printf_float+0x42e>
 8003f24:	e6fd      	b.n	8003d22 <_printf_float+0x24a>
 8003f26:	f04f 0800 	mov.w	r8, #0
 8003f2a:	f104 0919 	add.w	r9, r4, #25
 8003f2e:	e7f4      	b.n	8003f1a <_printf_float+0x442>

08003f30 <_printf_common>:
 8003f30:	e92d 47f0 	stmdb	sp!, {r4, r5, r6, r7, r8, r9, sl, lr}
 8003f34:	4616      	mov	r6, r2
 8003f36:	4698      	mov	r8, r3
 8003f38:	688a      	ldr	r2, [r1, #8]
 8003f3a:	690b      	ldr	r3, [r1, #16]
 8003f3c:	4607      	mov	r7, r0
 8003f3e:	4293      	cmp	r3, r2
 8003f40:	bfb8      	it	lt
 8003f42:	4613      	movlt	r3, r2
 8003f44:	6033      	str	r3, [r6, #0]
 8003f46:	f891 2043 	ldrb.w	r2, [r1, #67]	@ 0x43
 8003f4a:	460c      	mov	r4, r1
 8003f4c:	f8dd 9020 	ldr.w	r9, [sp, #32]
 8003f50:	b10a      	cbz	r2, 8003f56 <_printf_common+0x26>
 8003f52:	3301      	adds	r3, #1
 8003f54:	6033      	str	r3, [r6, #0]
 8003f56:	6823      	ldr	r3, [r4, #0]
 8003f58:	0699      	lsls	r1, r3, #26
 8003f5a:	bf42      	ittt	mi
 8003f5c:	6833      	ldrmi	r3, [r6, #0]
 8003f5e:	3302      	addmi	r3, #2
 8003f60:	6033      	strmi	r3, [r6, #0]
 8003f62:	6825      	ldr	r5, [r4, #0]
 8003f64:	f015 0506 	ands.w	r5, r5, #6
 8003f68:	d106      	bne.n	8003f78 <_printf_common+0x48>
 8003f6a:	f104 0a19 	add.w	sl, r4, #25
 8003f6e:	68e3      	ldr	r3, [r4, #12]
 8003f70:	6832      	ldr	r2, [r6, #0]
 8003f72:	1a9b      	subs	r3, r3, r2
 8003f74:	42ab      	cmp	r3, r5
 8003f76:	dc2b      	bgt.n	8003fd0 <_printf_common+0xa0>
 8003f78:	f894 3043 	ldrb.w	r3, [r4, #67]	@ 0x43
 8003f7c:	6822      	ldr	r2, [r4, #0]
 8003f7e:	3b00      	subs	r3, #0
 8003f80:	bf18      	it	ne
 8003f82:	2301      	movne	r3, #1
 8003f84:	0692      	lsls	r2, r2, #26
 8003f86:	d430      	bmi.n	8003fea <_printf_common+0xba>
 8003f88:	4641      	mov	r1, r8
 8003f8a:	4638      	mov	r0, r7
 8003f8c:	f104 0243 	add.w	r2, r4, #67	@ 0x43
 8003f90:	47c8      	blx	r9
 8003f92:	3001      	adds	r0, #1
 8003f94:	d023      	beq.n	8003fde <_printf_common+0xae>
 8003f96:	6823      	ldr	r3, [r4, #0]
 8003f98:	6922      	ldr	r2, [r4, #16]
 8003f9a:	f003 0306 	and.w	r3, r3, #6
 8003f9e:	2b04      	cmp	r3, #4
 8003fa0:	bf14      	ite	ne
 8003fa2:	2500      	movne	r5, #0
 8003fa4:	6833      	ldreq	r3, [r6, #0]
 8003fa6:	f04f 0600 	mov.w	r6, #0
 8003faa:	bf08      	it	eq
 8003fac:	68e5      	ldreq	r5, [r4, #12]
 8003fae:	f104 041a 	add.w	r4, r4, #26
 8003fb2:	bf08      	it	eq
 8003fb4:	1aed      	subeq	r5, r5, r3
 8003fb6:	f854 3c12 	ldr.w	r3, [r4, #-18]
 8003fba:	bf08      	it	eq
 8003fbc:	ea25 75e5 	biceq.w	r5, r5, r5, asr #31
 8003fc0:	4293      	cmp	r3, r2
 8003fc2:	bfc4      	itt	gt
 8003fc4:	1a9b      	subgt	r3, r3, r2
 8003fc6:	18ed      	addgt	r5, r5, r3
 8003fc8:	42b5      	cmp	r5, r6
 8003fca:	d11a      	bne.n	8004002 <_printf_common+0xd2>
 8003fcc:	2000      	movs	r0, #0
 8003fce:	e008      	b.n	8003fe2 <_printf_common+0xb2>
 8003fd0:	2301      	movs	r3, #1
 8003fd2:	4652      	mov	r2, sl
 8003fd4:	4641      	mov	r1, r8
 8003fd6:	4638      	mov	r0, r7
 8003fd8:	47c8      	blx	r9
 8003fda:	3001      	adds	r0, #1
 8003fdc:	d103      	bne.n	8003fe6 <_printf_common+0xb6>
 8003fde:	f04f 30ff 	mov.w	r0, #4294967295	@ 0xffffffff
 8003fe2:	e8bd 87f0 	ldmia.w	sp!, {r4, r5, r6, r7, r8, r9, sl, pc}
 8003fe6:	3501      	adds	r5, #1
 8003fe8:	e7c1      	b.n	8003f6e <_printf_common+0x3e>
 8003fea:	2030      	movs	r0, #48	@ 0x30
 8003fec:	18e1      	adds	r1, r4, r3
 8003fee:	f881 0043 	strb.w	r0, [r1, #67]	@ 0x43
 8003ff2:	1c5a      	adds	r2, r3, #1
 8003ff4:	f894 1045 	ldrb.w	r1, [r4, #69]	@ 0x45
 8003ff8:	4422      	add	r2, r4
 8003ffa:	3302      	adds	r3, #2
 8003ffc:	f882 1043 	strb.w	r1, [r2, #67]	@ 0x43
 8004000:	e7c2      	b.n	8003f88 <_printf_common+0x58>
 8004002:	2301      	movs	r3, #1
 8004004:	4622      	mov	r2, r4
 8004006:	4641      	mov	r1, r8
 8004008:	4638      	mov	r0, r7
 800400a:	47c8      	blx	r9
 800400c:	3001      	adds	r0, #1
 800400e:	d0e6      	beq.n	8003fde <_printf_common+0xae>
 8004010:	3601      	adds	r6, #1
 8004012:	e7d9      	b.n	8003fc8 <_printf_common+0x98>

08004014 <_printf_i>:
 8004014:	e92d 43f0 	stmdb	sp!, {r4, r5, r6, r7, r8, r9, lr}
 8004018:	7e0d      	ldrb	r5, [r1, #24]
 800401a:	b085      	sub	sp, #20
 800401c:	2d78      	cmp	r5, #120	@ 0x78
 800401e:	4690      	mov	r8, r2
 8004020:	4607      	mov	r7, r0
 8004022:	460c      	mov	r4, r1
 8004024:	4699      	mov	r9, r3
 8004026:	9e0c      	ldr	r6, [sp, #48]	@ 0x30
 8004028:	f101 0243 	add.w	r2, r1, #67	@ 0x43
 800402c:	d807      	bhi.n	800403e <_printf_i+0x2a>
 800402e:	2d62      	cmp	r5, #98	@ 0x62
 8004030:	d80a      	bhi.n	8004048 <_printf_i+0x34>
 8004032:	2d00      	cmp	r5, #0
 8004034:	f000 80d7 	beq.w	80041e6 <_printf_i+0x1d2>
 8004038:	2d58      	cmp	r5, #88	@ 0x58
 800403a:	f000 80bc 	beq.w	80041b6 <_printf_i+0x1a2>
 800403e:	f104 0642 	add.w	r6, r4, #66	@ 0x42
 8004042:	f884 5042 	strb.w	r5, [r4, #66]	@ 0x42
 8004046:	e03b      	b.n	80040c0 <_printf_i+0xac>
 8004048:	f1a5 0363 	sub.w	r3, r5, #99	@ 0x63
 800404c:	2b15      	cmp	r3, #21
 800404e:	d8f6      	bhi.n	800403e <_printf_i+0x2a>
 8004050:	a101      	add	r1, pc, #4	@ (adr r1, 8004058 <_printf_i+0x44>)
 8004052:	f851 f023 	ldr.w	pc, [r1, r3, lsl #2]
 8004056:	bf00      	nop
 8004058:	080040b1 	.word	0x080040b1
 800405c:	080040c5 	.word	0x080040c5
 8004060:	0800403f 	.word	0x0800403f
 8004064:	0800403f 	.word	0x0800403f
 8004068:	0800403f 	.word	0x0800403f
 800406c:	0800403f 	.word	0x0800403f
 8004070:	080040c5 	.word	0x080040c5
 8004074:	0800403f 	.word	0x0800403f
 8004078:	0800403f 	.word	0x0800403f
 800407c:	0800403f 	.word	0x0800403f
 8004080:	0800403f 	.word	0x0800403f
 8004084:	080041cd 	.word	0x080041cd
 8004088:	080040ef 	.word	0x080040ef
 800408c:	0800417f 	.word	0x0800417f
 8004090:	0800403f 	.word	0x0800403f
 8004094:	0800403f 	.word	0x0800403f
 8004098:	080041ef 	.word	0x080041ef
 800409c:	0800403f 	.word	0x0800403f
 80040a0:	080040ef 	.word	0x080040ef
 80040a4:	0800403f 	.word	0x0800403f
 80040a8:	0800403f 	.word	0x0800403f
 80040ac:	08004187 	.word	0x08004187
 80040b0:	6833      	ldr	r3, [r6, #0]
 80040b2:	1d1a      	adds	r2, r3, #4
 80040b4:	681b      	ldr	r3, [r3, #0]
 80040b6:	6032      	str	r2, [r6, #0]
 80040b8:	f104 0642 	add.w	r6, r4, #66	@ 0x42
 80040bc:	f884 3042 	strb.w	r3, [r4, #66]	@ 0x42
 80040c0:	2301      	movs	r3, #1
 80040c2:	e0a1      	b.n	8004208 <_printf_i+0x1f4>
 80040c4:	6833      	ldr	r3, [r6, #0]
 80040c6:	6820      	ldr	r0, [r4, #0]
 80040c8:	1d19      	adds	r1, r3, #4
 80040ca:	6031      	str	r1, [r6, #0]
 80040cc:	0606      	lsls	r6, r0, #24
 80040ce:	d501      	bpl.n	80040d4 <_printf_i+0xc0>
 80040d0:	681d      	ldr	r5, [r3, #0]
 80040d2:	e003      	b.n	80040dc <_printf_i+0xc8>
 80040d4:	0645      	lsls	r5, r0, #25
 80040d6:	d5fb      	bpl.n	80040d0 <_printf_i+0xbc>
 80040d8:	f9b3 5000 	ldrsh.w	r5, [r3]
 80040dc:	2d00      	cmp	r5, #0
 80040de:	da03      	bge.n	80040e8 <_printf_i+0xd4>
 80040e0:	232d      	movs	r3, #45	@ 0x2d
 80040e2:	426d      	negs	r5, r5
 80040e4:	f884 3043 	strb.w	r3, [r4, #67]	@ 0x43
 80040e8:	230a      	movs	r3, #10
 80040ea:	485b      	ldr	r0, [pc, #364]	@ (8004258 <_printf_i+0x244>)
 80040ec:	e011      	b.n	8004112 <_printf_i+0xfe>
 80040ee:	6821      	ldr	r1, [r4, #0]
 80040f0:	6833      	ldr	r3, [r6, #0]
 80040f2:	0608      	lsls	r0, r1, #24
 80040f4:	f853 5b04 	ldr.w	r5, [r3], #4
 80040f8:	d402      	bmi.n	8004100 <_printf_i+0xec>
 80040fa:	0649      	lsls	r1, r1, #25
 80040fc:	bf48      	it	mi
 80040fe:	b2ad      	uxthmi	r5, r5
 8004100:	6033      	str	r3, [r6, #0]
 8004102:	7e23      	ldrb	r3, [r4, #24]
 8004104:	4854      	ldr	r0, [pc, #336]	@ (8004258 <_printf_i+0x244>)
 8004106:	2b6f      	cmp	r3, #111	@ 0x6f
 8004108:	d15c      	bne.n	80041c4 <_printf_i+0x1b0>
 800410a:	2308      	movs	r3, #8
 800410c:	2100      	movs	r1, #0
 800410e:	f884 1043 	strb.w	r1, [r4, #67]	@ 0x43
 8004112:	6866      	ldr	r6, [r4, #4]
 8004114:	2e00      	cmp	r6, #0
 8004116:	60a6      	str	r6, [r4, #8]
 8004118:	db05      	blt.n	8004126 <_printf_i+0x112>
 800411a:	6821      	ldr	r1, [r4, #0]
 800411c:	432e      	orrs	r6, r5
 800411e:	f021 0104 	bic.w	r1, r1, #4
 8004122:	6021      	str	r1, [r4, #0]
 8004124:	d050      	beq.n	80041c8 <_printf_i+0x1b4>
 8004126:	4616      	mov	r6, r2
 8004128:	fbb5 f1f3 	udiv	r1, r5, r3
 800412c:	fb03 5c11 	mls	ip, r3, r1, r5
 8004130:	f810 c00c 	ldrb.w	ip, [r0, ip]
 8004134:	f806 cd01 	strb.w	ip, [r6, #-1]!
 8004138:	46ac      	mov	ip, r5
 800413a:	4563      	cmp	r3, ip
 800413c:	460d      	mov	r5, r1
 800413e:	d9f3      	bls.n	8004128 <_printf_i+0x114>
 8004140:	2b08      	cmp	r3, #8
 8004142:	d10b      	bne.n	800415c <_printf_i+0x148>
 8004144:	6823      	ldr	r3, [r4, #0]
 8004146:	07db      	lsls	r3, r3, #31
 8004148:	d508      	bpl.n	800415c <_printf_i+0x148>
 800414a:	6923      	ldr	r3, [r4, #16]
 800414c:	6861      	ldr	r1, [r4, #4]
 800414e:	4299      	cmp	r1, r3
 8004150:	bfde      	ittt	le
 8004152:	2330      	movle	r3, #48	@ 0x30
 8004154:	f806 3c01 	strble.w	r3, [r6, #-1]
 8004158:	f106 36ff 	addle.w	r6, r6, #4294967295	@ 0xffffffff
 800415c:	1b92      	subs	r2, r2, r6
 800415e:	6122      	str	r2, [r4, #16]
 8004160:	4643      	mov	r3, r8
 8004162:	4621      	mov	r1, r4
 8004164:	4638      	mov	r0, r7
 8004166:	f8cd 9000 	str.w	r9, [sp]
 800416a:	aa03      	add	r2, sp, #12
 800416c:	f7ff fee0 	bl	8003f30 <_printf_common>
 8004170:	3001      	adds	r0, #1
 8004172:	d14e      	bne.n	8004212 <_printf_i+0x1fe>
 8004174:	f04f 30ff 	mov.w	r0, #4294967295	@ 0xffffffff
 8004178:	b005      	add	sp, #20
 800417a:	e8bd 83f0 	ldmia.w	sp!, {r4, r5, r6, r7, r8, r9, pc}
 800417e:	6823      	ldr	r3, [r4, #0]
 8004180:	f043 0320 	orr.w	r3, r3, #32
 8004184:	6023      	str	r3, [r4, #0]
 8004186:	2578      	movs	r5, #120	@ 0x78
 8004188:	4834      	ldr	r0, [pc, #208]	@ (800425c <_printf_i+0x248>)
 800418a:	f884 5045 	strb.w	r5, [r4, #69]	@ 0x45
 800418e:	6823      	ldr	r3, [r4, #0]
 8004190:	6831      	ldr	r1, [r6, #0]
 8004192:	f013 0f80 	tst.w	r3, #128	@ 0x80
 8004196:	f851 5b04 	ldr.w	r5, [r1], #4
 800419a:	d103      	bne.n	80041a4 <_printf_i+0x190>
 800419c:	f013 0f40 	tst.w	r3, #64	@ 0x40
 80041a0:	bf18      	it	ne
 80041a2:	b2ad      	uxthne	r5, r5
 80041a4:	6031      	str	r1, [r6, #0]
 80041a6:	07d9      	lsls	r1, r3, #31
 80041a8:	bf44      	itt	mi
 80041aa:	f043 0320 	orrmi.w	r3, r3, #32
 80041ae:	6023      	strmi	r3, [r4, #0]
 80041b0:	b11d      	cbz	r5, 80041ba <_printf_i+0x1a6>
 80041b2:	2310      	movs	r3, #16
 80041b4:	e7aa      	b.n	800410c <_printf_i+0xf8>
 80041b6:	4828      	ldr	r0, [pc, #160]	@ (8004258 <_printf_i+0x244>)
 80041b8:	e7e7      	b.n	800418a <_printf_i+0x176>
 80041ba:	6823      	ldr	r3, [r4, #0]
 80041bc:	f023 0320 	bic.w	r3, r3, #32
 80041c0:	6023      	str	r3, [r4, #0]
 80041c2:	e7f6      	b.n	80041b2 <_printf_i+0x19e>
 80041c4:	230a      	movs	r3, #10
 80041c6:	e7a1      	b.n	800410c <_printf_i+0xf8>
 80041c8:	4616      	mov	r6, r2
 80041ca:	e7b9      	b.n	8004140 <_printf_i+0x12c>
 80041cc:	6833      	ldr	r3, [r6, #0]
 80041ce:	6825      	ldr	r5, [r4, #0]
 80041d0:	1d18      	adds	r0, r3, #4
 80041d2:	6961      	ldr	r1, [r4, #20]
 80041d4:	6030      	str	r0, [r6, #0]
 80041d6:	062e      	lsls	r6, r5, #24
 80041d8:	681b      	ldr	r3, [r3, #0]
 80041da:	d501      	bpl.n	80041e0 <_printf_i+0x1cc>
 80041dc:	6019      	str	r1, [r3, #0]
 80041de:	e002      	b.n	80041e6 <_printf_i+0x1d2>
 80041e0:	0668      	lsls	r0, r5, #25
 80041e2:	d5fb      	bpl.n	80041dc <_printf_i+0x1c8>
 80041e4:	8019      	strh	r1, [r3, #0]
 80041e6:	2300      	movs	r3, #0
 80041e8:	4616      	mov	r6, r2
 80041ea:	6123      	str	r3, [r4, #16]
 80041ec:	e7b8      	b.n	8004160 <_printf_i+0x14c>
 80041ee:	6833      	ldr	r3, [r6, #0]
 80041f0:	2100      	movs	r1, #0
 80041f2:	1d1a      	adds	r2, r3, #4
 80041f4:	6032      	str	r2, [r6, #0]
 80041f6:	681e      	ldr	r6, [r3, #0]
 80041f8:	6862      	ldr	r2, [r4, #4]
 80041fa:	4630      	mov	r0, r6
 80041fc:	f000 f9c9 	bl	8004592 <memchr>
 8004200:	b108      	cbz	r0, 8004206 <_printf_i+0x1f2>
 8004202:	1b80      	subs	r0, r0, r6
 8004204:	6060      	str	r0, [r4, #4]
 8004206:	6863      	ldr	r3, [r4, #4]
 8004208:	6123      	str	r3, [r4, #16]
 800420a:	2300      	movs	r3, #0
 800420c:	f884 3043 	strb.w	r3, [r4, #67]	@ 0x43
 8004210:	e7a6      	b.n	8004160 <_printf_i+0x14c>
 8004212:	4632      	mov	r2, r6
 8004214:	4641      	mov	r1, r8
 8004216:	4638      	mov	r0, r7
 8004218:	6923      	ldr	r3, [r4, #16]
 800421a:	47c8      	blx	r9
 800421c:	3001      	adds	r0, #1
 800421e:	d0a9      	beq.n	8004174 <_printf_i+0x160>
 8004220:	6823      	ldr	r3, [r4, #0]
 8004222:	079b      	lsls	r3, r3, #30
 8004224:	d413      	bmi.n	800424e <_printf_i+0x23a>
 8004226:	68e0      	ldr	r0, [r4, #12]
 8004228:	9b03      	ldr	r3, [sp, #12]
 800422a:	4298      	cmp	r0, r3
 800422c:	bfb8      	it	lt
 800422e:	4618      	movlt	r0, r3
 8004230:	e7a2      	b.n	8004178 <_printf_i+0x164>
 8004232:	2301      	movs	r3, #1
 8004234:	4632      	mov	r2, r6
 8004236:	4641      	mov	r1, r8
 8004238:	4638      	mov	r0, r7
 800423a:	47c8      	blx	r9
 800423c:	3001      	adds	r0, #1
 800423e:	d099      	beq.n	8004174 <_printf_i+0x160>
 8004240:	3501      	adds	r5, #1
 8004242:	68e3      	ldr	r3, [r4, #12]
 8004244:	9903      	ldr	r1, [sp, #12]
 8004246:	1a5b      	subs	r3, r3, r1
 8004248:	42ab      	cmp	r3, r5
 800424a:	dcf2      	bgt.n	8004232 <_printf_i+0x21e>
 800424c:	e7eb      	b.n	8004226 <_printf_i+0x212>
 800424e:	2500      	movs	r5, #0
 8004250:	f104 0619 	add.w	r6, r4, #25
 8004254:	e7f5      	b.n	8004242 <_printf_i+0x22e>
 8004256:	bf00      	nop
 8004258:	08006378 	.word	0x08006378
 800425c:	08006389 	.word	0x08006389

08004260 <std>:
 8004260:	2300      	movs	r3, #0
 8004262:	b510      	push	{r4, lr}
 8004264:	4604      	mov	r4, r0
 8004266:	e9c0 3300 	strd	r3, r3, [r0]
 800426a:	e9c0 3304 	strd	r3, r3, [r0, #16]
 800426e:	6083      	str	r3, [r0, #8]
 8004270:	8181      	strh	r1, [r0, #12]
 8004272:	6643      	str	r3, [r0, #100]	@ 0x64
 8004274:	81c2      	strh	r2, [r0, #14]
 8004276:	6183      	str	r3, [r0, #24]
 8004278:	4619      	mov	r1, r3
 800427a:	2208      	movs	r2, #8
 800427c:	305c      	adds	r0, #92	@ 0x5c
 800427e:	f000 f909 	bl	8004494 <memset>
 8004282:	4b0d      	ldr	r3, [pc, #52]	@ (80042b8 <std+0x58>)
 8004284:	6224      	str	r4, [r4, #32]
 8004286:	6263      	str	r3, [r4, #36]	@ 0x24
 8004288:	4b0c      	ldr	r3, [pc, #48]	@ (80042bc <std+0x5c>)
 800428a:	62a3      	str	r3, [r4, #40]	@ 0x28
 800428c:	4b0c      	ldr	r3, [pc, #48]	@ (80042c0 <std+0x60>)
 800428e:	62e3      	str	r3, [r4, #44]	@ 0x2c
 8004290:	4b0c      	ldr	r3, [pc, #48]	@ (80042c4 <std+0x64>)
 8004292:	6323      	str	r3, [r4, #48]	@ 0x30
 8004294:	4b0c      	ldr	r3, [pc, #48]	@ (80042c8 <std+0x68>)
 8004296:	429c      	cmp	r4, r3
 8004298:	d006      	beq.n	80042a8 <std+0x48>
 800429a:	f103 0268 	add.w	r2, r3, #104	@ 0x68
 800429e:	4294      	cmp	r4, r2
 80042a0:	d002      	beq.n	80042a8 <std+0x48>
 80042a2:	33d0      	adds	r3, #208	@ 0xd0
 80042a4:	429c      	cmp	r4, r3
 80042a6:	d105      	bne.n	80042b4 <std+0x54>
 80042a8:	f104 0058 	add.w	r0, r4, #88	@ 0x58
 80042ac:	e8bd 4010 	ldmia.w	sp!, {r4, lr}
 80042b0:	f000 b96c 	b.w	800458c <__retarget_lock_init_recursive>
 80042b4:	bd10      	pop	{r4, pc}
 80042b6:	bf00      	nop
 80042b8:	0800440d 	.word	0x0800440d
 80042bc:	0800442f 	.word	0x0800442f
 80042c0:	08004467 	.word	0x08004467
 80042c4:	0800448d 	.word	0x0800448d
 80042c8:	200002e0 	.word	0x200002e0

080042cc <stdio_exit_handler>:
 80042cc:	4a02      	ldr	r2, [pc, #8]	@ (80042d8 <stdio_exit_handler+0xc>)
 80042ce:	4903      	ldr	r1, [pc, #12]	@ (80042dc <stdio_exit_handler+0x10>)
 80042d0:	4803      	ldr	r0, [pc, #12]	@ (80042e0 <stdio_exit_handler+0x14>)
 80042d2:	f000 b86b 	b.w	80043ac <_fwalk_sglue>
 80042d6:	bf00      	nop
 80042d8:	20000010 	.word	0x20000010
 80042dc:	08005f05 	.word	0x08005f05
 80042e0:	20000020 	.word	0x20000020

080042e4 <cleanup_stdio>:
 80042e4:	6841      	ldr	r1, [r0, #4]
 80042e6:	4b0c      	ldr	r3, [pc, #48]	@ (8004318 <cleanup_stdio+0x34>)
 80042e8:	b510      	push	{r4, lr}
 80042ea:	4299      	cmp	r1, r3
 80042ec:	4604      	mov	r4, r0
 80042ee:	d001      	beq.n	80042f4 <cleanup_stdio+0x10>
 80042f0:	f001 fe08 	bl	8005f04 <_fflush_r>
 80042f4:	68a1      	ldr	r1, [r4, #8]
 80042f6:	4b09      	ldr	r3, [pc, #36]	@ (800431c <cleanup_stdio+0x38>)
 80042f8:	4299      	cmp	r1, r3
 80042fa:	d002      	beq.n	8004302 <cleanup_stdio+0x1e>
 80042fc:	4620      	mov	r0, r4
 80042fe:	f001 fe01 	bl	8005f04 <_fflush_r>
 8004302:	68e1      	ldr	r1, [r4, #12]
 8004304:	4b06      	ldr	r3, [pc, #24]	@ (8004320 <cleanup_stdio+0x3c>)
 8004306:	4299      	cmp	r1, r3
 8004308:	d004      	beq.n	8004314 <cleanup_stdio+0x30>
 800430a:	4620      	mov	r0, r4
 800430c:	e8bd 4010 	ldmia.w	sp!, {r4, lr}
 8004310:	f001 bdf8 	b.w	8005f04 <_fflush_r>
 8004314:	bd10      	pop	{r4, pc}
 8004316:	bf00      	nop
 8004318:	200002e0 	.word	0x200002e0
 800431c:	20000348 	.word	0x20000348
 8004320:	200003b0 	.word	0x200003b0

08004324 <global_stdio_init.part.0>:
 8004324:	4b0c      	ldr	r3, [pc, #48]	@ (8004358 <global_stdio_init.part.0+0x34>)
 8004326:	4a0d      	ldr	r2, [pc, #52]	@ (800435c <global_stdio_init.part.0+0x38>)
 8004328:	b510      	push	{r4, lr}
 800432a:	2104      	movs	r1, #4
 800432c:	601a      	str	r2, [r3, #0]
 800432e:	480c      	ldr	r0, [pc, #48]	@ (8004360 <global_stdio_init.part.0+0x3c>)
 8004330:	2200      	movs	r2, #0
 8004332:	f7ff ff95 	bl	8004260 <std>
 8004336:	4b0a      	ldr	r3, [pc, #40]	@ (8004360 <global_stdio_init.part.0+0x3c>)
 8004338:	2201      	movs	r2, #1
 800433a:	461c      	mov	r4, r3
 800433c:	2109      	movs	r1, #9
 800433e:	f103 0068 	add.w	r0, r3, #104	@ 0x68
 8004342:	f7ff ff8d 	bl	8004260 <std>
 8004346:	f104 00d0 	add.w	r0, r4, #208	@ 0xd0
 800434a:	2202      	movs	r2, #2
 800434c:	e8bd 4010 	ldmia.w	sp!, {r4, lr}
 8004350:	2112      	movs	r1, #18
 8004352:	f7ff bf85 	b.w	8004260 <std>
 8004356:	bf00      	nop
 8004358:	20000418 	.word	0x20000418
 800435c:	080042cd 	.word	0x080042cd
 8004360:	200002e0 	.word	0x200002e0

08004364 <__sfp_lock_acquire>:
 8004364:	4801      	ldr	r0, [pc, #4]	@ (800436c <__sfp_lock_acquire+0x8>)
 8004366:	f000 b912 	b.w	800458e <__retarget_lock_acquire_recursive>
 800436a:	bf00      	nop
 800436c:	20000421 	.word	0x20000421

08004370 <__sfp_lock_release>:
 8004370:	4801      	ldr	r0, [pc, #4]	@ (8004378 <__sfp_lock_release+0x8>)
 8004372:	f000 b90d 	b.w	8004590 <__retarget_lock_release_recursive>
 8004376:	bf00      	nop
 8004378:	20000421 	.word	0x20000421

0800437c <__sinit>:
 800437c:	b510      	push	{r4, lr}
 800437e:	4604      	mov	r4, r0
 8004380:	f7ff fff0 	bl	8004364 <__sfp_lock_acquire>
 8004384:	6a23      	ldr	r3, [r4, #32]
 8004386:	b11b      	cbz	r3, 8004390 <__sinit+0x14>
 8004388:	e8bd 4010 	ldmia.w	sp!, {r4, lr}
 800438c:	f7ff bff0 	b.w	8004370 <__sfp_lock_release>
 8004390:	4b04      	ldr	r3, [pc, #16]	@ (80043a4 <__sinit+0x28>)
 8004392:	6223      	str	r3, [r4, #32]
 8004394:	4b04      	ldr	r3, [pc, #16]	@ (80043a8 <__sinit+0x2c>)
 8004396:	681b      	ldr	r3, [r3, #0]
 8004398:	2b00      	cmp	r3, #0
 800439a:	d1f5      	bne.n	8004388 <__sinit+0xc>
 800439c:	f7ff ffc2 	bl	8004324 <global_stdio_init.part.0>
 80043a0:	e7f2      	b.n	8004388 <__sinit+0xc>
 80043a2:	bf00      	nop
 80043a4:	080042e5 	.word	0x080042e5
 80043a8:	20000418 	.word	0x20000418

080043ac <_fwalk_sglue>:
 80043ac:	e92d 43f8 	stmdb	sp!, {r3, r4, r5, r6, r7, r8, r9, lr}
 80043b0:	4607      	mov	r7, r0
 80043b2:	4688      	mov	r8, r1
 80043b4:	4614      	mov	r4, r2
 80043b6:	2600      	movs	r6, #0
 80043b8:	e9d4 9501 	ldrd	r9, r5, [r4, #4]
 80043bc:	f1b9 0901 	subs.w	r9, r9, #1
 80043c0:	d505      	bpl.n	80043ce <_fwalk_sglue+0x22>
 80043c2:	6824      	ldr	r4, [r4, #0]
 80043c4:	2c00      	cmp	r4, #0
 80043c6:	d1f7      	bne.n	80043b8 <_fwalk_sglue+0xc>
 80043c8:	4630      	mov	r0, r6
 80043ca:	e8bd 83f8 	ldmia.w	sp!, {r3, r4, r5, r6, r7, r8, r9, pc}
 80043ce:	89ab      	ldrh	r3, [r5, #12]
 80043d0:	2b01      	cmp	r3, #1
 80043d2:	d907      	bls.n	80043e4 <_fwalk_sglue+0x38>
 80043d4:	f9b5 300e 	ldrsh.w	r3, [r5, #14]
 80043d8:	3301      	adds	r3, #1
 80043da:	d003      	beq.n	80043e4 <_fwalk_sglue+0x38>
 80043dc:	4629      	mov	r1, r5
 80043de:	4638      	mov	r0, r7
 80043e0:	47c0      	blx	r8
 80043e2:	4306      	orrs	r6, r0
 80043e4:	3568      	adds	r5, #104	@ 0x68
 80043e6:	e7e9      	b.n	80043bc <_fwalk_sglue+0x10>

080043e8 <iprintf>:
 80043e8:	b40f      	push	{r0, r1, r2, r3}
 80043ea:	b507      	push	{r0, r1, r2, lr}
 80043ec:	4906      	ldr	r1, [pc, #24]	@ (8004408 <iprintf+0x20>)
 80043ee:	ab04      	add	r3, sp, #16
 80043f0:	6808      	ldr	r0, [r1, #0]
 80043f2:	f853 2b04 	ldr.w	r2, [r3], #4
 80043f6:	6881      	ldr	r1, [r0, #8]
 80043f8:	9301      	str	r3, [sp, #4]
 80043fa:	f001 fbf1 	bl	8005be0 <_vfiprintf_r>
 80043fe:	b003      	add	sp, #12
 8004400:	f85d eb04 	ldr.w	lr, [sp], #4
 8004404:	b004      	add	sp, #16
 8004406:	4770      	bx	lr
 8004408:	2000001c 	.word	0x2000001c

0800440c <__sread>:
 800440c:	b510      	push	{r4, lr}
 800440e:	460c      	mov	r4, r1
 8004410:	f9b1 100e 	ldrsh.w	r1, [r1, #14]
 8004414:	f000 f86c 	bl	80044f0 <_read_r>
 8004418:	2800      	cmp	r0, #0
 800441a:	bfab      	itete	ge
 800441c:	6d63      	ldrge	r3, [r4, #84]	@ 0x54
 800441e:	89a3      	ldrhlt	r3, [r4, #12]
 8004420:	181b      	addge	r3, r3, r0
 8004422:	f423 5380 	biclt.w	r3, r3, #4096	@ 0x1000
 8004426:	bfac      	ite	ge
 8004428:	6563      	strge	r3, [r4, #84]	@ 0x54
 800442a:	81a3      	strhlt	r3, [r4, #12]
 800442c:	bd10      	pop	{r4, pc}

0800442e <__swrite>:
 800442e:	e92d 41f0 	stmdb	sp!, {r4, r5, r6, r7, r8, lr}
 8004432:	461f      	mov	r7, r3
 8004434:	898b      	ldrh	r3, [r1, #12]
 8004436:	4605      	mov	r5, r0
 8004438:	05db      	lsls	r3, r3, #23
 800443a:	460c      	mov	r4, r1
 800443c:	4616      	mov	r6, r2
 800443e:	d505      	bpl.n	800444c <__swrite+0x1e>
 8004440:	2302      	movs	r3, #2
 8004442:	2200      	movs	r2, #0
 8004444:	f9b1 100e 	ldrsh.w	r1, [r1, #14]
 8004448:	f000 f840 	bl	80044cc <_lseek_r>
 800444c:	89a3      	ldrh	r3, [r4, #12]
 800444e:	4632      	mov	r2, r6
 8004450:	f423 5380 	bic.w	r3, r3, #4096	@ 0x1000
 8004454:	81a3      	strh	r3, [r4, #12]
 8004456:	4628      	mov	r0, r5
 8004458:	463b      	mov	r3, r7
 800445a:	f9b4 100e 	ldrsh.w	r1, [r4, #14]
 800445e:	e8bd 41f0 	ldmia.w	sp!, {r4, r5, r6, r7, r8, lr}
 8004462:	f000 b857 	b.w	8004514 <_write_r>

08004466 <__sseek>:
 8004466:	b510      	push	{r4, lr}
 8004468:	460c      	mov	r4, r1
 800446a:	f9b1 100e 	ldrsh.w	r1, [r1, #14]
 800446e:	f000 f82d 	bl	80044cc <_lseek_r>
 8004472:	f9b4 300c 	ldrsh.w	r3, [r4, #12]
 8004476:	1c42      	adds	r2, r0, #1
 8004478:	bf0b      	itete	eq
 800447a:	f423 5380 	biceq.w	r3, r3, #4096	@ 0x1000
 800447e:	f443 5380 	orrne.w	r3, r3, #4096	@ 0x1000
 8004482:	81a3      	strheq	r3, [r4, #12]
 8004484:	81a3      	strhne	r3, [r4, #12]
 8004486:	bf18      	it	ne
 8004488:	6560      	strne	r0, [r4, #84]	@ 0x54
 800448a:	bd10      	pop	{r4, pc}

0800448c <__sclose>:
 800448c:	f9b1 100e 	ldrsh.w	r1, [r1, #14]
 8004490:	f000 b80c 	b.w	80044ac <_close_r>

08004494 <memset>:
 8004494:	4603      	mov	r3, r0
 8004496:	4402      	add	r2, r0
 8004498:	4293      	cmp	r3, r2
 800449a:	d100      	bne.n	800449e <memset+0xa>
 800449c:	4770      	bx	lr
 800449e:	f803 1b01 	strb.w	r1, [r3], #1
 80044a2:	e7f9      	b.n	8004498 <memset+0x4>

080044a4 <_localeconv_r>:
 80044a4:	4800      	ldr	r0, [pc, #0]	@ (80044a8 <_localeconv_r+0x4>)
 80044a6:	4770      	bx	lr
 80044a8:	2000015c 	.word	0x2000015c

080044ac <_close_r>:
 80044ac:	b538      	push	{r3, r4, r5, lr}
 80044ae:	2300      	movs	r3, #0
 80044b0:	4d05      	ldr	r5, [pc, #20]	@ (80044c8 <_close_r+0x1c>)
 80044b2:	4604      	mov	r4, r0
 80044b4:	4608      	mov	r0, r1
 80044b6:	602b      	str	r3, [r5, #0]
 80044b8:	f7fd f8e5 	bl	8001686 <_close>
 80044bc:	1c43      	adds	r3, r0, #1
 80044be:	d102      	bne.n	80044c6 <_close_r+0x1a>
 80044c0:	682b      	ldr	r3, [r5, #0]
 80044c2:	b103      	cbz	r3, 80044c6 <_close_r+0x1a>
 80044c4:	6023      	str	r3, [r4, #0]
 80044c6:	bd38      	pop	{r3, r4, r5, pc}
 80044c8:	2000041c 	.word	0x2000041c

080044cc <_lseek_r>:
 80044cc:	b538      	push	{r3, r4, r5, lr}
 80044ce:	4604      	mov	r4, r0
 80044d0:	4608      	mov	r0, r1
 80044d2:	4611      	mov	r1, r2
 80044d4:	2200      	movs	r2, #0
 80044d6:	4d05      	ldr	r5, [pc, #20]	@ (80044ec <_lseek_r+0x20>)
 80044d8:	602a      	str	r2, [r5, #0]
 80044da:	461a      	mov	r2, r3
 80044dc:	f7fd f8f7 	bl	80016ce <_lseek>
 80044e0:	1c43      	adds	r3, r0, #1
 80044e2:	d102      	bne.n	80044ea <_lseek_r+0x1e>
 80044e4:	682b      	ldr	r3, [r5, #0]
 80044e6:	b103      	cbz	r3, 80044ea <_lseek_r+0x1e>
 80044e8:	6023      	str	r3, [r4, #0]
 80044ea:	bd38      	pop	{r3, r4, r5, pc}
 80044ec:	2000041c 	.word	0x2000041c

080044f0 <_read_r>:
 80044f0:	b538      	push	{r3, r4, r5, lr}
 80044f2:	4604      	mov	r4, r0
 80044f4:	4608      	mov	r0, r1
 80044f6:	4611      	mov	r1, r2
 80044f8:	2200      	movs	r2, #0
 80044fa:	4d05      	ldr	r5, [pc, #20]	@ (8004510 <_read_r+0x20>)
 80044fc:	602a      	str	r2, [r5, #0]
 80044fe:	461a      	mov	r2, r3
 8004500:	f7fd f888 	bl	8001614 <_read>
 8004504:	1c43      	adds	r3, r0, #1
 8004506:	d102      	bne.n	800450e <_read_r+0x1e>
 8004508:	682b      	ldr	r3, [r5, #0]
 800450a:	b103      	cbz	r3, 800450e <_read_r+0x1e>
 800450c:	6023      	str	r3, [r4, #0]
 800450e:	bd38      	pop	{r3, r4, r5, pc}
 8004510:	2000041c 	.word	0x2000041c

08004514 <_write_r>:
 8004514:	b538      	push	{r3, r4, r5, lr}
 8004516:	4604      	mov	r4, r0
 8004518:	4608      	mov	r0, r1
 800451a:	4611      	mov	r1, r2
 800451c:	2200      	movs	r2, #0
 800451e:	4d05      	ldr	r5, [pc, #20]	@ (8004534 <_write_r+0x20>)
 8004520:	602a      	str	r2, [r5, #0]
 8004522:	461a      	mov	r2, r3
 8004524:	f7fd f893 	bl	800164e <_write>
 8004528:	1c43      	adds	r3, r0, #1
 800452a:	d102      	bne.n	8004532 <_write_r+0x1e>
 800452c:	682b      	ldr	r3, [r5, #0]
 800452e:	b103      	cbz	r3, 8004532 <_write_r+0x1e>
 8004530:	6023      	str	r3, [r4, #0]
 8004532:	bd38      	pop	{r3, r4, r5, pc}
 8004534:	2000041c 	.word	0x2000041c

08004538 <__errno>:
 8004538:	4b01      	ldr	r3, [pc, #4]	@ (8004540 <__errno+0x8>)
 800453a:	6818      	ldr	r0, [r3, #0]
 800453c:	4770      	bx	lr
 800453e:	bf00      	nop
 8004540:	2000001c 	.word	0x2000001c

08004544 <__libc_init_array>:
 8004544:	b570      	push	{r4, r5, r6, lr}
 8004546:	2600      	movs	r6, #0
 8004548:	4d0c      	ldr	r5, [pc, #48]	@ (800457c <__libc_init_array+0x38>)
 800454a:	4b0d      	ldr	r3, [pc, #52]	@ (8004580 <__libc_init_array+0x3c>)
 800454c:	1b5b      	subs	r3, r3, r5
 800454e:	109c      	asrs	r4, r3, #2
 8004550:	42a6      	cmp	r6, r4
 8004552:	d109      	bne.n	8004568 <__libc_init_array+0x24>
 8004554:	2600      	movs	r6, #0
 8004556:	f001 fedd 	bl	8006314 <_init>
 800455a:	4d0a      	ldr	r5, [pc, #40]	@ (8004584 <__libc_init_array+0x40>)
 800455c:	4b0a      	ldr	r3, [pc, #40]	@ (8004588 <__libc_init_array+0x44>)
 800455e:	1b5b      	subs	r3, r3, r5
 8004560:	109c      	asrs	r4, r3, #2
 8004562:	42a6      	cmp	r6, r4
 8004564:	d105      	bne.n	8004572 <__libc_init_array+0x2e>
 8004566:	bd70      	pop	{r4, r5, r6, pc}
 8004568:	f855 3b04 	ldr.w	r3, [r5], #4
 800456c:	4798      	blx	r3
 800456e:	3601      	adds	r6, #1
 8004570:	e7ee      	b.n	8004550 <__libc_init_array+0xc>
 8004572:	f855 3b04 	ldr.w	r3, [r5], #4
 8004576:	4798      	blx	r3
 8004578:	3601      	adds	r6, #1
 800457a:	e7f2      	b.n	8004562 <__libc_init_array+0x1e>
 800457c:	080066e4 	.word	0x080066e4
 8004580:	080066e4 	.word	0x080066e4
 8004584:	080066e4 	.word	0x080066e4
 8004588:	080066e8 	.word	0x080066e8

0800458c <__retarget_lock_init_recursive>:
 800458c:	4770      	bx	lr

0800458e <__retarget_lock_acquire_recursive>:
 800458e:	4770      	bx	lr

08004590 <__retarget_lock_release_recursive>:
 8004590:	4770      	bx	lr

08004592 <memchr>:
 8004592:	4603      	mov	r3, r0
 8004594:	b510      	push	{r4, lr}
 8004596:	b2c9      	uxtb	r1, r1
 8004598:	4402      	add	r2, r0
 800459a:	4293      	cmp	r3, r2
 800459c:	4618      	mov	r0, r3
 800459e:	d101      	bne.n	80045a4 <memchr+0x12>
 80045a0:	2000      	movs	r0, #0
 80045a2:	e003      	b.n	80045ac <memchr+0x1a>
 80045a4:	7804      	ldrb	r4, [r0, #0]
 80045a6:	3301      	adds	r3, #1
 80045a8:	428c      	cmp	r4, r1
 80045aa:	d1f6      	bne.n	800459a <memchr+0x8>
 80045ac:	bd10      	pop	{r4, pc}

080045ae <quorem>:
 80045ae:	e92d 4ff7 	stmdb	sp!, {r0, r1, r2, r4, r5, r6, r7, r8, r9, sl, fp, lr}
 80045b2:	6903      	ldr	r3, [r0, #16]
 80045b4:	690c      	ldr	r4, [r1, #16]
 80045b6:	4607      	mov	r7, r0
 80045b8:	42a3      	cmp	r3, r4
 80045ba:	db7e      	blt.n	80046ba <quorem+0x10c>
 80045bc:	3c01      	subs	r4, #1
 80045be:	00a3      	lsls	r3, r4, #2
 80045c0:	f100 0514 	add.w	r5, r0, #20
 80045c4:	f101 0814 	add.w	r8, r1, #20
 80045c8:	9300      	str	r3, [sp, #0]
 80045ca:	eb05 0384 	add.w	r3, r5, r4, lsl #2
 80045ce:	9301      	str	r3, [sp, #4]
 80045d0:	f858 3024 	ldr.w	r3, [r8, r4, lsl #2]
 80045d4:	f855 2024 	ldr.w	r2, [r5, r4, lsl #2]
 80045d8:	3301      	adds	r3, #1
 80045da:	429a      	cmp	r2, r3
 80045dc:	fbb2 f6f3 	udiv	r6, r2, r3
 80045e0:	eb08 0984 	add.w	r9, r8, r4, lsl #2
 80045e4:	d32e      	bcc.n	8004644 <quorem+0x96>
 80045e6:	f04f 0a00 	mov.w	sl, #0
 80045ea:	46c4      	mov	ip, r8
 80045ec:	46ae      	mov	lr, r5
 80045ee:	46d3      	mov	fp, sl
 80045f0:	f85c 3b04 	ldr.w	r3, [ip], #4
 80045f4:	b298      	uxth	r0, r3
 80045f6:	fb06 a000 	mla	r0, r6, r0, sl
 80045fa:	0c1b      	lsrs	r3, r3, #16
 80045fc:	0c02      	lsrs	r2, r0, #16
 80045fe:	fb06 2303 	mla	r3, r6, r3, r2
 8004602:	f8de 2000 	ldr.w	r2, [lr]
 8004606:	b280      	uxth	r0, r0
 8004608:	b292      	uxth	r2, r2
 800460a:	1a12      	subs	r2, r2, r0
 800460c:	445a      	add	r2, fp
 800460e:	f8de 0000 	ldr.w	r0, [lr]
 8004612:	ea4f 4a13 	mov.w	sl, r3, lsr #16
 8004616:	b29b      	uxth	r3, r3
 8004618:	ebc3 4322 	rsb	r3, r3, r2, asr #16
 800461c:	eb03 4310 	add.w	r3, r3, r0, lsr #16
 8004620:	b292      	uxth	r2, r2
 8004622:	ea42 4203 	orr.w	r2, r2, r3, lsl #16
 8004626:	45e1      	cmp	r9, ip
 8004628:	ea4f 4b23 	mov.w	fp, r3, asr #16
 800462c:	f84e 2b04 	str.w	r2, [lr], #4
 8004630:	d2de      	bcs.n	80045f0 <quorem+0x42>
 8004632:	9b00      	ldr	r3, [sp, #0]
 8004634:	58eb      	ldr	r3, [r5, r3]
 8004636:	b92b      	cbnz	r3, 8004644 <quorem+0x96>
 8004638:	9b01      	ldr	r3, [sp, #4]
 800463a:	3b04      	subs	r3, #4
 800463c:	429d      	cmp	r5, r3
 800463e:	461a      	mov	r2, r3
 8004640:	d32f      	bcc.n	80046a2 <quorem+0xf4>
 8004642:	613c      	str	r4, [r7, #16]
 8004644:	4638      	mov	r0, r7
 8004646:	f001 f997 	bl	8005978 <__mcmp>
 800464a:	2800      	cmp	r0, #0
 800464c:	db25      	blt.n	800469a <quorem+0xec>
 800464e:	4629      	mov	r1, r5
 8004650:	2000      	movs	r0, #0
 8004652:	f858 2b04 	ldr.w	r2, [r8], #4
 8004656:	f8d1 c000 	ldr.w	ip, [r1]
 800465a:	fa1f fe82 	uxth.w	lr, r2
 800465e:	fa1f f38c 	uxth.w	r3, ip
 8004662:	eba3 030e 	sub.w	r3, r3, lr
 8004666:	4403      	add	r3, r0
 8004668:	0c12      	lsrs	r2, r2, #16
 800466a:	ebc2 4223 	rsb	r2, r2, r3, asr #16
 800466e:	eb02 421c 	add.w	r2, r2, ip, lsr #16
 8004672:	b29b      	uxth	r3, r3
 8004674:	ea43 4302 	orr.w	r3, r3, r2, lsl #16
 8004678:	45c1      	cmp	r9, r8
 800467a:	ea4f 4022 	mov.w	r0, r2, asr #16
 800467e:	f841 3b04 	str.w	r3, [r1], #4
 8004682:	d2e6      	bcs.n	8004652 <quorem+0xa4>
 8004684:	f855 2024 	ldr.w	r2, [r5, r4, lsl #2]
 8004688:	eb05 0384 	add.w	r3, r5, r4, lsl #2
 800468c:	b922      	cbnz	r2, 8004698 <quorem+0xea>
 800468e:	3b04      	subs	r3, #4
 8004690:	429d      	cmp	r5, r3
 8004692:	461a      	mov	r2, r3
 8004694:	d30b      	bcc.n	80046ae <quorem+0x100>
 8004696:	613c      	str	r4, [r7, #16]
 8004698:	3601      	adds	r6, #1
 800469a:	4630      	mov	r0, r6
 800469c:	b003      	add	sp, #12
 800469e:	e8bd 8ff0 	ldmia.w	sp!, {r4, r5, r6, r7, r8, r9, sl, fp, pc}
 80046a2:	6812      	ldr	r2, [r2, #0]
 80046a4:	3b04      	subs	r3, #4
 80046a6:	2a00      	cmp	r2, #0
 80046a8:	d1cb      	bne.n	8004642 <quorem+0x94>
 80046aa:	3c01      	subs	r4, #1
 80046ac:	e7c6      	b.n	800463c <quorem+0x8e>
 80046ae:	6812      	ldr	r2, [r2, #0]
 80046b0:	3b04      	subs	r3, #4
 80046b2:	2a00      	cmp	r2, #0
 80046b4:	d1ef      	bne.n	8004696 <quorem+0xe8>
 80046b6:	3c01      	subs	r4, #1
 80046b8:	e7ea      	b.n	8004690 <quorem+0xe2>
 80046ba:	2000      	movs	r0, #0
 80046bc:	e7ee      	b.n	800469c <quorem+0xee>
	...

080046c0 <_dtoa_r>:
 80046c0:	e92d 4ff0 	stmdb	sp!, {r4, r5, r6, r7, r8, r9, sl, fp, lr}
 80046c4:	4616      	mov	r6, r2
 80046c6:	461f      	mov	r7, r3
 80046c8:	69c2      	ldr	r2, [r0, #28]
 80046ca:	b099      	sub	sp, #100	@ 0x64
 80046cc:	4681      	mov	r9, r0
 80046ce:	e9cd 670e 	strd	r6, r7, [sp, #56]	@ 0x38
 80046d2:	9c25      	ldr	r4, [sp, #148]	@ 0x94
 80046d4:	b982      	cbnz	r2, 80046f8 <_dtoa_r+0x38>
 80046d6:	2010      	movs	r0, #16
 80046d8:	f000 fe20 	bl	800531c <malloc>
 80046dc:	4602      	mov	r2, r0
 80046de:	f8c9 001c 	str.w	r0, [r9, #28]
 80046e2:	b920      	cbnz	r0, 80046ee <_dtoa_r+0x2e>
 80046e4:	21ef      	movs	r1, #239	@ 0xef
 80046e6:	4ba8      	ldr	r3, [pc, #672]	@ (8004988 <_dtoa_r+0x2c8>)
 80046e8:	48a8      	ldr	r0, [pc, #672]	@ (800498c <_dtoa_r+0x2cc>)
 80046ea:	f001 fce3 	bl	80060b4 <__assert_func>
 80046ee:	2300      	movs	r3, #0
 80046f0:	e9c0 3301 	strd	r3, r3, [r0, #4]
 80046f4:	6003      	str	r3, [r0, #0]
 80046f6:	60c3      	str	r3, [r0, #12]
 80046f8:	6811      	ldr	r1, [r2, #0]
 80046fa:	b159      	cbz	r1, 8004714 <_dtoa_r+0x54>
 80046fc:	2301      	movs	r3, #1
 80046fe:	6852      	ldr	r2, [r2, #4]
 8004700:	4648      	mov	r0, r9
 8004702:	4093      	lsls	r3, r2
 8004704:	604a      	str	r2, [r1, #4]
 8004706:	608b      	str	r3, [r1, #8]
 8004708:	f000 fefc 	bl	8005504 <_Bfree>
 800470c:	2200      	movs	r2, #0
 800470e:	f8d9 301c 	ldr.w	r3, [r9, #28]
 8004712:	601a      	str	r2, [r3, #0]
 8004714:	f1b7 0800 	subs.w	r8, r7, #0
 8004718:	bfb5      	itete	lt
 800471a:	2301      	movlt	r3, #1
 800471c:	2300      	movge	r3, #0
 800471e:	6023      	strlt	r3, [r4, #0]
 8004720:	6023      	strge	r3, [r4, #0]
 8004722:	4b9b      	ldr	r3, [pc, #620]	@ (8004990 <_dtoa_r+0x2d0>)
 8004724:	bfbc      	itt	lt
 8004726:	f028 4800 	biclt.w	r8, r8, #2147483648	@ 0x80000000
 800472a:	f8cd 803c 	strlt.w	r8, [sp, #60]	@ 0x3c
 800472e:	ea33 0308 	bics.w	r3, r3, r8
 8004732:	d11a      	bne.n	800476a <_dtoa_r+0xaa>
 8004734:	f242 730f 	movw	r3, #9999	@ 0x270f
 8004738:	9a24      	ldr	r2, [sp, #144]	@ 0x90
 800473a:	f3c8 0813 	ubfx	r8, r8, #0, #20
 800473e:	ea58 0806 	orrs.w	r8, r8, r6
 8004742:	6013      	str	r3, [r2, #0]
 8004744:	f000 8574 	beq.w	8005230 <_dtoa_r+0xb70>
 8004748:	9b26      	ldr	r3, [sp, #152]	@ 0x98
 800474a:	b953      	cbnz	r3, 8004762 <_dtoa_r+0xa2>
 800474c:	4b91      	ldr	r3, [pc, #580]	@ (8004994 <_dtoa_r+0x2d4>)
 800474e:	e021      	b.n	8004794 <_dtoa_r+0xd4>
 8004750:	4b91      	ldr	r3, [pc, #580]	@ (8004998 <_dtoa_r+0x2d8>)
 8004752:	9303      	str	r3, [sp, #12]
 8004754:	3308      	adds	r3, #8
 8004756:	9a26      	ldr	r2, [sp, #152]	@ 0x98
 8004758:	6013      	str	r3, [r2, #0]
 800475a:	9803      	ldr	r0, [sp, #12]
 800475c:	b019      	add	sp, #100	@ 0x64
 800475e:	e8bd 8ff0 	ldmia.w	sp!, {r4, r5, r6, r7, r8, r9, sl, fp, pc}
 8004762:	4b8c      	ldr	r3, [pc, #560]	@ (8004994 <_dtoa_r+0x2d4>)
 8004764:	9303      	str	r3, [sp, #12]
 8004766:	3303      	adds	r3, #3
 8004768:	e7f5      	b.n	8004756 <_dtoa_r+0x96>
 800476a:	e9dd 340e 	ldrd	r3, r4, [sp, #56]	@ 0x38
 800476e:	e9cd 340a 	strd	r3, r4, [sp, #40]	@ 0x28
 8004772:	e9dd 010a 	ldrd	r0, r1, [sp, #40]	@ 0x28
 8004776:	2200      	movs	r2, #0
 8004778:	2300      	movs	r3, #0
 800477a:	f7fc f915 	bl	80009a8 <__aeabi_dcmpeq>
 800477e:	4682      	mov	sl, r0
 8004780:	b150      	cbz	r0, 8004798 <_dtoa_r+0xd8>
 8004782:	2301      	movs	r3, #1
 8004784:	9a24      	ldr	r2, [sp, #144]	@ 0x90
 8004786:	6013      	str	r3, [r2, #0]
 8004788:	9b26      	ldr	r3, [sp, #152]	@ 0x98
 800478a:	b113      	cbz	r3, 8004792 <_dtoa_r+0xd2>
 800478c:	4b83      	ldr	r3, [pc, #524]	@ (800499c <_dtoa_r+0x2dc>)
 800478e:	9a26      	ldr	r2, [sp, #152]	@ 0x98
 8004790:	6013      	str	r3, [r2, #0]
 8004792:	4b83      	ldr	r3, [pc, #524]	@ (80049a0 <_dtoa_r+0x2e0>)
 8004794:	9303      	str	r3, [sp, #12]
 8004796:	e7e0      	b.n	800475a <_dtoa_r+0x9a>
 8004798:	ab16      	add	r3, sp, #88	@ 0x58
 800479a:	9301      	str	r3, [sp, #4]
 800479c:	ab17      	add	r3, sp, #92	@ 0x5c
 800479e:	9300      	str	r3, [sp, #0]
 80047a0:	4648      	mov	r0, r9
 80047a2:	e9dd 230a 	ldrd	r2, r3, [sp, #40]	@ 0x28
 80047a6:	f001 f99b 	bl	8005ae0 <__d2b>
 80047aa:	ea5f 5418 	movs.w	r4, r8, lsr #20
 80047ae:	9d16      	ldr	r5, [sp, #88]	@ 0x58
 80047b0:	9004      	str	r0, [sp, #16]
 80047b2:	d07b      	beq.n	80048ac <_dtoa_r+0x1ec>
 80047b4:	e9dd 010a 	ldrd	r0, r1, [sp, #40]	@ 0x28
 80047b8:	9b0b      	ldr	r3, [sp, #44]	@ 0x2c
 80047ba:	f2a4 34ff 	subw	r4, r4, #1023	@ 0x3ff
 80047be:	f3c3 0313 	ubfx	r3, r3, #0, #20
 80047c2:	f043 537f 	orr.w	r3, r3, #1069547520	@ 0x3fc00000
 80047c6:	f443 1340 	orr.w	r3, r3, #3145728	@ 0x300000
 80047ca:	f8cd a050 	str.w	sl, [sp, #80]	@ 0x50
 80047ce:	4619      	mov	r1, r3
 80047d0:	2200      	movs	r2, #0
 80047d2:	4b74      	ldr	r3, [pc, #464]	@ (80049a4 <_dtoa_r+0x2e4>)
 80047d4:	f7fb fcc8 	bl	8000168 <__aeabi_dsub>
 80047d8:	a365      	add	r3, pc, #404	@ (adr r3, 8004970 <_dtoa_r+0x2b0>)
 80047da:	e9d3 2300 	ldrd	r2, r3, [r3]
 80047de:	f7fb fe7b 	bl	80004d8 <__aeabi_dmul>
 80047e2:	a365      	add	r3, pc, #404	@ (adr r3, 8004978 <_dtoa_r+0x2b8>)
 80047e4:	e9d3 2300 	ldrd	r2, r3, [r3]
 80047e8:	f7fb fcc0 	bl	800016c <__adddf3>
 80047ec:	4606      	mov	r6, r0
 80047ee:	4620      	mov	r0, r4
 80047f0:	460f      	mov	r7, r1
 80047f2:	f7fb fe07 	bl	8000404 <__aeabi_i2d>
 80047f6:	a362      	add	r3, pc, #392	@ (adr r3, 8004980 <_dtoa_r+0x2c0>)
 80047f8:	e9d3 2300 	ldrd	r2, r3, [r3]
 80047fc:	f7fb fe6c 	bl	80004d8 <__aeabi_dmul>
 8004800:	4602      	mov	r2, r0
 8004802:	460b      	mov	r3, r1
 8004804:	4630      	mov	r0, r6
 8004806:	4639      	mov	r1, r7
 8004808:	f7fb fcb0 	bl	800016c <__adddf3>
 800480c:	4606      	mov	r6, r0
 800480e:	460f      	mov	r7, r1
 8004810:	f7fc f912 	bl	8000a38 <__aeabi_d2iz>
 8004814:	2200      	movs	r2, #0
 8004816:	4680      	mov	r8, r0
 8004818:	2300      	movs	r3, #0
 800481a:	4630      	mov	r0, r6
 800481c:	4639      	mov	r1, r7
 800481e:	f7fc f8cd 	bl	80009bc <__aeabi_dcmplt>
 8004822:	b148      	cbz	r0, 8004838 <_dtoa_r+0x178>
 8004824:	4640      	mov	r0, r8
 8004826:	f7fb fded 	bl	8000404 <__aeabi_i2d>
 800482a:	4632      	mov	r2, r6
 800482c:	463b      	mov	r3, r7
 800482e:	f7fc f8bb 	bl	80009a8 <__aeabi_dcmpeq>
 8004832:	b908      	cbnz	r0, 8004838 <_dtoa_r+0x178>
 8004834:	f108 38ff 	add.w	r8, r8, #4294967295	@ 0xffffffff
 8004838:	f1b8 0f16 	cmp.w	r8, #22
 800483c:	d853      	bhi.n	80048e6 <_dtoa_r+0x226>
 800483e:	e9dd 010a 	ldrd	r0, r1, [sp, #40]	@ 0x28
 8004842:	4b59      	ldr	r3, [pc, #356]	@ (80049a8 <_dtoa_r+0x2e8>)
 8004844:	eb03 03c8 	add.w	r3, r3, r8, lsl #3
 8004848:	e9d3 2300 	ldrd	r2, r3, [r3]
 800484c:	f7fc f8b6 	bl	80009bc <__aeabi_dcmplt>
 8004850:	2800      	cmp	r0, #0
 8004852:	d04a      	beq.n	80048ea <_dtoa_r+0x22a>
 8004854:	2300      	movs	r3, #0
 8004856:	f108 38ff 	add.w	r8, r8, #4294967295	@ 0xffffffff
 800485a:	9311      	str	r3, [sp, #68]	@ 0x44
 800485c:	1b2d      	subs	r5, r5, r4
 800485e:	1e6b      	subs	r3, r5, #1
 8004860:	9309      	str	r3, [sp, #36]	@ 0x24
 8004862:	bf49      	itett	mi
 8004864:	2300      	movmi	r3, #0
 8004866:	2700      	movpl	r7, #0
 8004868:	f1c5 0701 	rsbmi	r7, r5, #1
 800486c:	9309      	strmi	r3, [sp, #36]	@ 0x24
 800486e:	f1b8 0f00 	cmp.w	r8, #0
 8004872:	db3c      	blt.n	80048ee <_dtoa_r+0x22e>
 8004874:	9b09      	ldr	r3, [sp, #36]	@ 0x24
 8004876:	f8cd 8040 	str.w	r8, [sp, #64]	@ 0x40
 800487a:	4443      	add	r3, r8
 800487c:	9309      	str	r3, [sp, #36]	@ 0x24
 800487e:	2300      	movs	r3, #0
 8004880:	930c      	str	r3, [sp, #48]	@ 0x30
 8004882:	9b22      	ldr	r3, [sp, #136]	@ 0x88
 8004884:	2b09      	cmp	r3, #9
 8004886:	d864      	bhi.n	8004952 <_dtoa_r+0x292>
 8004888:	2b05      	cmp	r3, #5
 800488a:	bfc4      	itt	gt
 800488c:	3b04      	subgt	r3, #4
 800488e:	9322      	strgt	r3, [sp, #136]	@ 0x88
 8004890:	9b22      	ldr	r3, [sp, #136]	@ 0x88
 8004892:	bfc8      	it	gt
 8004894:	2400      	movgt	r4, #0
 8004896:	f1a3 0302 	sub.w	r3, r3, #2
 800489a:	bfd8      	it	le
 800489c:	2401      	movle	r4, #1
 800489e:	2b03      	cmp	r3, #3
 80048a0:	f200 8086 	bhi.w	80049b0 <_dtoa_r+0x2f0>
 80048a4:	e8df f003 	tbb	[pc, r3]
 80048a8:	2b365351 	.word	0x2b365351
 80048ac:	9c17      	ldr	r4, [sp, #92]	@ 0x5c
 80048ae:	442c      	add	r4, r5
 80048b0:	f204 4332 	addw	r3, r4, #1074	@ 0x432
 80048b4:	2b20      	cmp	r3, #32
 80048b6:	bfc1      	itttt	gt
 80048b8:	f1c3 0340 	rsbgt	r3, r3, #64	@ 0x40
 80048bc:	fa08 f803 	lslgt.w	r8, r8, r3
 80048c0:	f204 4312 	addwgt	r3, r4, #1042	@ 0x412
 80048c4:	fa26 f303 	lsrgt.w	r3, r6, r3
 80048c8:	bfd6      	itet	le
 80048ca:	f1c3 0320 	rsble	r3, r3, #32
 80048ce:	ea48 0003 	orrgt.w	r0, r8, r3
 80048d2:	fa06 f003 	lslle.w	r0, r6, r3
 80048d6:	f7fb fd85 	bl	80003e4 <__aeabi_ui2d>
 80048da:	2201      	movs	r2, #1
 80048dc:	f1a1 73f8 	sub.w	r3, r1, #32505856	@ 0x1f00000
 80048e0:	3c01      	subs	r4, #1
 80048e2:	9214      	str	r2, [sp, #80]	@ 0x50
 80048e4:	e773      	b.n	80047ce <_dtoa_r+0x10e>
 80048e6:	2301      	movs	r3, #1
 80048e8:	e7b7      	b.n	800485a <_dtoa_r+0x19a>
 80048ea:	9011      	str	r0, [sp, #68]	@ 0x44
 80048ec:	e7b6      	b.n	800485c <_dtoa_r+0x19c>
 80048ee:	f1c8 0300 	rsb	r3, r8, #0
 80048f2:	930c      	str	r3, [sp, #48]	@ 0x30
 80048f4:	2300      	movs	r3, #0
 80048f6:	eba7 0708 	sub.w	r7, r7, r8
 80048fa:	9310      	str	r3, [sp, #64]	@ 0x40
 80048fc:	e7c1      	b.n	8004882 <_dtoa_r+0x1c2>
 80048fe:	2301      	movs	r3, #1
 8004900:	930d      	str	r3, [sp, #52]	@ 0x34
 8004902:	9b23      	ldr	r3, [sp, #140]	@ 0x8c
 8004904:	4443      	add	r3, r8
 8004906:	9308      	str	r3, [sp, #32]
 8004908:	3301      	adds	r3, #1
 800490a:	2b01      	cmp	r3, #1
 800490c:	9305      	str	r3, [sp, #20]
 800490e:	bfb8      	it	lt
 8004910:	2301      	movlt	r3, #1
 8004912:	e006      	b.n	8004922 <_dtoa_r+0x262>
 8004914:	2301      	movs	r3, #1
 8004916:	930d      	str	r3, [sp, #52]	@ 0x34
 8004918:	9b23      	ldr	r3, [sp, #140]	@ 0x8c
 800491a:	2b00      	cmp	r3, #0
 800491c:	dd4b      	ble.n	80049b6 <_dtoa_r+0x2f6>
 800491e:	9308      	str	r3, [sp, #32]
 8004920:	9305      	str	r3, [sp, #20]
 8004922:	2100      	movs	r1, #0
 8004924:	2204      	movs	r2, #4
 8004926:	f8d9 001c 	ldr.w	r0, [r9, #28]
 800492a:	f102 0514 	add.w	r5, r2, #20
 800492e:	429d      	cmp	r5, r3
 8004930:	d946      	bls.n	80049c0 <_dtoa_r+0x300>
 8004932:	6041      	str	r1, [r0, #4]
 8004934:	4648      	mov	r0, r9
 8004936:	f000 fda7 	bl	8005488 <_Balloc>
 800493a:	9003      	str	r0, [sp, #12]
 800493c:	2800      	cmp	r0, #0
 800493e:	d142      	bne.n	80049c6 <_dtoa_r+0x306>
 8004940:	4602      	mov	r2, r0
 8004942:	f240 11af 	movw	r1, #431	@ 0x1af
 8004946:	4b19      	ldr	r3, [pc, #100]	@ (80049ac <_dtoa_r+0x2ec>)
 8004948:	e6ce      	b.n	80046e8 <_dtoa_r+0x28>
 800494a:	2300      	movs	r3, #0
 800494c:	e7e3      	b.n	8004916 <_dtoa_r+0x256>
 800494e:	2300      	movs	r3, #0
 8004950:	e7d6      	b.n	8004900 <_dtoa_r+0x240>
 8004952:	2401      	movs	r4, #1
 8004954:	2300      	movs	r3, #0
 8004956:	940d      	str	r4, [sp, #52]	@ 0x34
 8004958:	9322      	str	r3, [sp, #136]	@ 0x88
 800495a:	f04f 33ff 	mov.w	r3, #4294967295	@ 0xffffffff
 800495e:	2200      	movs	r2, #0
 8004960:	9308      	str	r3, [sp, #32]
 8004962:	9305      	str	r3, [sp, #20]
 8004964:	2312      	movs	r3, #18
 8004966:	9223      	str	r2, [sp, #140]	@ 0x8c
 8004968:	e7db      	b.n	8004922 <_dtoa_r+0x262>
 800496a:	bf00      	nop
 800496c:	f3af 8000 	nop.w
 8004970:	636f4361 	.word	0x636f4361
 8004974:	3fd287a7 	.word	0x3fd287a7
 8004978:	8b60c8b3 	.word	0x8b60c8b3
 800497c:	3fc68a28 	.word	0x3fc68a28
 8004980:	509f79fb 	.word	0x509f79fb
 8004984:	3fd34413 	.word	0x3fd34413
 8004988:	080063a7 	.word	0x080063a7
 800498c:	080063be 	.word	0x080063be
 8004990:	7ff00000 	.word	0x7ff00000
 8004994:	080063a3 	.word	0x080063a3
 8004998:	0800639a 	.word	0x0800639a
 800499c:	08006377 	.word	0x08006377
 80049a0:	08006376 	.word	0x08006376
 80049a4:	3ff80000 	.word	0x3ff80000
 80049a8:	08006510 	.word	0x08006510
 80049ac:	08006416 	.word	0x08006416
 80049b0:	2301      	movs	r3, #1
 80049b2:	930d      	str	r3, [sp, #52]	@ 0x34
 80049b4:	e7d1      	b.n	800495a <_dtoa_r+0x29a>
 80049b6:	2301      	movs	r3, #1
 80049b8:	461a      	mov	r2, r3
 80049ba:	9308      	str	r3, [sp, #32]
 80049bc:	9305      	str	r3, [sp, #20]
 80049be:	e7d2      	b.n	8004966 <_dtoa_r+0x2a6>
 80049c0:	3101      	adds	r1, #1
 80049c2:	0052      	lsls	r2, r2, #1
 80049c4:	e7b1      	b.n	800492a <_dtoa_r+0x26a>
 80049c6:	f8d9 301c 	ldr.w	r3, [r9, #28]
 80049ca:	9a03      	ldr	r2, [sp, #12]
 80049cc:	601a      	str	r2, [r3, #0]
 80049ce:	9b05      	ldr	r3, [sp, #20]
 80049d0:	2b0e      	cmp	r3, #14
 80049d2:	f200 80a1 	bhi.w	8004b18 <_dtoa_r+0x458>
 80049d6:	2c00      	cmp	r4, #0
 80049d8:	f000 809e 	beq.w	8004b18 <_dtoa_r+0x458>
 80049dc:	f1b8 0f00 	cmp.w	r8, #0
 80049e0:	dd36      	ble.n	8004a50 <_dtoa_r+0x390>
 80049e2:	4b9f      	ldr	r3, [pc, #636]	@ (8004c60 <_dtoa_r+0x5a0>)
 80049e4:	f008 020f 	and.w	r2, r8, #15
 80049e8:	eb03 03c2 	add.w	r3, r3, r2, lsl #3
 80049ec:	f418 7f80 	tst.w	r8, #256	@ 0x100
 80049f0:	ea4f 1528 	mov.w	r5, r8, asr #4
 80049f4:	e9d3 ab00 	ldrd	sl, fp, [r3]
 80049f8:	d016      	beq.n	8004a28 <_dtoa_r+0x368>
 80049fa:	e9dd 010a 	ldrd	r0, r1, [sp, #40]	@ 0x28
 80049fe:	4b99      	ldr	r3, [pc, #612]	@ (8004c64 <_dtoa_r+0x5a4>)
 8004a00:	2403      	movs	r4, #3
 8004a02:	e9d3 2308 	ldrd	r2, r3, [r3, #32]
 8004a06:	f7fb fe91 	bl	800072c <__aeabi_ddiv>
 8004a0a:	e9cd 0106 	strd	r0, r1, [sp, #24]
 8004a0e:	f005 050f 	and.w	r5, r5, #15
 8004a12:	4e94      	ldr	r6, [pc, #592]	@ (8004c64 <_dtoa_r+0x5a4>)
 8004a14:	b975      	cbnz	r5, 8004a34 <_dtoa_r+0x374>
 8004a16:	e9dd 0106 	ldrd	r0, r1, [sp, #24]
 8004a1a:	4652      	mov	r2, sl
 8004a1c:	465b      	mov	r3, fp
 8004a1e:	f7fb fe85 	bl	800072c <__aeabi_ddiv>
 8004a22:	4682      	mov	sl, r0
 8004a24:	468b      	mov	fp, r1
 8004a26:	e02d      	b.n	8004a84 <_dtoa_r+0x3c4>
 8004a28:	e9dd 340a 	ldrd	r3, r4, [sp, #40]	@ 0x28
 8004a2c:	e9cd 3406 	strd	r3, r4, [sp, #24]
 8004a30:	2402      	movs	r4, #2
 8004a32:	e7ee      	b.n	8004a12 <_dtoa_r+0x352>
 8004a34:	07e9      	lsls	r1, r5, #31
 8004a36:	d508      	bpl.n	8004a4a <_dtoa_r+0x38a>
 8004a38:	e9d6 2300 	ldrd	r2, r3, [r6]
 8004a3c:	4650      	mov	r0, sl
 8004a3e:	4659      	mov	r1, fp
 8004a40:	f7fb fd4a 	bl	80004d8 <__aeabi_dmul>
 8004a44:	4682      	mov	sl, r0
 8004a46:	468b      	mov	fp, r1
 8004a48:	3401      	adds	r4, #1
 8004a4a:	106d      	asrs	r5, r5, #1
 8004a4c:	3608      	adds	r6, #8
 8004a4e:	e7e1      	b.n	8004a14 <_dtoa_r+0x354>
 8004a50:	f000 80ad 	beq.w	8004bae <_dtoa_r+0x4ee>
 8004a54:	e9dd 010a 	ldrd	r0, r1, [sp, #40]	@ 0x28
 8004a58:	f1c8 0500 	rsb	r5, r8, #0
 8004a5c:	4b80      	ldr	r3, [pc, #512]	@ (8004c60 <_dtoa_r+0x5a0>)
 8004a5e:	f005 020f 	and.w	r2, r5, #15
 8004a62:	eb03 03c2 	add.w	r3, r3, r2, lsl #3
 8004a66:	e9d3 2300 	ldrd	r2, r3, [r3]
 8004a6a:	f7fb fd35 	bl	80004d8 <__aeabi_dmul>
 8004a6e:	2402      	movs	r4, #2
 8004a70:	4682      	mov	sl, r0
 8004a72:	468b      	mov	fp, r1
 8004a74:	2300      	movs	r3, #0
 8004a76:	4e7b      	ldr	r6, [pc, #492]	@ (8004c64 <_dtoa_r+0x5a4>)
 8004a78:	112d      	asrs	r5, r5, #4
 8004a7a:	2d00      	cmp	r5, #0
 8004a7c:	f040 808c 	bne.w	8004b98 <_dtoa_r+0x4d8>
 8004a80:	2b00      	cmp	r3, #0
 8004a82:	d1ce      	bne.n	8004a22 <_dtoa_r+0x362>
 8004a84:	9b11      	ldr	r3, [sp, #68]	@ 0x44
 8004a86:	2b00      	cmp	r3, #0
 8004a88:	f000 8095 	beq.w	8004bb6 <_dtoa_r+0x4f6>
 8004a8c:	2200      	movs	r2, #0
 8004a8e:	4650      	mov	r0, sl
 8004a90:	4659      	mov	r1, fp
 8004a92:	4b75      	ldr	r3, [pc, #468]	@ (8004c68 <_dtoa_r+0x5a8>)
 8004a94:	f7fb ff92 	bl	80009bc <__aeabi_dcmplt>
 8004a98:	2800      	cmp	r0, #0
 8004a9a:	f000 808c 	beq.w	8004bb6 <_dtoa_r+0x4f6>
 8004a9e:	9b05      	ldr	r3, [sp, #20]
 8004aa0:	2b00      	cmp	r3, #0
 8004aa2:	f000 8088 	beq.w	8004bb6 <_dtoa_r+0x4f6>
 8004aa6:	9b08      	ldr	r3, [sp, #32]
 8004aa8:	2b00      	cmp	r3, #0
 8004aaa:	dd35      	ble.n	8004b18 <_dtoa_r+0x458>
 8004aac:	f108 33ff 	add.w	r3, r8, #4294967295	@ 0xffffffff
 8004ab0:	4650      	mov	r0, sl
 8004ab2:	4659      	mov	r1, fp
 8004ab4:	9306      	str	r3, [sp, #24]
 8004ab6:	2200      	movs	r2, #0
 8004ab8:	4b6c      	ldr	r3, [pc, #432]	@ (8004c6c <_dtoa_r+0x5ac>)
 8004aba:	f7fb fd0d 	bl	80004d8 <__aeabi_dmul>
 8004abe:	4682      	mov	sl, r0
 8004ac0:	468b      	mov	fp, r1
 8004ac2:	9e08      	ldr	r6, [sp, #32]
 8004ac4:	3401      	adds	r4, #1
 8004ac6:	4620      	mov	r0, r4
 8004ac8:	f7fb fc9c 	bl	8000404 <__aeabi_i2d>
 8004acc:	4652      	mov	r2, sl
 8004ace:	465b      	mov	r3, fp
 8004ad0:	f7fb fd02 	bl	80004d8 <__aeabi_dmul>
 8004ad4:	2200      	movs	r2, #0
 8004ad6:	4b66      	ldr	r3, [pc, #408]	@ (8004c70 <_dtoa_r+0x5b0>)
 8004ad8:	f7fb fb48 	bl	800016c <__adddf3>
 8004adc:	4604      	mov	r4, r0
 8004ade:	f1a1 7550 	sub.w	r5, r1, #54525952	@ 0x3400000
 8004ae2:	e9cd 4512 	strd	r4, r5, [sp, #72]	@ 0x48
 8004ae6:	2e00      	cmp	r6, #0
 8004ae8:	d169      	bne.n	8004bbe <_dtoa_r+0x4fe>
 8004aea:	2200      	movs	r2, #0
 8004aec:	4650      	mov	r0, sl
 8004aee:	4659      	mov	r1, fp
 8004af0:	4b60      	ldr	r3, [pc, #384]	@ (8004c74 <_dtoa_r+0x5b4>)
 8004af2:	f7fb fb39 	bl	8000168 <__aeabi_dsub>
 8004af6:	4622      	mov	r2, r4
 8004af8:	462b      	mov	r3, r5
 8004afa:	4682      	mov	sl, r0
 8004afc:	468b      	mov	fp, r1
 8004afe:	f7fb ff7b 	bl	80009f8 <__aeabi_dcmpgt>
 8004b02:	2800      	cmp	r0, #0
 8004b04:	f040 8299 	bne.w	800503a <_dtoa_r+0x97a>
 8004b08:	4622      	mov	r2, r4
 8004b0a:	4650      	mov	r0, sl
 8004b0c:	4659      	mov	r1, fp
 8004b0e:	f105 4300 	add.w	r3, r5, #2147483648	@ 0x80000000
 8004b12:	f7fb ff53 	bl	80009bc <__aeabi_dcmplt>
 8004b16:	bb20      	cbnz	r0, 8004b62 <_dtoa_r+0x4a2>
 8004b18:	9b17      	ldr	r3, [sp, #92]	@ 0x5c
 8004b1a:	2b00      	cmp	r3, #0
 8004b1c:	f2c0 8165 	blt.w	8004dea <_dtoa_r+0x72a>
 8004b20:	f1b8 0f0e 	cmp.w	r8, #14
 8004b24:	f300 8161 	bgt.w	8004dea <_dtoa_r+0x72a>
 8004b28:	4b4d      	ldr	r3, [pc, #308]	@ (8004c60 <_dtoa_r+0x5a0>)
 8004b2a:	eb03 03c8 	add.w	r3, r3, r8, lsl #3
 8004b2e:	e9d3 ab00 	ldrd	sl, fp, [r3]
 8004b32:	9b23      	ldr	r3, [sp, #140]	@ 0x8c
 8004b34:	2b00      	cmp	r3, #0
 8004b36:	f280 80ef 	bge.w	8004d18 <_dtoa_r+0x658>
 8004b3a:	9b05      	ldr	r3, [sp, #20]
 8004b3c:	2b00      	cmp	r3, #0
 8004b3e:	f300 80eb 	bgt.w	8004d18 <_dtoa_r+0x658>
 8004b42:	d10e      	bne.n	8004b62 <_dtoa_r+0x4a2>
 8004b44:	2200      	movs	r2, #0
 8004b46:	4b4b      	ldr	r3, [pc, #300]	@ (8004c74 <_dtoa_r+0x5b4>)
 8004b48:	4650      	mov	r0, sl
 8004b4a:	4659      	mov	r1, fp
 8004b4c:	f7fb fcc4 	bl	80004d8 <__aeabi_dmul>
 8004b50:	4602      	mov	r2, r0
 8004b52:	460b      	mov	r3, r1
 8004b54:	e9dd 010a 	ldrd	r0, r1, [sp, #40]	@ 0x28
 8004b58:	f7fb ff3a 	bl	80009d0 <__aeabi_dcmple>
 8004b5c:	2800      	cmp	r0, #0
 8004b5e:	f000 826f 	beq.w	8005040 <_dtoa_r+0x980>
 8004b62:	2500      	movs	r5, #0
 8004b64:	462c      	mov	r4, r5
 8004b66:	9b23      	ldr	r3, [sp, #140]	@ 0x8c
 8004b68:	9e03      	ldr	r6, [sp, #12]
 8004b6a:	43db      	mvns	r3, r3
 8004b6c:	9306      	str	r3, [sp, #24]
 8004b6e:	4627      	mov	r7, r4
 8004b70:	2400      	movs	r4, #0
 8004b72:	4629      	mov	r1, r5
 8004b74:	4648      	mov	r0, r9
 8004b76:	f000 fcc5 	bl	8005504 <_Bfree>
 8004b7a:	2f00      	cmp	r7, #0
 8004b7c:	f000 80c2 	beq.w	8004d04 <_dtoa_r+0x644>
 8004b80:	b12c      	cbz	r4, 8004b8e <_dtoa_r+0x4ce>
 8004b82:	42bc      	cmp	r4, r7
 8004b84:	d003      	beq.n	8004b8e <_dtoa_r+0x4ce>
 8004b86:	4621      	mov	r1, r4
 8004b88:	4648      	mov	r0, r9
 8004b8a:	f000 fcbb 	bl	8005504 <_Bfree>
 8004b8e:	4639      	mov	r1, r7
 8004b90:	4648      	mov	r0, r9
 8004b92:	f000 fcb7 	bl	8005504 <_Bfree>
 8004b96:	e0b5      	b.n	8004d04 <_dtoa_r+0x644>
 8004b98:	07ea      	lsls	r2, r5, #31
 8004b9a:	d505      	bpl.n	8004ba8 <_dtoa_r+0x4e8>
 8004b9c:	e9d6 2300 	ldrd	r2, r3, [r6]
 8004ba0:	f7fb fc9a 	bl	80004d8 <__aeabi_dmul>
 8004ba4:	2301      	movs	r3, #1
 8004ba6:	3401      	adds	r4, #1
 8004ba8:	106d      	asrs	r5, r5, #1
 8004baa:	3608      	adds	r6, #8
 8004bac:	e765      	b.n	8004a7a <_dtoa_r+0x3ba>
 8004bae:	2402      	movs	r4, #2
 8004bb0:	e9dd ab0a 	ldrd	sl, fp, [sp, #40]	@ 0x28
 8004bb4:	e766      	b.n	8004a84 <_dtoa_r+0x3c4>
 8004bb6:	9e05      	ldr	r6, [sp, #20]
 8004bb8:	f8cd 8018 	str.w	r8, [sp, #24]
 8004bbc:	e783      	b.n	8004ac6 <_dtoa_r+0x406>
 8004bbe:	4b28      	ldr	r3, [pc, #160]	@ (8004c60 <_dtoa_r+0x5a0>)
 8004bc0:	eb03 03c6 	add.w	r3, r3, r6, lsl #3
 8004bc4:	e953 0102 	ldrd	r0, r1, [r3, #-8]
 8004bc8:	9b0d      	ldr	r3, [sp, #52]	@ 0x34
 8004bca:	2b00      	cmp	r3, #0
 8004bcc:	d056      	beq.n	8004c7c <_dtoa_r+0x5bc>
 8004bce:	4602      	mov	r2, r0
 8004bd0:	460b      	mov	r3, r1
 8004bd2:	2000      	movs	r0, #0
 8004bd4:	4928      	ldr	r1, [pc, #160]	@ (8004c78 <_dtoa_r+0x5b8>)
 8004bd6:	f7fb fda9 	bl	800072c <__aeabi_ddiv>
 8004bda:	e9dd 2312 	ldrd	r2, r3, [sp, #72]	@ 0x48
 8004bde:	f7fb fac3 	bl	8000168 <__aeabi_dsub>
 8004be2:	9b03      	ldr	r3, [sp, #12]
 8004be4:	e9cd 0112 	strd	r0, r1, [sp, #72]	@ 0x48
 8004be8:	199d      	adds	r5, r3, r6
 8004bea:	461e      	mov	r6, r3
 8004bec:	4659      	mov	r1, fp
 8004bee:	4650      	mov	r0, sl
 8004bf0:	f7fb ff22 	bl	8000a38 <__aeabi_d2iz>
 8004bf4:	4604      	mov	r4, r0
 8004bf6:	f7fb fc05 	bl	8000404 <__aeabi_i2d>
 8004bfa:	4602      	mov	r2, r0
 8004bfc:	460b      	mov	r3, r1
 8004bfe:	4650      	mov	r0, sl
 8004c00:	4659      	mov	r1, fp
 8004c02:	f7fb fab1 	bl	8000168 <__aeabi_dsub>
 8004c06:	e9dd 2312 	ldrd	r2, r3, [sp, #72]	@ 0x48
 8004c0a:	3430      	adds	r4, #48	@ 0x30
 8004c0c:	f806 4b01 	strb.w	r4, [r6], #1
 8004c10:	4682      	mov	sl, r0
 8004c12:	468b      	mov	fp, r1
 8004c14:	f7fb fed2 	bl	80009bc <__aeabi_dcmplt>
 8004c18:	2800      	cmp	r0, #0
 8004c1a:	d173      	bne.n	8004d04 <_dtoa_r+0x644>
 8004c1c:	4652      	mov	r2, sl
 8004c1e:	465b      	mov	r3, fp
 8004c20:	2000      	movs	r0, #0
 8004c22:	4911      	ldr	r1, [pc, #68]	@ (8004c68 <_dtoa_r+0x5a8>)
 8004c24:	f7fb faa0 	bl	8000168 <__aeabi_dsub>
 8004c28:	e9dd 2312 	ldrd	r2, r3, [sp, #72]	@ 0x48
 8004c2c:	f7fb fec6 	bl	80009bc <__aeabi_dcmplt>
 8004c30:	2800      	cmp	r0, #0
 8004c32:	f040 80bb 	bne.w	8004dac <_dtoa_r+0x6ec>
 8004c36:	42ae      	cmp	r6, r5
 8004c38:	f43f af6e 	beq.w	8004b18 <_dtoa_r+0x458>
 8004c3c:	e9dd 0112 	ldrd	r0, r1, [sp, #72]	@ 0x48
 8004c40:	2200      	movs	r2, #0
 8004c42:	4b0a      	ldr	r3, [pc, #40]	@ (8004c6c <_dtoa_r+0x5ac>)
 8004c44:	f7fb fc48 	bl	80004d8 <__aeabi_dmul>
 8004c48:	2200      	movs	r2, #0
 8004c4a:	e9cd 0112 	strd	r0, r1, [sp, #72]	@ 0x48
 8004c4e:	4b07      	ldr	r3, [pc, #28]	@ (8004c6c <_dtoa_r+0x5ac>)
 8004c50:	4650      	mov	r0, sl
 8004c52:	4659      	mov	r1, fp
 8004c54:	f7fb fc40 	bl	80004d8 <__aeabi_dmul>
 8004c58:	4682      	mov	sl, r0
 8004c5a:	468b      	mov	fp, r1
 8004c5c:	e7c6      	b.n	8004bec <_dtoa_r+0x52c>
 8004c5e:	bf00      	nop
 8004c60:	08006510 	.word	0x08006510
 8004c64:	080064e8 	.word	0x080064e8
 8004c68:	3ff00000 	.word	0x3ff00000
 8004c6c:	40240000 	.word	0x40240000
 8004c70:	401c0000 	.word	0x401c0000
 8004c74:	40140000 	.word	0x40140000
 8004c78:	3fe00000 	.word	0x3fe00000
 8004c7c:	e9dd 2312 	ldrd	r2, r3, [sp, #72]	@ 0x48
 8004c80:	f7fb fc2a 	bl	80004d8 <__aeabi_dmul>
 8004c84:	9b03      	ldr	r3, [sp, #12]
 8004c86:	e9cd 0112 	strd	r0, r1, [sp, #72]	@ 0x48
 8004c8a:	4433      	add	r3, r6
 8004c8c:	9d03      	ldr	r5, [sp, #12]
 8004c8e:	9315      	str	r3, [sp, #84]	@ 0x54
 8004c90:	4659      	mov	r1, fp
 8004c92:	4650      	mov	r0, sl
 8004c94:	f7fb fed0 	bl	8000a38 <__aeabi_d2iz>
 8004c98:	4604      	mov	r4, r0
 8004c9a:	f7fb fbb3 	bl	8000404 <__aeabi_i2d>
 8004c9e:	460b      	mov	r3, r1
 8004ca0:	4602      	mov	r2, r0
 8004ca2:	4659      	mov	r1, fp
 8004ca4:	4650      	mov	r0, sl
 8004ca6:	f7fb fa5f 	bl	8000168 <__aeabi_dsub>
 8004caa:	3430      	adds	r4, #48	@ 0x30
 8004cac:	9b15      	ldr	r3, [sp, #84]	@ 0x54
 8004cae:	f805 4b01 	strb.w	r4, [r5], #1
 8004cb2:	429d      	cmp	r5, r3
 8004cb4:	4682      	mov	sl, r0
 8004cb6:	468b      	mov	fp, r1
 8004cb8:	d127      	bne.n	8004d0a <_dtoa_r+0x64a>
 8004cba:	e9dd 0112 	ldrd	r0, r1, [sp, #72]	@ 0x48
 8004cbe:	9b03      	ldr	r3, [sp, #12]
 8004cc0:	2200      	movs	r2, #0
 8004cc2:	441e      	add	r6, r3
 8004cc4:	4bb5      	ldr	r3, [pc, #724]	@ (8004f9c <_dtoa_r+0x8dc>)
 8004cc6:	f7fb fa51 	bl	800016c <__adddf3>
 8004cca:	4602      	mov	r2, r0
 8004ccc:	460b      	mov	r3, r1
 8004cce:	4650      	mov	r0, sl
 8004cd0:	4659      	mov	r1, fp
 8004cd2:	f7fb fe91 	bl	80009f8 <__aeabi_dcmpgt>
 8004cd6:	2800      	cmp	r0, #0
 8004cd8:	d168      	bne.n	8004dac <_dtoa_r+0x6ec>
 8004cda:	e9dd 2312 	ldrd	r2, r3, [sp, #72]	@ 0x48
 8004cde:	2000      	movs	r0, #0
 8004ce0:	49ae      	ldr	r1, [pc, #696]	@ (8004f9c <_dtoa_r+0x8dc>)
 8004ce2:	f7fb fa41 	bl	8000168 <__aeabi_dsub>
 8004ce6:	4602      	mov	r2, r0
 8004ce8:	460b      	mov	r3, r1
 8004cea:	4650      	mov	r0, sl
 8004cec:	4659      	mov	r1, fp
 8004cee:	f7fb fe65 	bl	80009bc <__aeabi_dcmplt>
 8004cf2:	2800      	cmp	r0, #0
 8004cf4:	f43f af10 	beq.w	8004b18 <_dtoa_r+0x458>
 8004cf8:	4633      	mov	r3, r6
 8004cfa:	f816 2d01 	ldrb.w	r2, [r6, #-1]!
 8004cfe:	2a30      	cmp	r2, #48	@ 0x30
 8004d00:	d0fa      	beq.n	8004cf8 <_dtoa_r+0x638>
 8004d02:	461e      	mov	r6, r3
 8004d04:	f8dd 8018 	ldr.w	r8, [sp, #24]
 8004d08:	e03e      	b.n	8004d88 <_dtoa_r+0x6c8>
 8004d0a:	2200      	movs	r2, #0
 8004d0c:	4ba4      	ldr	r3, [pc, #656]	@ (8004fa0 <_dtoa_r+0x8e0>)
 8004d0e:	f7fb fbe3 	bl	80004d8 <__aeabi_dmul>
 8004d12:	4682      	mov	sl, r0
 8004d14:	468b      	mov	fp, r1
 8004d16:	e7bb      	b.n	8004c90 <_dtoa_r+0x5d0>
 8004d18:	2400      	movs	r4, #0
 8004d1a:	9e03      	ldr	r6, [sp, #12]
 8004d1c:	4da0      	ldr	r5, [pc, #640]	@ (8004fa0 <_dtoa_r+0x8e0>)
 8004d1e:	4652      	mov	r2, sl
 8004d20:	e9dd 010a 	ldrd	r0, r1, [sp, #40]	@ 0x28
 8004d24:	465b      	mov	r3, fp
 8004d26:	f7fb fd01 	bl	800072c <__aeabi_ddiv>
 8004d2a:	f7fb fe85 	bl	8000a38 <__aeabi_d2iz>
 8004d2e:	4607      	mov	r7, r0
 8004d30:	f7fb fb68 	bl	8000404 <__aeabi_i2d>
 8004d34:	4652      	mov	r2, sl
 8004d36:	465b      	mov	r3, fp
 8004d38:	f7fb fbce 	bl	80004d8 <__aeabi_dmul>
 8004d3c:	4602      	mov	r2, r0
 8004d3e:	460b      	mov	r3, r1
 8004d40:	e9dd 010a 	ldrd	r0, r1, [sp, #40]	@ 0x28
 8004d44:	f7fb fa10 	bl	8000168 <__aeabi_dsub>
 8004d48:	f107 0c30 	add.w	ip, r7, #48	@ 0x30
 8004d4c:	f806 cb01 	strb.w	ip, [r6], #1
 8004d50:	f8dd c00c 	ldr.w	ip, [sp, #12]
 8004d54:	f8dd e014 	ldr.w	lr, [sp, #20]
 8004d58:	eba6 0c0c 	sub.w	ip, r6, ip
 8004d5c:	45e6      	cmp	lr, ip
 8004d5e:	4602      	mov	r2, r0
 8004d60:	460b      	mov	r3, r1
 8004d62:	d133      	bne.n	8004dcc <_dtoa_r+0x70c>
 8004d64:	f7fb fa02 	bl	800016c <__adddf3>
 8004d68:	4652      	mov	r2, sl
 8004d6a:	465b      	mov	r3, fp
 8004d6c:	4604      	mov	r4, r0
 8004d6e:	460d      	mov	r5, r1
 8004d70:	f7fb fe42 	bl	80009f8 <__aeabi_dcmpgt>
 8004d74:	b9c0      	cbnz	r0, 8004da8 <_dtoa_r+0x6e8>
 8004d76:	4652      	mov	r2, sl
 8004d78:	465b      	mov	r3, fp
 8004d7a:	4620      	mov	r0, r4
 8004d7c:	4629      	mov	r1, r5
 8004d7e:	f7fb fe13 	bl	80009a8 <__aeabi_dcmpeq>
 8004d82:	b108      	cbz	r0, 8004d88 <_dtoa_r+0x6c8>
 8004d84:	07fb      	lsls	r3, r7, #31
 8004d86:	d40f      	bmi.n	8004da8 <_dtoa_r+0x6e8>
 8004d88:	4648      	mov	r0, r9
 8004d8a:	9904      	ldr	r1, [sp, #16]
 8004d8c:	f000 fbba 	bl	8005504 <_Bfree>
 8004d90:	2300      	movs	r3, #0
 8004d92:	9a24      	ldr	r2, [sp, #144]	@ 0x90
 8004d94:	7033      	strb	r3, [r6, #0]
 8004d96:	f108 0301 	add.w	r3, r8, #1
 8004d9a:	6013      	str	r3, [r2, #0]
 8004d9c:	9b26      	ldr	r3, [sp, #152]	@ 0x98
 8004d9e:	2b00      	cmp	r3, #0
 8004da0:	f43f acdb 	beq.w	800475a <_dtoa_r+0x9a>
 8004da4:	601e      	str	r6, [r3, #0]
 8004da6:	e4d8      	b.n	800475a <_dtoa_r+0x9a>
 8004da8:	f8cd 8018 	str.w	r8, [sp, #24]
 8004dac:	4633      	mov	r3, r6
 8004dae:	461e      	mov	r6, r3
 8004db0:	f813 2d01 	ldrb.w	r2, [r3, #-1]!
 8004db4:	2a39      	cmp	r2, #57	@ 0x39
 8004db6:	d106      	bne.n	8004dc6 <_dtoa_r+0x706>
 8004db8:	9a03      	ldr	r2, [sp, #12]
 8004dba:	429a      	cmp	r2, r3
 8004dbc:	d1f7      	bne.n	8004dae <_dtoa_r+0x6ee>
 8004dbe:	9a06      	ldr	r2, [sp, #24]
 8004dc0:	3201      	adds	r2, #1
 8004dc2:	9206      	str	r2, [sp, #24]
 8004dc4:	2230      	movs	r2, #48	@ 0x30
 8004dc6:	3201      	adds	r2, #1
 8004dc8:	701a      	strb	r2, [r3, #0]
 8004dca:	e79b      	b.n	8004d04 <_dtoa_r+0x644>
 8004dcc:	4622      	mov	r2, r4
 8004dce:	462b      	mov	r3, r5
 8004dd0:	f7fb fb82 	bl	80004d8 <__aeabi_dmul>
 8004dd4:	4602      	mov	r2, r0
 8004dd6:	460b      	mov	r3, r1
 8004dd8:	e9cd 230a 	strd	r2, r3, [sp, #40]	@ 0x28
 8004ddc:	2200      	movs	r2, #0
 8004dde:	2300      	movs	r3, #0
 8004de0:	f7fb fde2 	bl	80009a8 <__aeabi_dcmpeq>
 8004de4:	2800      	cmp	r0, #0
 8004de6:	d09a      	beq.n	8004d1e <_dtoa_r+0x65e>
 8004de8:	e7ce      	b.n	8004d88 <_dtoa_r+0x6c8>
 8004dea:	9a0d      	ldr	r2, [sp, #52]	@ 0x34
 8004dec:	2a00      	cmp	r2, #0
 8004dee:	f000 80e3 	beq.w	8004fb8 <_dtoa_r+0x8f8>
 8004df2:	9a22      	ldr	r2, [sp, #136]	@ 0x88
 8004df4:	2a01      	cmp	r2, #1
 8004df6:	f300 80c2 	bgt.w	8004f7e <_dtoa_r+0x8be>
 8004dfa:	9a14      	ldr	r2, [sp, #80]	@ 0x50
 8004dfc:	2a00      	cmp	r2, #0
 8004dfe:	f000 80ba 	beq.w	8004f76 <_dtoa_r+0x8b6>
 8004e02:	f203 4333 	addw	r3, r3, #1075	@ 0x433
 8004e06:	9d0c      	ldr	r5, [sp, #48]	@ 0x30
 8004e08:	463e      	mov	r6, r7
 8004e0a:	9a09      	ldr	r2, [sp, #36]	@ 0x24
 8004e0c:	2101      	movs	r1, #1
 8004e0e:	441a      	add	r2, r3
 8004e10:	4648      	mov	r0, r9
 8004e12:	441f      	add	r7, r3
 8004e14:	9209      	str	r2, [sp, #36]	@ 0x24
 8004e16:	f000 fc29 	bl	800566c <__i2b>
 8004e1a:	4604      	mov	r4, r0
 8004e1c:	b156      	cbz	r6, 8004e34 <_dtoa_r+0x774>
 8004e1e:	9b09      	ldr	r3, [sp, #36]	@ 0x24
 8004e20:	2b00      	cmp	r3, #0
 8004e22:	dd07      	ble.n	8004e34 <_dtoa_r+0x774>
 8004e24:	42b3      	cmp	r3, r6
 8004e26:	bfa8      	it	ge
 8004e28:	4633      	movge	r3, r6
 8004e2a:	9a09      	ldr	r2, [sp, #36]	@ 0x24
 8004e2c:	1aff      	subs	r7, r7, r3
 8004e2e:	1af6      	subs	r6, r6, r3
 8004e30:	1ad3      	subs	r3, r2, r3
 8004e32:	9309      	str	r3, [sp, #36]	@ 0x24
 8004e34:	9b0c      	ldr	r3, [sp, #48]	@ 0x30
 8004e36:	b30b      	cbz	r3, 8004e7c <_dtoa_r+0x7bc>
 8004e38:	9b0d      	ldr	r3, [sp, #52]	@ 0x34
 8004e3a:	2b00      	cmp	r3, #0
 8004e3c:	f000 80c3 	beq.w	8004fc6 <_dtoa_r+0x906>
 8004e40:	2d00      	cmp	r5, #0
 8004e42:	f000 80bd 	beq.w	8004fc0 <_dtoa_r+0x900>
 8004e46:	4621      	mov	r1, r4
 8004e48:	462a      	mov	r2, r5
 8004e4a:	4648      	mov	r0, r9
 8004e4c:	f000 fccc 	bl	80057e8 <__pow5mult>
 8004e50:	9a04      	ldr	r2, [sp, #16]
 8004e52:	4601      	mov	r1, r0
 8004e54:	4604      	mov	r4, r0
 8004e56:	4648      	mov	r0, r9
 8004e58:	f000 fc1e 	bl	8005698 <__multiply>
 8004e5c:	9904      	ldr	r1, [sp, #16]
 8004e5e:	4682      	mov	sl, r0
 8004e60:	4648      	mov	r0, r9
 8004e62:	f000 fb4f 	bl	8005504 <_Bfree>
 8004e66:	9b0c      	ldr	r3, [sp, #48]	@ 0x30
 8004e68:	1b5b      	subs	r3, r3, r5
 8004e6a:	930c      	str	r3, [sp, #48]	@ 0x30
 8004e6c:	f000 80ae 	beq.w	8004fcc <_dtoa_r+0x90c>
 8004e70:	4651      	mov	r1, sl
 8004e72:	9a0c      	ldr	r2, [sp, #48]	@ 0x30
 8004e74:	4648      	mov	r0, r9
 8004e76:	f000 fcb7 	bl	80057e8 <__pow5mult>
 8004e7a:	9004      	str	r0, [sp, #16]
 8004e7c:	2101      	movs	r1, #1
 8004e7e:	4648      	mov	r0, r9
 8004e80:	f000 fbf4 	bl	800566c <__i2b>
 8004e84:	9b10      	ldr	r3, [sp, #64]	@ 0x40
 8004e86:	4605      	mov	r5, r0
 8004e88:	2b00      	cmp	r3, #0
 8004e8a:	f000 81d8 	beq.w	800523e <_dtoa_r+0xb7e>
 8004e8e:	461a      	mov	r2, r3
 8004e90:	4601      	mov	r1, r0
 8004e92:	4648      	mov	r0, r9
 8004e94:	f000 fca8 	bl	80057e8 <__pow5mult>
 8004e98:	9b22      	ldr	r3, [sp, #136]	@ 0x88
 8004e9a:	4605      	mov	r5, r0
 8004e9c:	2b01      	cmp	r3, #1
 8004e9e:	f300 809d 	bgt.w	8004fdc <_dtoa_r+0x91c>
 8004ea2:	9b0e      	ldr	r3, [sp, #56]	@ 0x38
 8004ea4:	2b00      	cmp	r3, #0
 8004ea6:	f040 8094 	bne.w	8004fd2 <_dtoa_r+0x912>
 8004eaa:	9b0f      	ldr	r3, [sp, #60]	@ 0x3c
 8004eac:	f3c3 0313 	ubfx	r3, r3, #0, #20
 8004eb0:	2b00      	cmp	r3, #0
 8004eb2:	f040 808e 	bne.w	8004fd2 <_dtoa_r+0x912>
 8004eb6:	9b0f      	ldr	r3, [sp, #60]	@ 0x3c
 8004eb8:	f023 4300 	bic.w	r3, r3, #2147483648	@ 0x80000000
 8004ebc:	0d1b      	lsrs	r3, r3, #20
 8004ebe:	051b      	lsls	r3, r3, #20
 8004ec0:	2b00      	cmp	r3, #0
 8004ec2:	f000 8089 	beq.w	8004fd8 <_dtoa_r+0x918>
 8004ec6:	f04f 0a01 	mov.w	sl, #1
 8004eca:	9b09      	ldr	r3, [sp, #36]	@ 0x24
 8004ecc:	3701      	adds	r7, #1
 8004ece:	3301      	adds	r3, #1
 8004ed0:	9309      	str	r3, [sp, #36]	@ 0x24
 8004ed2:	9b10      	ldr	r3, [sp, #64]	@ 0x40
 8004ed4:	2b00      	cmp	r3, #0
 8004ed6:	f000 81b8 	beq.w	800524a <_dtoa_r+0xb8a>
 8004eda:	692b      	ldr	r3, [r5, #16]
 8004edc:	eb05 0383 	add.w	r3, r5, r3, lsl #2
 8004ee0:	6918      	ldr	r0, [r3, #16]
 8004ee2:	f000 fb77 	bl	80055d4 <__hi0bits>
 8004ee6:	f1c0 0020 	rsb	r0, r0, #32
 8004eea:	9b09      	ldr	r3, [sp, #36]	@ 0x24
 8004eec:	4418      	add	r0, r3
 8004eee:	f010 001f 	ands.w	r0, r0, #31
 8004ef2:	d07e      	beq.n	8004ff2 <_dtoa_r+0x932>
 8004ef4:	f1c0 0320 	rsb	r3, r0, #32
 8004ef8:	2b04      	cmp	r3, #4
 8004efa:	dd72      	ble.n	8004fe2 <_dtoa_r+0x922>
 8004efc:	9b09      	ldr	r3, [sp, #36]	@ 0x24
 8004efe:	f1c0 001c 	rsb	r0, r0, #28
 8004f02:	4403      	add	r3, r0
 8004f04:	4407      	add	r7, r0
 8004f06:	4406      	add	r6, r0
 8004f08:	9309      	str	r3, [sp, #36]	@ 0x24
 8004f0a:	2f00      	cmp	r7, #0
 8004f0c:	dd05      	ble.n	8004f1a <_dtoa_r+0x85a>
 8004f0e:	463a      	mov	r2, r7
 8004f10:	4648      	mov	r0, r9
 8004f12:	9904      	ldr	r1, [sp, #16]
 8004f14:	f000 fcc4 	bl	80058a0 <__lshift>
 8004f18:	9004      	str	r0, [sp, #16]
 8004f1a:	9b09      	ldr	r3, [sp, #36]	@ 0x24
 8004f1c:	2b00      	cmp	r3, #0
 8004f1e:	dd05      	ble.n	8004f2c <_dtoa_r+0x86c>
 8004f20:	4629      	mov	r1, r5
 8004f22:	461a      	mov	r2, r3
 8004f24:	4648      	mov	r0, r9
 8004f26:	f000 fcbb 	bl	80058a0 <__lshift>
 8004f2a:	4605      	mov	r5, r0
 8004f2c:	9b11      	ldr	r3, [sp, #68]	@ 0x44
 8004f2e:	2b00      	cmp	r3, #0
 8004f30:	d061      	beq.n	8004ff6 <_dtoa_r+0x936>
 8004f32:	4629      	mov	r1, r5
 8004f34:	9804      	ldr	r0, [sp, #16]
 8004f36:	f000 fd1f 	bl	8005978 <__mcmp>
 8004f3a:	2800      	cmp	r0, #0
 8004f3c:	da5b      	bge.n	8004ff6 <_dtoa_r+0x936>
 8004f3e:	f108 33ff 	add.w	r3, r8, #4294967295	@ 0xffffffff
 8004f42:	9306      	str	r3, [sp, #24]
 8004f44:	220a      	movs	r2, #10
 8004f46:	2300      	movs	r3, #0
 8004f48:	4648      	mov	r0, r9
 8004f4a:	9904      	ldr	r1, [sp, #16]
 8004f4c:	f000 fafc 	bl	8005548 <__multadd>
 8004f50:	9b0d      	ldr	r3, [sp, #52]	@ 0x34
 8004f52:	9004      	str	r0, [sp, #16]
 8004f54:	2b00      	cmp	r3, #0
 8004f56:	f000 817a 	beq.w	800524e <_dtoa_r+0xb8e>
 8004f5a:	2300      	movs	r3, #0
 8004f5c:	4621      	mov	r1, r4
 8004f5e:	220a      	movs	r2, #10
 8004f60:	4648      	mov	r0, r9
 8004f62:	f000 faf1 	bl	8005548 <__multadd>
 8004f66:	9b08      	ldr	r3, [sp, #32]
 8004f68:	4604      	mov	r4, r0
 8004f6a:	2b00      	cmp	r3, #0
 8004f6c:	dc72      	bgt.n	8005054 <_dtoa_r+0x994>
 8004f6e:	9b22      	ldr	r3, [sp, #136]	@ 0x88
 8004f70:	2b02      	cmp	r3, #2
 8004f72:	dc49      	bgt.n	8005008 <_dtoa_r+0x948>
 8004f74:	e06e      	b.n	8005054 <_dtoa_r+0x994>
 8004f76:	9b16      	ldr	r3, [sp, #88]	@ 0x58
 8004f78:	f1c3 0336 	rsb	r3, r3, #54	@ 0x36
 8004f7c:	e743      	b.n	8004e06 <_dtoa_r+0x746>
 8004f7e:	9b05      	ldr	r3, [sp, #20]
 8004f80:	1e5d      	subs	r5, r3, #1
 8004f82:	9b0c      	ldr	r3, [sp, #48]	@ 0x30
 8004f84:	42ab      	cmp	r3, r5
 8004f86:	db0d      	blt.n	8004fa4 <_dtoa_r+0x8e4>
 8004f88:	1b5d      	subs	r5, r3, r5
 8004f8a:	9b05      	ldr	r3, [sp, #20]
 8004f8c:	2b00      	cmp	r3, #0
 8004f8e:	f6bf af3b 	bge.w	8004e08 <_dtoa_r+0x748>
 8004f92:	9b05      	ldr	r3, [sp, #20]
 8004f94:	1afe      	subs	r6, r7, r3
 8004f96:	2300      	movs	r3, #0
 8004f98:	e737      	b.n	8004e0a <_dtoa_r+0x74a>
 8004f9a:	bf00      	nop
 8004f9c:	3fe00000 	.word	0x3fe00000
 8004fa0:	40240000 	.word	0x40240000
 8004fa4:	9b0c      	ldr	r3, [sp, #48]	@ 0x30
 8004fa6:	9a10      	ldr	r2, [sp, #64]	@ 0x40
 8004fa8:	1aeb      	subs	r3, r5, r3
 8004faa:	441a      	add	r2, r3
 8004fac:	950c      	str	r5, [sp, #48]	@ 0x30
 8004fae:	463e      	mov	r6, r7
 8004fb0:	2500      	movs	r5, #0
 8004fb2:	9b05      	ldr	r3, [sp, #20]
 8004fb4:	9210      	str	r2, [sp, #64]	@ 0x40
 8004fb6:	e728      	b.n	8004e0a <_dtoa_r+0x74a>
 8004fb8:	463e      	mov	r6, r7
 8004fba:	9d0c      	ldr	r5, [sp, #48]	@ 0x30
 8004fbc:	9c0d      	ldr	r4, [sp, #52]	@ 0x34
 8004fbe:	e72d      	b.n	8004e1c <_dtoa_r+0x75c>
 8004fc0:	f8dd a010 	ldr.w	sl, [sp, #16]
 8004fc4:	e754      	b.n	8004e70 <_dtoa_r+0x7b0>
 8004fc6:	9a0c      	ldr	r2, [sp, #48]	@ 0x30
 8004fc8:	9904      	ldr	r1, [sp, #16]
 8004fca:	e753      	b.n	8004e74 <_dtoa_r+0x7b4>
 8004fcc:	f8cd a010 	str.w	sl, [sp, #16]
 8004fd0:	e754      	b.n	8004e7c <_dtoa_r+0x7bc>
 8004fd2:	f04f 0a00 	mov.w	sl, #0
 8004fd6:	e77c      	b.n	8004ed2 <_dtoa_r+0x812>
 8004fd8:	469a      	mov	sl, r3
 8004fda:	e77a      	b.n	8004ed2 <_dtoa_r+0x812>
 8004fdc:	f04f 0a00 	mov.w	sl, #0
 8004fe0:	e77b      	b.n	8004eda <_dtoa_r+0x81a>
 8004fe2:	d092      	beq.n	8004f0a <_dtoa_r+0x84a>
 8004fe4:	9a09      	ldr	r2, [sp, #36]	@ 0x24
 8004fe6:	331c      	adds	r3, #28
 8004fe8:	441a      	add	r2, r3
 8004fea:	441f      	add	r7, r3
 8004fec:	441e      	add	r6, r3
 8004fee:	9209      	str	r2, [sp, #36]	@ 0x24
 8004ff0:	e78b      	b.n	8004f0a <_dtoa_r+0x84a>
 8004ff2:	4603      	mov	r3, r0
 8004ff4:	e7f6      	b.n	8004fe4 <_dtoa_r+0x924>
 8004ff6:	9b05      	ldr	r3, [sp, #20]
 8004ff8:	f8cd 8018 	str.w	r8, [sp, #24]
 8004ffc:	2b00      	cmp	r3, #0
 8004ffe:	dc23      	bgt.n	8005048 <_dtoa_r+0x988>
 8005000:	9308      	str	r3, [sp, #32]
 8005002:	9b22      	ldr	r3, [sp, #136]	@ 0x88
 8005004:	2b02      	cmp	r3, #2
 8005006:	dd21      	ble.n	800504c <_dtoa_r+0x98c>
 8005008:	9b08      	ldr	r3, [sp, #32]
 800500a:	2b00      	cmp	r3, #0
 800500c:	f47f adab 	bne.w	8004b66 <_dtoa_r+0x4a6>
 8005010:	4629      	mov	r1, r5
 8005012:	2205      	movs	r2, #5
 8005014:	4648      	mov	r0, r9
 8005016:	f000 fa97 	bl	8005548 <__multadd>
 800501a:	4601      	mov	r1, r0
 800501c:	4605      	mov	r5, r0
 800501e:	9804      	ldr	r0, [sp, #16]
 8005020:	f000 fcaa 	bl	8005978 <__mcmp>
 8005024:	2800      	cmp	r0, #0
 8005026:	f77f ad9e 	ble.w	8004b66 <_dtoa_r+0x4a6>
 800502a:	2331      	movs	r3, #49	@ 0x31
 800502c:	9e03      	ldr	r6, [sp, #12]
 800502e:	f806 3b01 	strb.w	r3, [r6], #1
 8005032:	9b06      	ldr	r3, [sp, #24]
 8005034:	3301      	adds	r3, #1
 8005036:	9306      	str	r3, [sp, #24]
 8005038:	e599      	b.n	8004b6e <_dtoa_r+0x4ae>
 800503a:	4635      	mov	r5, r6
 800503c:	462c      	mov	r4, r5
 800503e:	e7f4      	b.n	800502a <_dtoa_r+0x96a>
 8005040:	9d05      	ldr	r5, [sp, #20]
 8005042:	f8cd 8018 	str.w	r8, [sp, #24]
 8005046:	e7f9      	b.n	800503c <_dtoa_r+0x97c>
 8005048:	9b05      	ldr	r3, [sp, #20]
 800504a:	9308      	str	r3, [sp, #32]
 800504c:	9b0d      	ldr	r3, [sp, #52]	@ 0x34
 800504e:	2b00      	cmp	r3, #0
 8005050:	f000 8101 	beq.w	8005256 <_dtoa_r+0xb96>
 8005054:	2e00      	cmp	r6, #0
 8005056:	dd05      	ble.n	8005064 <_dtoa_r+0x9a4>
 8005058:	4621      	mov	r1, r4
 800505a:	4632      	mov	r2, r6
 800505c:	4648      	mov	r0, r9
 800505e:	f000 fc1f 	bl	80058a0 <__lshift>
 8005062:	4604      	mov	r4, r0
 8005064:	f1ba 0f00 	cmp.w	sl, #0
 8005068:	d05a      	beq.n	8005120 <_dtoa_r+0xa60>
 800506a:	4648      	mov	r0, r9
 800506c:	6861      	ldr	r1, [r4, #4]
 800506e:	f000 fa0b 	bl	8005488 <_Balloc>
 8005072:	4606      	mov	r6, r0
 8005074:	b928      	cbnz	r0, 8005082 <_dtoa_r+0x9c2>
 8005076:	4602      	mov	r2, r0
 8005078:	f240 21ef 	movw	r1, #751	@ 0x2ef
 800507c:	4b81      	ldr	r3, [pc, #516]	@ (8005284 <_dtoa_r+0xbc4>)
 800507e:	f7ff bb33 	b.w	80046e8 <_dtoa_r+0x28>
 8005082:	6922      	ldr	r2, [r4, #16]
 8005084:	f104 010c 	add.w	r1, r4, #12
 8005088:	3202      	adds	r2, #2
 800508a:	0092      	lsls	r2, r2, #2
 800508c:	300c      	adds	r0, #12
 800508e:	f001 f803 	bl	8006098 <memcpy>
 8005092:	2201      	movs	r2, #1
 8005094:	4631      	mov	r1, r6
 8005096:	4648      	mov	r0, r9
 8005098:	f000 fc02 	bl	80058a0 <__lshift>
 800509c:	4607      	mov	r7, r0
 800509e:	9b03      	ldr	r3, [sp, #12]
 80050a0:	9a03      	ldr	r2, [sp, #12]
 80050a2:	f103 0b01 	add.w	fp, r3, #1
 80050a6:	9b08      	ldr	r3, [sp, #32]
 80050a8:	4413      	add	r3, r2
 80050aa:	930a      	str	r3, [sp, #40]	@ 0x28
 80050ac:	9b0e      	ldr	r3, [sp, #56]	@ 0x38
 80050ae:	f003 0301 	and.w	r3, r3, #1
 80050b2:	9309      	str	r3, [sp, #36]	@ 0x24
 80050b4:	f10b 33ff 	add.w	r3, fp, #4294967295	@ 0xffffffff
 80050b8:	4629      	mov	r1, r5
 80050ba:	9804      	ldr	r0, [sp, #16]
 80050bc:	9305      	str	r3, [sp, #20]
 80050be:	f7ff fa76 	bl	80045ae <quorem>
 80050c2:	4621      	mov	r1, r4
 80050c4:	9008      	str	r0, [sp, #32]
 80050c6:	f100 0a30 	add.w	sl, r0, #48	@ 0x30
 80050ca:	9804      	ldr	r0, [sp, #16]
 80050cc:	f000 fc54 	bl	8005978 <__mcmp>
 80050d0:	463a      	mov	r2, r7
 80050d2:	4680      	mov	r8, r0
 80050d4:	4629      	mov	r1, r5
 80050d6:	4648      	mov	r0, r9
 80050d8:	f000 fc6a 	bl	80059b0 <__mdiff>
 80050dc:	68c2      	ldr	r2, [r0, #12]
 80050de:	4606      	mov	r6, r0
 80050e0:	bb02      	cbnz	r2, 8005124 <_dtoa_r+0xa64>
 80050e2:	4601      	mov	r1, r0
 80050e4:	9804      	ldr	r0, [sp, #16]
 80050e6:	f000 fc47 	bl	8005978 <__mcmp>
 80050ea:	4602      	mov	r2, r0
 80050ec:	4631      	mov	r1, r6
 80050ee:	4648      	mov	r0, r9
 80050f0:	920c      	str	r2, [sp, #48]	@ 0x30
 80050f2:	f000 fa07 	bl	8005504 <_Bfree>
 80050f6:	9b22      	ldr	r3, [sp, #136]	@ 0x88
 80050f8:	9a0c      	ldr	r2, [sp, #48]	@ 0x30
 80050fa:	465e      	mov	r6, fp
 80050fc:	ea42 0103 	orr.w	r1, r2, r3
 8005100:	9b09      	ldr	r3, [sp, #36]	@ 0x24
 8005102:	4319      	orrs	r1, r3
 8005104:	d110      	bne.n	8005128 <_dtoa_r+0xa68>
 8005106:	f1ba 0f39 	cmp.w	sl, #57	@ 0x39
 800510a:	d02b      	beq.n	8005164 <_dtoa_r+0xaa4>
 800510c:	f1b8 0f00 	cmp.w	r8, #0
 8005110:	dd02      	ble.n	8005118 <_dtoa_r+0xa58>
 8005112:	9b08      	ldr	r3, [sp, #32]
 8005114:	f103 0a31 	add.w	sl, r3, #49	@ 0x31
 8005118:	9b05      	ldr	r3, [sp, #20]
 800511a:	f883 a000 	strb.w	sl, [r3]
 800511e:	e528      	b.n	8004b72 <_dtoa_r+0x4b2>
 8005120:	4627      	mov	r7, r4
 8005122:	e7bc      	b.n	800509e <_dtoa_r+0x9de>
 8005124:	2201      	movs	r2, #1
 8005126:	e7e1      	b.n	80050ec <_dtoa_r+0xa2c>
 8005128:	f1b8 0f00 	cmp.w	r8, #0
 800512c:	db06      	blt.n	800513c <_dtoa_r+0xa7c>
 800512e:	9b22      	ldr	r3, [sp, #136]	@ 0x88
 8005130:	ea48 0803 	orr.w	r8, r8, r3
 8005134:	9b09      	ldr	r3, [sp, #36]	@ 0x24
 8005136:	ea58 0803 	orrs.w	r8, r8, r3
 800513a:	d120      	bne.n	800517e <_dtoa_r+0xabe>
 800513c:	2a00      	cmp	r2, #0
 800513e:	ddeb      	ble.n	8005118 <_dtoa_r+0xa58>
 8005140:	2201      	movs	r2, #1
 8005142:	9904      	ldr	r1, [sp, #16]
 8005144:	4648      	mov	r0, r9
 8005146:	f000 fbab 	bl	80058a0 <__lshift>
 800514a:	4629      	mov	r1, r5
 800514c:	9004      	str	r0, [sp, #16]
 800514e:	f000 fc13 	bl	8005978 <__mcmp>
 8005152:	2800      	cmp	r0, #0
 8005154:	dc03      	bgt.n	800515e <_dtoa_r+0xa9e>
 8005156:	d1df      	bne.n	8005118 <_dtoa_r+0xa58>
 8005158:	f01a 0f01 	tst.w	sl, #1
 800515c:	d0dc      	beq.n	8005118 <_dtoa_r+0xa58>
 800515e:	f1ba 0f39 	cmp.w	sl, #57	@ 0x39
 8005162:	d1d6      	bne.n	8005112 <_dtoa_r+0xa52>
 8005164:	2339      	movs	r3, #57	@ 0x39
 8005166:	9a05      	ldr	r2, [sp, #20]
 8005168:	7013      	strb	r3, [r2, #0]
 800516a:	4633      	mov	r3, r6
 800516c:	461e      	mov	r6, r3
 800516e:	f816 2c01 	ldrb.w	r2, [r6, #-1]
 8005172:	3b01      	subs	r3, #1
 8005174:	2a39      	cmp	r2, #57	@ 0x39
 8005176:	d053      	beq.n	8005220 <_dtoa_r+0xb60>
 8005178:	3201      	adds	r2, #1
 800517a:	701a      	strb	r2, [r3, #0]
 800517c:	e4f9      	b.n	8004b72 <_dtoa_r+0x4b2>
 800517e:	2a00      	cmp	r2, #0
 8005180:	dd07      	ble.n	8005192 <_dtoa_r+0xad2>
 8005182:	f1ba 0f39 	cmp.w	sl, #57	@ 0x39
 8005186:	d0ed      	beq.n	8005164 <_dtoa_r+0xaa4>
 8005188:	9a05      	ldr	r2, [sp, #20]
 800518a:	f10a 0301 	add.w	r3, sl, #1
 800518e:	7013      	strb	r3, [r2, #0]
 8005190:	e4ef      	b.n	8004b72 <_dtoa_r+0x4b2>
 8005192:	9b0a      	ldr	r3, [sp, #40]	@ 0x28
 8005194:	f80b ac01 	strb.w	sl, [fp, #-1]
 8005198:	455b      	cmp	r3, fp
 800519a:	d02b      	beq.n	80051f4 <_dtoa_r+0xb34>
 800519c:	2300      	movs	r3, #0
 800519e:	220a      	movs	r2, #10
 80051a0:	9904      	ldr	r1, [sp, #16]
 80051a2:	4648      	mov	r0, r9
 80051a4:	f000 f9d0 	bl	8005548 <__multadd>
 80051a8:	42bc      	cmp	r4, r7
 80051aa:	9004      	str	r0, [sp, #16]
 80051ac:	f04f 0300 	mov.w	r3, #0
 80051b0:	f04f 020a 	mov.w	r2, #10
 80051b4:	4621      	mov	r1, r4
 80051b6:	4648      	mov	r0, r9
 80051b8:	d106      	bne.n	80051c8 <_dtoa_r+0xb08>
 80051ba:	f000 f9c5 	bl	8005548 <__multadd>
 80051be:	4604      	mov	r4, r0
 80051c0:	4607      	mov	r7, r0
 80051c2:	f10b 0b01 	add.w	fp, fp, #1
 80051c6:	e775      	b.n	80050b4 <_dtoa_r+0x9f4>
 80051c8:	f000 f9be 	bl	8005548 <__multadd>
 80051cc:	4639      	mov	r1, r7
 80051ce:	4604      	mov	r4, r0
 80051d0:	2300      	movs	r3, #0
 80051d2:	220a      	movs	r2, #10
 80051d4:	4648      	mov	r0, r9
 80051d6:	f000 f9b7 	bl	8005548 <__multadd>
 80051da:	4607      	mov	r7, r0
 80051dc:	e7f1      	b.n	80051c2 <_dtoa_r+0xb02>
 80051de:	9b08      	ldr	r3, [sp, #32]
 80051e0:	4627      	mov	r7, r4
 80051e2:	2b00      	cmp	r3, #0
 80051e4:	f103 36ff 	add.w	r6, r3, #4294967295	@ 0xffffffff
 80051e8:	bfd8      	it	le
 80051ea:	2600      	movle	r6, #0
 80051ec:	2400      	movs	r4, #0
 80051ee:	9b03      	ldr	r3, [sp, #12]
 80051f0:	1c5a      	adds	r2, r3, #1
 80051f2:	4416      	add	r6, r2
 80051f4:	2201      	movs	r2, #1
 80051f6:	9904      	ldr	r1, [sp, #16]
 80051f8:	4648      	mov	r0, r9
 80051fa:	f000 fb51 	bl	80058a0 <__lshift>
 80051fe:	4629      	mov	r1, r5
 8005200:	9004      	str	r0, [sp, #16]
 8005202:	f000 fbb9 	bl	8005978 <__mcmp>
 8005206:	2800      	cmp	r0, #0
 8005208:	dcaf      	bgt.n	800516a <_dtoa_r+0xaaa>
 800520a:	d102      	bne.n	8005212 <_dtoa_r+0xb52>
 800520c:	f01a 0f01 	tst.w	sl, #1
 8005210:	d1ab      	bne.n	800516a <_dtoa_r+0xaaa>
 8005212:	4633      	mov	r3, r6
 8005214:	461e      	mov	r6, r3
 8005216:	f813 2d01 	ldrb.w	r2, [r3, #-1]!
 800521a:	2a30      	cmp	r2, #48	@ 0x30
 800521c:	d0fa      	beq.n	8005214 <_dtoa_r+0xb54>
 800521e:	e4a8      	b.n	8004b72 <_dtoa_r+0x4b2>
 8005220:	9a03      	ldr	r2, [sp, #12]
 8005222:	429a      	cmp	r2, r3
 8005224:	d1a2      	bne.n	800516c <_dtoa_r+0xaac>
 8005226:	9b06      	ldr	r3, [sp, #24]
 8005228:	3301      	adds	r3, #1
 800522a:	9306      	str	r3, [sp, #24]
 800522c:	2331      	movs	r3, #49	@ 0x31
 800522e:	e7ae      	b.n	800518e <_dtoa_r+0xace>
 8005230:	9b26      	ldr	r3, [sp, #152]	@ 0x98
 8005232:	2b00      	cmp	r3, #0
 8005234:	f47f aa8c 	bne.w	8004750 <_dtoa_r+0x90>
 8005238:	4b13      	ldr	r3, [pc, #76]	@ (8005288 <_dtoa_r+0xbc8>)
 800523a:	f7ff baab 	b.w	8004794 <_dtoa_r+0xd4>
 800523e:	9b22      	ldr	r3, [sp, #136]	@ 0x88
 8005240:	2b01      	cmp	r3, #1
 8005242:	f77f ae2e 	ble.w	8004ea2 <_dtoa_r+0x7e2>
 8005246:	f8dd a040 	ldr.w	sl, [sp, #64]	@ 0x40
 800524a:	2001      	movs	r0, #1
 800524c:	e64d      	b.n	8004eea <_dtoa_r+0x82a>
 800524e:	9b08      	ldr	r3, [sp, #32]
 8005250:	2b00      	cmp	r3, #0
 8005252:	f77f aed6 	ble.w	8005002 <_dtoa_r+0x942>
 8005256:	9e03      	ldr	r6, [sp, #12]
 8005258:	4629      	mov	r1, r5
 800525a:	9804      	ldr	r0, [sp, #16]
 800525c:	f7ff f9a7 	bl	80045ae <quorem>
 8005260:	9b03      	ldr	r3, [sp, #12]
 8005262:	f100 0a30 	add.w	sl, r0, #48	@ 0x30
 8005266:	f806 ab01 	strb.w	sl, [r6], #1
 800526a:	1af2      	subs	r2, r6, r3
 800526c:	9b08      	ldr	r3, [sp, #32]
 800526e:	4293      	cmp	r3, r2
 8005270:	ddb5      	ble.n	80051de <_dtoa_r+0xb1e>
 8005272:	2300      	movs	r3, #0
 8005274:	220a      	movs	r2, #10
 8005276:	4648      	mov	r0, r9
 8005278:	9904      	ldr	r1, [sp, #16]
 800527a:	f000 f965 	bl	8005548 <__multadd>
 800527e:	9004      	str	r0, [sp, #16]
 8005280:	e7ea      	b.n	8005258 <_dtoa_r+0xb98>
 8005282:	bf00      	nop
 8005284:	08006416 	.word	0x08006416
 8005288:	0800639a 	.word	0x0800639a

0800528c <_free_r>:
 800528c:	b538      	push	{r3, r4, r5, lr}
 800528e:	4605      	mov	r5, r0
 8005290:	2900      	cmp	r1, #0
 8005292:	d040      	beq.n	8005316 <_free_r+0x8a>
 8005294:	f851 3c04 	ldr.w	r3, [r1, #-4]
 8005298:	1f0c      	subs	r4, r1, #4
 800529a:	2b00      	cmp	r3, #0
 800529c:	bfb8      	it	lt
 800529e:	18e4      	addlt	r4, r4, r3
 80052a0:	f000 f8e6 	bl	8005470 <__malloc_lock>
 80052a4:	4a1c      	ldr	r2, [pc, #112]	@ (8005318 <_free_r+0x8c>)
 80052a6:	6813      	ldr	r3, [r2, #0]
 80052a8:	b933      	cbnz	r3, 80052b8 <_free_r+0x2c>
 80052aa:	6063      	str	r3, [r4, #4]
 80052ac:	6014      	str	r4, [r2, #0]
 80052ae:	4628      	mov	r0, r5
 80052b0:	e8bd 4038 	ldmia.w	sp!, {r3, r4, r5, lr}
 80052b4:	f000 b8e2 	b.w	800547c <__malloc_unlock>
 80052b8:	42a3      	cmp	r3, r4
 80052ba:	d908      	bls.n	80052ce <_free_r+0x42>
 80052bc:	6820      	ldr	r0, [r4, #0]
 80052be:	1821      	adds	r1, r4, r0
 80052c0:	428b      	cmp	r3, r1
 80052c2:	bf01      	itttt	eq
 80052c4:	6819      	ldreq	r1, [r3, #0]
 80052c6:	685b      	ldreq	r3, [r3, #4]
 80052c8:	1809      	addeq	r1, r1, r0
 80052ca:	6021      	streq	r1, [r4, #0]
 80052cc:	e7ed      	b.n	80052aa <_free_r+0x1e>
 80052ce:	461a      	mov	r2, r3
 80052d0:	685b      	ldr	r3, [r3, #4]
 80052d2:	b10b      	cbz	r3, 80052d8 <_free_r+0x4c>
 80052d4:	42a3      	cmp	r3, r4
 80052d6:	d9fa      	bls.n	80052ce <_free_r+0x42>
 80052d8:	6811      	ldr	r1, [r2, #0]
 80052da:	1850      	adds	r0, r2, r1
 80052dc:	42a0      	cmp	r0, r4
 80052de:	d10b      	bne.n	80052f8 <_free_r+0x6c>
 80052e0:	6820      	ldr	r0, [r4, #0]
 80052e2:	4401      	add	r1, r0
 80052e4:	1850      	adds	r0, r2, r1
 80052e6:	4283      	cmp	r3, r0
 80052e8:	6011      	str	r1, [r2, #0]
 80052ea:	d1e0      	bne.n	80052ae <_free_r+0x22>
 80052ec:	6818      	ldr	r0, [r3, #0]
 80052ee:	685b      	ldr	r3, [r3, #4]
 80052f0:	4408      	add	r0, r1
 80052f2:	6010      	str	r0, [r2, #0]
 80052f4:	6053      	str	r3, [r2, #4]
 80052f6:	e7da      	b.n	80052ae <_free_r+0x22>
 80052f8:	d902      	bls.n	8005300 <_free_r+0x74>
 80052fa:	230c      	movs	r3, #12
 80052fc:	602b      	str	r3, [r5, #0]
 80052fe:	e7d6      	b.n	80052ae <_free_r+0x22>
 8005300:	6820      	ldr	r0, [r4, #0]
 8005302:	1821      	adds	r1, r4, r0
 8005304:	428b      	cmp	r3, r1
 8005306:	bf01      	itttt	eq
 8005308:	6819      	ldreq	r1, [r3, #0]
 800530a:	685b      	ldreq	r3, [r3, #4]
 800530c:	1809      	addeq	r1, r1, r0
 800530e:	6021      	streq	r1, [r4, #0]
 8005310:	6063      	str	r3, [r4, #4]
 8005312:	6054      	str	r4, [r2, #4]
 8005314:	e7cb      	b.n	80052ae <_free_r+0x22>
 8005316:	bd38      	pop	{r3, r4, r5, pc}
 8005318:	20000428 	.word	0x20000428

0800531c <malloc>:
 800531c:	4b02      	ldr	r3, [pc, #8]	@ (8005328 <malloc+0xc>)
 800531e:	4601      	mov	r1, r0
 8005320:	6818      	ldr	r0, [r3, #0]
 8005322:	f000 b825 	b.w	8005370 <_malloc_r>
 8005326:	bf00      	nop
 8005328:	2000001c 	.word	0x2000001c

0800532c <sbrk_aligned>:
 800532c:	b570      	push	{r4, r5, r6, lr}
 800532e:	4e0f      	ldr	r6, [pc, #60]	@ (800536c <sbrk_aligned+0x40>)
 8005330:	460c      	mov	r4, r1
 8005332:	6831      	ldr	r1, [r6, #0]
 8005334:	4605      	mov	r5, r0
 8005336:	b911      	cbnz	r1, 800533e <sbrk_aligned+0x12>
 8005338:	f000 fe9e 	bl	8006078 <_sbrk_r>
 800533c:	6030      	str	r0, [r6, #0]
 800533e:	4621      	mov	r1, r4
 8005340:	4628      	mov	r0, r5
 8005342:	f000 fe99 	bl	8006078 <_sbrk_r>
 8005346:	1c43      	adds	r3, r0, #1
 8005348:	d103      	bne.n	8005352 <sbrk_aligned+0x26>
 800534a:	f04f 34ff 	mov.w	r4, #4294967295	@ 0xffffffff
 800534e:	4620      	mov	r0, r4
 8005350:	bd70      	pop	{r4, r5, r6, pc}
 8005352:	1cc4      	adds	r4, r0, #3
 8005354:	f024 0403 	bic.w	r4, r4, #3
 8005358:	42a0      	cmp	r0, r4
 800535a:	d0f8      	beq.n	800534e <sbrk_aligned+0x22>
 800535c:	1a21      	subs	r1, r4, r0
 800535e:	4628      	mov	r0, r5
 8005360:	f000 fe8a 	bl	8006078 <_sbrk_r>
 8005364:	3001      	adds	r0, #1
 8005366:	d1f2      	bne.n	800534e <sbrk_aligned+0x22>
 8005368:	e7ef      	b.n	800534a <sbrk_aligned+0x1e>
 800536a:	bf00      	nop
 800536c:	20000424 	.word	0x20000424

08005370 <_malloc_r>:
 8005370:	e92d 43f8 	stmdb	sp!, {r3, r4, r5, r6, r7, r8, r9, lr}
 8005374:	1ccd      	adds	r5, r1, #3
 8005376:	f025 0503 	bic.w	r5, r5, #3
 800537a:	3508      	adds	r5, #8
 800537c:	2d0c      	cmp	r5, #12
 800537e:	bf38      	it	cc
 8005380:	250c      	movcc	r5, #12
 8005382:	2d00      	cmp	r5, #0
 8005384:	4606      	mov	r6, r0
 8005386:	db01      	blt.n	800538c <_malloc_r+0x1c>
 8005388:	42a9      	cmp	r1, r5
 800538a:	d904      	bls.n	8005396 <_malloc_r+0x26>
 800538c:	230c      	movs	r3, #12
 800538e:	6033      	str	r3, [r6, #0]
 8005390:	2000      	movs	r0, #0
 8005392:	e8bd 83f8 	ldmia.w	sp!, {r3, r4, r5, r6, r7, r8, r9, pc}
 8005396:	f8df 80d4 	ldr.w	r8, [pc, #212]	@ 800546c <_malloc_r+0xfc>
 800539a:	f000 f869 	bl	8005470 <__malloc_lock>
 800539e:	f8d8 3000 	ldr.w	r3, [r8]
 80053a2:	461c      	mov	r4, r3
 80053a4:	bb44      	cbnz	r4, 80053f8 <_malloc_r+0x88>
 80053a6:	4629      	mov	r1, r5
 80053a8:	4630      	mov	r0, r6
 80053aa:	f7ff ffbf 	bl	800532c <sbrk_aligned>
 80053ae:	1c43      	adds	r3, r0, #1
 80053b0:	4604      	mov	r4, r0
 80053b2:	d158      	bne.n	8005466 <_malloc_r+0xf6>
 80053b4:	f8d8 4000 	ldr.w	r4, [r8]
 80053b8:	4627      	mov	r7, r4
 80053ba:	2f00      	cmp	r7, #0
 80053bc:	d143      	bne.n	8005446 <_malloc_r+0xd6>
 80053be:	2c00      	cmp	r4, #0
 80053c0:	d04b      	beq.n	800545a <_malloc_r+0xea>
 80053c2:	6823      	ldr	r3, [r4, #0]
 80053c4:	4639      	mov	r1, r7
 80053c6:	4630      	mov	r0, r6
 80053c8:	eb04 0903 	add.w	r9, r4, r3
 80053cc:	f000 fe54 	bl	8006078 <_sbrk_r>
 80053d0:	4581      	cmp	r9, r0
 80053d2:	d142      	bne.n	800545a <_malloc_r+0xea>
 80053d4:	6821      	ldr	r1, [r4, #0]
 80053d6:	4630      	mov	r0, r6
 80053d8:	1a6d      	subs	r5, r5, r1
 80053da:	4629      	mov	r1, r5
 80053dc:	f7ff ffa6 	bl	800532c <sbrk_aligned>
 80053e0:	3001      	adds	r0, #1
 80053e2:	d03a      	beq.n	800545a <_malloc_r+0xea>
 80053e4:	6823      	ldr	r3, [r4, #0]
 80053e6:	442b      	add	r3, r5
 80053e8:	6023      	str	r3, [r4, #0]
 80053ea:	f8d8 3000 	ldr.w	r3, [r8]
 80053ee:	685a      	ldr	r2, [r3, #4]
 80053f0:	bb62      	cbnz	r2, 800544c <_malloc_r+0xdc>
 80053f2:	f8c8 7000 	str.w	r7, [r8]
 80053f6:	e00f      	b.n	8005418 <_malloc_r+0xa8>
 80053f8:	6822      	ldr	r2, [r4, #0]
 80053fa:	1b52      	subs	r2, r2, r5
 80053fc:	d420      	bmi.n	8005440 <_malloc_r+0xd0>
 80053fe:	2a0b      	cmp	r2, #11
 8005400:	d917      	bls.n	8005432 <_malloc_r+0xc2>
 8005402:	1961      	adds	r1, r4, r5
 8005404:	42a3      	cmp	r3, r4
 8005406:	6025      	str	r5, [r4, #0]
 8005408:	bf18      	it	ne
 800540a:	6059      	strne	r1, [r3, #4]
 800540c:	6863      	ldr	r3, [r4, #4]
 800540e:	bf08      	it	eq
 8005410:	f8c8 1000 	streq.w	r1, [r8]
 8005414:	5162      	str	r2, [r4, r5]
 8005416:	604b      	str	r3, [r1, #4]
 8005418:	4630      	mov	r0, r6
 800541a:	f000 f82f 	bl	800547c <__malloc_unlock>
 800541e:	f104 000b 	add.w	r0, r4, #11
 8005422:	1d23      	adds	r3, r4, #4
 8005424:	f020 0007 	bic.w	r0, r0, #7
 8005428:	1ac2      	subs	r2, r0, r3
 800542a:	bf1c      	itt	ne
 800542c:	1a1b      	subne	r3, r3, r0
 800542e:	50a3      	strne	r3, [r4, r2]
 8005430:	e7af      	b.n	8005392 <_malloc_r+0x22>
 8005432:	6862      	ldr	r2, [r4, #4]
 8005434:	42a3      	cmp	r3, r4
 8005436:	bf0c      	ite	eq
 8005438:	f8c8 2000 	streq.w	r2, [r8]
 800543c:	605a      	strne	r2, [r3, #4]
 800543e:	e7eb      	b.n	8005418 <_malloc_r+0xa8>
 8005440:	4623      	mov	r3, r4
 8005442:	6864      	ldr	r4, [r4, #4]
 8005444:	e7ae      	b.n	80053a4 <_malloc_r+0x34>
 8005446:	463c      	mov	r4, r7
 8005448:	687f      	ldr	r7, [r7, #4]
 800544a:	e7b6      	b.n	80053ba <_malloc_r+0x4a>
 800544c:	461a      	mov	r2, r3
 800544e:	685b      	ldr	r3, [r3, #4]
 8005450:	42a3      	cmp	r3, r4
 8005452:	d1fb      	bne.n	800544c <_malloc_r+0xdc>
 8005454:	2300      	movs	r3, #0
 8005456:	6053      	str	r3, [r2, #4]
 8005458:	e7de      	b.n	8005418 <_malloc_r+0xa8>
 800545a:	230c      	movs	r3, #12
 800545c:	4630      	mov	r0, r6
 800545e:	6033      	str	r3, [r6, #0]
 8005460:	f000 f80c 	bl	800547c <__malloc_unlock>
 8005464:	e794      	b.n	8005390 <_malloc_r+0x20>
 8005466:	6005      	str	r5, [r0, #0]
 8005468:	e7d6      	b.n	8005418 <_malloc_r+0xa8>
 800546a:	bf00      	nop
 800546c:	20000428 	.word	0x20000428

08005470 <__malloc_lock>:
 8005470:	4801      	ldr	r0, [pc, #4]	@ (8005478 <__malloc_lock+0x8>)
 8005472:	f7ff b88c 	b.w	800458e <__retarget_lock_acquire_recursive>
 8005476:	bf00      	nop
 8005478:	20000420 	.word	0x20000420

0800547c <__malloc_unlock>:
 800547c:	4801      	ldr	r0, [pc, #4]	@ (8005484 <__malloc_unlock+0x8>)
 800547e:	f7ff b887 	b.w	8004590 <__retarget_lock_release_recursive>
 8005482:	bf00      	nop
 8005484:	20000420 	.word	0x20000420

08005488 <_Balloc>:
 8005488:	b570      	push	{r4, r5, r6, lr}
 800548a:	69c4      	ldr	r4, [r0, #28]
 800548c:	4605      	mov	r5, r0
 800548e:	460e      	mov	r6, r1
 8005490:	b984      	cbnz	r4, 80054b4 <_Balloc+0x2c>
 8005492:	2010      	movs	r0, #16
 8005494:	f7ff ff42 	bl	800531c <malloc>
 8005498:	4604      	mov	r4, r0
 800549a:	61e8      	str	r0, [r5, #28]
 800549c:	b928      	cbnz	r0, 80054aa <_Balloc+0x22>
 800549e:	4602      	mov	r2, r0
 80054a0:	216b      	movs	r1, #107	@ 0x6b
 80054a2:	4b16      	ldr	r3, [pc, #88]	@ (80054fc <_Balloc+0x74>)
 80054a4:	4816      	ldr	r0, [pc, #88]	@ (8005500 <_Balloc+0x78>)
 80054a6:	f000 fe05 	bl	80060b4 <__assert_func>
 80054aa:	2300      	movs	r3, #0
 80054ac:	e9c0 3301 	strd	r3, r3, [r0, #4]
 80054b0:	6003      	str	r3, [r0, #0]
 80054b2:	60c3      	str	r3, [r0, #12]
 80054b4:	68e3      	ldr	r3, [r4, #12]
 80054b6:	b953      	cbnz	r3, 80054ce <_Balloc+0x46>
 80054b8:	2221      	movs	r2, #33	@ 0x21
 80054ba:	2104      	movs	r1, #4
 80054bc:	4628      	mov	r0, r5
 80054be:	f000 fe17 	bl	80060f0 <_calloc_r>
 80054c2:	69eb      	ldr	r3, [r5, #28]
 80054c4:	60e0      	str	r0, [r4, #12]
 80054c6:	68db      	ldr	r3, [r3, #12]
 80054c8:	b90b      	cbnz	r3, 80054ce <_Balloc+0x46>
 80054ca:	2000      	movs	r0, #0
 80054cc:	bd70      	pop	{r4, r5, r6, pc}
 80054ce:	f853 0026 	ldr.w	r0, [r3, r6, lsl #2]
 80054d2:	b130      	cbz	r0, 80054e2 <_Balloc+0x5a>
 80054d4:	6802      	ldr	r2, [r0, #0]
 80054d6:	f843 2026 	str.w	r2, [r3, r6, lsl #2]
 80054da:	2300      	movs	r3, #0
 80054dc:	e9c0 3303 	strd	r3, r3, [r0, #12]
 80054e0:	e7f4      	b.n	80054cc <_Balloc+0x44>
 80054e2:	2101      	movs	r1, #1
 80054e4:	fa01 f406 	lsl.w	r4, r1, r6
 80054e8:	1d62      	adds	r2, r4, #5
 80054ea:	4628      	mov	r0, r5
 80054ec:	0092      	lsls	r2, r2, #2
 80054ee:	f000 fdff 	bl	80060f0 <_calloc_r>
 80054f2:	2800      	cmp	r0, #0
 80054f4:	d0e9      	beq.n	80054ca <_Balloc+0x42>
 80054f6:	e9c0 6401 	strd	r6, r4, [r0, #4]
 80054fa:	e7ee      	b.n	80054da <_Balloc+0x52>
 80054fc:	080063a7 	.word	0x080063a7
 8005500:	08006427 	.word	0x08006427

08005504 <_Bfree>:
 8005504:	b570      	push	{r4, r5, r6, lr}
 8005506:	69c6      	ldr	r6, [r0, #28]
 8005508:	4605      	mov	r5, r0
 800550a:	460c      	mov	r4, r1
 800550c:	b976      	cbnz	r6, 800552c <_Bfree+0x28>
 800550e:	2010      	movs	r0, #16
 8005510:	f7ff ff04 	bl	800531c <malloc>
 8005514:	4602      	mov	r2, r0
 8005516:	61e8      	str	r0, [r5, #28]
 8005518:	b920      	cbnz	r0, 8005524 <_Bfree+0x20>
 800551a:	218f      	movs	r1, #143	@ 0x8f
 800551c:	4b08      	ldr	r3, [pc, #32]	@ (8005540 <_Bfree+0x3c>)
 800551e:	4809      	ldr	r0, [pc, #36]	@ (8005544 <_Bfree+0x40>)
 8005520:	f000 fdc8 	bl	80060b4 <__assert_func>
 8005524:	e9c0 6601 	strd	r6, r6, [r0, #4]
 8005528:	6006      	str	r6, [r0, #0]
 800552a:	60c6      	str	r6, [r0, #12]
 800552c:	b13c      	cbz	r4, 800553e <_Bfree+0x3a>
 800552e:	69eb      	ldr	r3, [r5, #28]
 8005530:	6862      	ldr	r2, [r4, #4]
 8005532:	68db      	ldr	r3, [r3, #12]
 8005534:	f853 1022 	ldr.w	r1, [r3, r2, lsl #2]
 8005538:	6021      	str	r1, [r4, #0]
 800553a:	f843 4022 	str.w	r4, [r3, r2, lsl #2]
 800553e:	bd70      	pop	{r4, r5, r6, pc}
 8005540:	080063a7 	.word	0x080063a7
 8005544:	08006427 	.word	0x08006427

08005548 <__multadd>:
 8005548:	e92d 41f0 	stmdb	sp!, {r4, r5, r6, r7, r8, lr}
 800554c:	4607      	mov	r7, r0
 800554e:	460c      	mov	r4, r1
 8005550:	461e      	mov	r6, r3
 8005552:	2000      	movs	r0, #0
 8005554:	690d      	ldr	r5, [r1, #16]
 8005556:	f101 0c14 	add.w	ip, r1, #20
 800555a:	f8dc 3000 	ldr.w	r3, [ip]
 800555e:	3001      	adds	r0, #1
 8005560:	b299      	uxth	r1, r3
 8005562:	fb02 6101 	mla	r1, r2, r1, r6
 8005566:	0c1e      	lsrs	r6, r3, #16
 8005568:	0c0b      	lsrs	r3, r1, #16
 800556a:	fb02 3306 	mla	r3, r2, r6, r3
 800556e:	b289      	uxth	r1, r1
 8005570:	eb01 4103 	add.w	r1, r1, r3, lsl #16
 8005574:	4285      	cmp	r5, r0
 8005576:	ea4f 4613 	mov.w	r6, r3, lsr #16
 800557a:	f84c 1b04 	str.w	r1, [ip], #4
 800557e:	dcec      	bgt.n	800555a <__multadd+0x12>
 8005580:	b30e      	cbz	r6, 80055c6 <__multadd+0x7e>
 8005582:	68a3      	ldr	r3, [r4, #8]
 8005584:	42ab      	cmp	r3, r5
 8005586:	dc19      	bgt.n	80055bc <__multadd+0x74>
 8005588:	6861      	ldr	r1, [r4, #4]
 800558a:	4638      	mov	r0, r7
 800558c:	3101      	adds	r1, #1
 800558e:	f7ff ff7b 	bl	8005488 <_Balloc>
 8005592:	4680      	mov	r8, r0
 8005594:	b928      	cbnz	r0, 80055a2 <__multadd+0x5a>
 8005596:	4602      	mov	r2, r0
 8005598:	21ba      	movs	r1, #186	@ 0xba
 800559a:	4b0c      	ldr	r3, [pc, #48]	@ (80055cc <__multadd+0x84>)
 800559c:	480c      	ldr	r0, [pc, #48]	@ (80055d0 <__multadd+0x88>)
 800559e:	f000 fd89 	bl	80060b4 <__assert_func>
 80055a2:	6922      	ldr	r2, [r4, #16]
 80055a4:	f104 010c 	add.w	r1, r4, #12
 80055a8:	3202      	adds	r2, #2
 80055aa:	0092      	lsls	r2, r2, #2
 80055ac:	300c      	adds	r0, #12
 80055ae:	f000 fd73 	bl	8006098 <memcpy>
 80055b2:	4621      	mov	r1, r4
 80055b4:	4638      	mov	r0, r7
 80055b6:	f7ff ffa5 	bl	8005504 <_Bfree>
 80055ba:	4644      	mov	r4, r8
 80055bc:	eb04 0385 	add.w	r3, r4, r5, lsl #2
 80055c0:	3501      	adds	r5, #1
 80055c2:	615e      	str	r6, [r3, #20]
 80055c4:	6125      	str	r5, [r4, #16]
 80055c6:	4620      	mov	r0, r4
 80055c8:	e8bd 81f0 	ldmia.w	sp!, {r4, r5, r6, r7, r8, pc}
 80055cc:	08006416 	.word	0x08006416
 80055d0:	08006427 	.word	0x08006427

080055d4 <__hi0bits>:
 80055d4:	4603      	mov	r3, r0
 80055d6:	f5b0 3f80 	cmp.w	r0, #65536	@ 0x10000
 80055da:	bf3a      	itte	cc
 80055dc:	0403      	lslcc	r3, r0, #16
 80055de:	2010      	movcc	r0, #16
 80055e0:	2000      	movcs	r0, #0
 80055e2:	f1b3 7f80 	cmp.w	r3, #16777216	@ 0x1000000
 80055e6:	bf3c      	itt	cc
 80055e8:	021b      	lslcc	r3, r3, #8
 80055ea:	3008      	addcc	r0, #8
 80055ec:	f1b3 5f80 	cmp.w	r3, #268435456	@ 0x10000000
 80055f0:	bf3c      	itt	cc
 80055f2:	011b      	lslcc	r3, r3, #4
 80055f4:	3004      	addcc	r0, #4
 80055f6:	f1b3 4f80 	cmp.w	r3, #1073741824	@ 0x40000000
 80055fa:	bf3c      	itt	cc
 80055fc:	009b      	lslcc	r3, r3, #2
 80055fe:	3002      	addcc	r0, #2
 8005600:	2b00      	cmp	r3, #0
 8005602:	db05      	blt.n	8005610 <__hi0bits+0x3c>
 8005604:	f013 4f80 	tst.w	r3, #1073741824	@ 0x40000000
 8005608:	f100 0001 	add.w	r0, r0, #1
 800560c:	bf08      	it	eq
 800560e:	2020      	moveq	r0, #32
 8005610:	4770      	bx	lr

08005612 <__lo0bits>:
 8005612:	6803      	ldr	r3, [r0, #0]
 8005614:	4602      	mov	r2, r0
 8005616:	f013 0007 	ands.w	r0, r3, #7
 800561a:	d00b      	beq.n	8005634 <__lo0bits+0x22>
 800561c:	07d9      	lsls	r1, r3, #31
 800561e:	d421      	bmi.n	8005664 <__lo0bits+0x52>
 8005620:	0798      	lsls	r0, r3, #30
 8005622:	bf49      	itett	mi
 8005624:	085b      	lsrmi	r3, r3, #1
 8005626:	089b      	lsrpl	r3, r3, #2
 8005628:	2001      	movmi	r0, #1
 800562a:	6013      	strmi	r3, [r2, #0]
 800562c:	bf5c      	itt	pl
 800562e:	2002      	movpl	r0, #2
 8005630:	6013      	strpl	r3, [r2, #0]
 8005632:	4770      	bx	lr
 8005634:	b299      	uxth	r1, r3
 8005636:	b909      	cbnz	r1, 800563c <__lo0bits+0x2a>
 8005638:	2010      	movs	r0, #16
 800563a:	0c1b      	lsrs	r3, r3, #16
 800563c:	b2d9      	uxtb	r1, r3
 800563e:	b909      	cbnz	r1, 8005644 <__lo0bits+0x32>
 8005640:	3008      	adds	r0, #8
 8005642:	0a1b      	lsrs	r3, r3, #8
 8005644:	0719      	lsls	r1, r3, #28
 8005646:	bf04      	itt	eq
 8005648:	091b      	lsreq	r3, r3, #4
 800564a:	3004      	addeq	r0, #4
 800564c:	0799      	lsls	r1, r3, #30
 800564e:	bf04      	itt	eq
 8005650:	089b      	lsreq	r3, r3, #2
 8005652:	3002      	addeq	r0, #2
 8005654:	07d9      	lsls	r1, r3, #31
 8005656:	d403      	bmi.n	8005660 <__lo0bits+0x4e>
 8005658:	085b      	lsrs	r3, r3, #1
 800565a:	f100 0001 	add.w	r0, r0, #1
 800565e:	d003      	beq.n	8005668 <__lo0bits+0x56>
 8005660:	6013      	str	r3, [r2, #0]
 8005662:	4770      	bx	lr
 8005664:	2000      	movs	r0, #0
 8005666:	4770      	bx	lr
 8005668:	2020      	movs	r0, #32
 800566a:	4770      	bx	lr

0800566c <__i2b>:
 800566c:	b510      	push	{r4, lr}
 800566e:	460c      	mov	r4, r1
 8005670:	2101      	movs	r1, #1
 8005672:	f7ff ff09 	bl	8005488 <_Balloc>
 8005676:	4602      	mov	r2, r0
 8005678:	b928      	cbnz	r0, 8005686 <__i2b+0x1a>
 800567a:	f240 1145 	movw	r1, #325	@ 0x145
 800567e:	4b04      	ldr	r3, [pc, #16]	@ (8005690 <__i2b+0x24>)
 8005680:	4804      	ldr	r0, [pc, #16]	@ (8005694 <__i2b+0x28>)
 8005682:	f000 fd17 	bl	80060b4 <__assert_func>
 8005686:	2301      	movs	r3, #1
 8005688:	6144      	str	r4, [r0, #20]
 800568a:	6103      	str	r3, [r0, #16]
 800568c:	bd10      	pop	{r4, pc}
 800568e:	bf00      	nop
 8005690:	08006416 	.word	0x08006416
 8005694:	08006427 	.word	0x08006427

08005698 <__multiply>:
 8005698:	e92d 4ff0 	stmdb	sp!, {r4, r5, r6, r7, r8, r9, sl, fp, lr}
 800569c:	f8d1 9010 	ldr.w	r9, [r1, #16]
 80056a0:	f8d2 a010 	ldr.w	sl, [r2, #16]
 80056a4:	4688      	mov	r8, r1
 80056a6:	45d1      	cmp	r9, sl
 80056a8:	4614      	mov	r4, r2
 80056aa:	b085      	sub	sp, #20
 80056ac:	db04      	blt.n	80056b8 <__multiply+0x20>
 80056ae:	4653      	mov	r3, sl
 80056b0:	460c      	mov	r4, r1
 80056b2:	46ca      	mov	sl, r9
 80056b4:	4690      	mov	r8, r2
 80056b6:	4699      	mov	r9, r3
 80056b8:	68a3      	ldr	r3, [r4, #8]
 80056ba:	6861      	ldr	r1, [r4, #4]
 80056bc:	eb0a 0609 	add.w	r6, sl, r9
 80056c0:	42b3      	cmp	r3, r6
 80056c2:	bfb8      	it	lt
 80056c4:	3101      	addlt	r1, #1
 80056c6:	f7ff fedf 	bl	8005488 <_Balloc>
 80056ca:	b930      	cbnz	r0, 80056da <__multiply+0x42>
 80056cc:	4602      	mov	r2, r0
 80056ce:	f44f 71b1 	mov.w	r1, #354	@ 0x162
 80056d2:	4b43      	ldr	r3, [pc, #268]	@ (80057e0 <__multiply+0x148>)
 80056d4:	4843      	ldr	r0, [pc, #268]	@ (80057e4 <__multiply+0x14c>)
 80056d6:	f000 fced 	bl	80060b4 <__assert_func>
 80056da:	f100 0514 	add.w	r5, r0, #20
 80056de:	462b      	mov	r3, r5
 80056e0:	2200      	movs	r2, #0
 80056e2:	eb05 0786 	add.w	r7, r5, r6, lsl #2
 80056e6:	42bb      	cmp	r3, r7
 80056e8:	d31f      	bcc.n	800572a <__multiply+0x92>
 80056ea:	f104 0c14 	add.w	ip, r4, #20
 80056ee:	f108 0114 	add.w	r1, r8, #20
 80056f2:	eb0c 038a 	add.w	r3, ip, sl, lsl #2
 80056f6:	eb01 0289 	add.w	r2, r1, r9, lsl #2
 80056fa:	9202      	str	r2, [sp, #8]
 80056fc:	1b1a      	subs	r2, r3, r4
 80056fe:	3a15      	subs	r2, #21
 8005700:	f022 0203 	bic.w	r2, r2, #3
 8005704:	3415      	adds	r4, #21
 8005706:	429c      	cmp	r4, r3
 8005708:	bf88      	it	hi
 800570a:	2200      	movhi	r2, #0
 800570c:	9201      	str	r2, [sp, #4]
 800570e:	9a02      	ldr	r2, [sp, #8]
 8005710:	9103      	str	r1, [sp, #12]
 8005712:	428a      	cmp	r2, r1
 8005714:	d80c      	bhi.n	8005730 <__multiply+0x98>
 8005716:	2e00      	cmp	r6, #0
 8005718:	dd03      	ble.n	8005722 <__multiply+0x8a>
 800571a:	f857 3d04 	ldr.w	r3, [r7, #-4]!
 800571e:	2b00      	cmp	r3, #0
 8005720:	d05c      	beq.n	80057dc <__multiply+0x144>
 8005722:	6106      	str	r6, [r0, #16]
 8005724:	b005      	add	sp, #20
 8005726:	e8bd 8ff0 	ldmia.w	sp!, {r4, r5, r6, r7, r8, r9, sl, fp, pc}
 800572a:	f843 2b04 	str.w	r2, [r3], #4
 800572e:	e7da      	b.n	80056e6 <__multiply+0x4e>
 8005730:	f8b1 a000 	ldrh.w	sl, [r1]
 8005734:	f1ba 0f00 	cmp.w	sl, #0
 8005738:	d023      	beq.n	8005782 <__multiply+0xea>
 800573a:	46e0      	mov	r8, ip
 800573c:	46a9      	mov	r9, r5
 800573e:	f04f 0e00 	mov.w	lr, #0
 8005742:	f858 2b04 	ldr.w	r2, [r8], #4
 8005746:	f8d9 4000 	ldr.w	r4, [r9]
 800574a:	fa1f fb82 	uxth.w	fp, r2
 800574e:	b2a4      	uxth	r4, r4
 8005750:	fb0a 440b 	mla	r4, sl, fp, r4
 8005754:	4474      	add	r4, lr
 8005756:	f8d9 e000 	ldr.w	lr, [r9]
 800575a:	0c12      	lsrs	r2, r2, #16
 800575c:	ea4f 4e1e 	mov.w	lr, lr, lsr #16
 8005760:	fb0a e202 	mla	r2, sl, r2, lr
 8005764:	eb02 4214 	add.w	r2, r2, r4, lsr #16
 8005768:	b2a4      	uxth	r4, r4
 800576a:	ea44 4402 	orr.w	r4, r4, r2, lsl #16
 800576e:	4543      	cmp	r3, r8
 8005770:	ea4f 4e12 	mov.w	lr, r2, lsr #16
 8005774:	f849 4b04 	str.w	r4, [r9], #4
 8005778:	d8e3      	bhi.n	8005742 <__multiply+0xaa>
 800577a:	9a01      	ldr	r2, [sp, #4]
 800577c:	18aa      	adds	r2, r5, r2
 800577e:	f8c2 e004 	str.w	lr, [r2, #4]
 8005782:	9a03      	ldr	r2, [sp, #12]
 8005784:	3104      	adds	r1, #4
 8005786:	f8b2 8002 	ldrh.w	r8, [r2, #2]
 800578a:	f1b8 0f00 	cmp.w	r8, #0
 800578e:	d023      	beq.n	80057d8 <__multiply+0x140>
 8005790:	682a      	ldr	r2, [r5, #0]
 8005792:	46e6      	mov	lr, ip
 8005794:	4691      	mov	r9, r2
 8005796:	46aa      	mov	sl, r5
 8005798:	f04f 0b00 	mov.w	fp, #0
 800579c:	f8be 4000 	ldrh.w	r4, [lr]
 80057a0:	b292      	uxth	r2, r2
 80057a2:	fb08 b404 	mla	r4, r8, r4, fp
 80057a6:	eb04 4419 	add.w	r4, r4, r9, lsr #16
 80057aa:	ea42 4204 	orr.w	r2, r2, r4, lsl #16
 80057ae:	f84a 2b04 	str.w	r2, [sl], #4
 80057b2:	f85e 2b04 	ldr.w	r2, [lr], #4
 80057b6:	f8da 9000 	ldr.w	r9, [sl]
 80057ba:	ea4f 4b12 	mov.w	fp, r2, lsr #16
 80057be:	fa1f f289 	uxth.w	r2, r9
 80057c2:	fb08 220b 	mla	r2, r8, fp, r2
 80057c6:	4573      	cmp	r3, lr
 80057c8:	eb02 4214 	add.w	r2, r2, r4, lsr #16
 80057cc:	ea4f 4b12 	mov.w	fp, r2, lsr #16
 80057d0:	d8e4      	bhi.n	800579c <__multiply+0x104>
 80057d2:	9c01      	ldr	r4, [sp, #4]
 80057d4:	192c      	adds	r4, r5, r4
 80057d6:	6062      	str	r2, [r4, #4]
 80057d8:	3504      	adds	r5, #4
 80057da:	e798      	b.n	800570e <__multiply+0x76>
 80057dc:	3e01      	subs	r6, #1
 80057de:	e79a      	b.n	8005716 <__multiply+0x7e>
 80057e0:	08006416 	.word	0x08006416
 80057e4:	08006427 	.word	0x08006427

080057e8 <__pow5mult>:
 80057e8:	e92d 43f8 	stmdb	sp!, {r3, r4, r5, r6, r7, r8, r9, lr}
 80057ec:	4617      	mov	r7, r2
 80057ee:	f012 0203 	ands.w	r2, r2, #3
 80057f2:	4680      	mov	r8, r0
 80057f4:	460d      	mov	r5, r1
 80057f6:	d007      	beq.n	8005808 <__pow5mult+0x20>
 80057f8:	4c26      	ldr	r4, [pc, #152]	@ (8005894 <__pow5mult+0xac>)
 80057fa:	3a01      	subs	r2, #1
 80057fc:	2300      	movs	r3, #0
 80057fe:	f854 2022 	ldr.w	r2, [r4, r2, lsl #2]
 8005802:	f7ff fea1 	bl	8005548 <__multadd>
 8005806:	4605      	mov	r5, r0
 8005808:	10bf      	asrs	r7, r7, #2
 800580a:	d03f      	beq.n	800588c <__pow5mult+0xa4>
 800580c:	f8d8 401c 	ldr.w	r4, [r8, #28]
 8005810:	b994      	cbnz	r4, 8005838 <__pow5mult+0x50>
 8005812:	2010      	movs	r0, #16
 8005814:	f7ff fd82 	bl	800531c <malloc>
 8005818:	4604      	mov	r4, r0
 800581a:	f8c8 001c 	str.w	r0, [r8, #28]
 800581e:	b930      	cbnz	r0, 800582e <__pow5mult+0x46>
 8005820:	4602      	mov	r2, r0
 8005822:	f240 11b3 	movw	r1, #435	@ 0x1b3
 8005826:	4b1c      	ldr	r3, [pc, #112]	@ (8005898 <__pow5mult+0xb0>)
 8005828:	481c      	ldr	r0, [pc, #112]	@ (800589c <__pow5mult+0xb4>)
 800582a:	f000 fc43 	bl	80060b4 <__assert_func>
 800582e:	2300      	movs	r3, #0
 8005830:	e9c0 3301 	strd	r3, r3, [r0, #4]
 8005834:	6003      	str	r3, [r0, #0]
 8005836:	60c3      	str	r3, [r0, #12]
 8005838:	68a6      	ldr	r6, [r4, #8]
 800583a:	b946      	cbnz	r6, 800584e <__pow5mult+0x66>
 800583c:	f240 2171 	movw	r1, #625	@ 0x271
 8005840:	4640      	mov	r0, r8
 8005842:	f7ff ff13 	bl	800566c <__i2b>
 8005846:	2300      	movs	r3, #0
 8005848:	4606      	mov	r6, r0
 800584a:	60a0      	str	r0, [r4, #8]
 800584c:	6003      	str	r3, [r0, #0]
 800584e:	462c      	mov	r4, r5
 8005850:	f04f 0900 	mov.w	r9, #0
 8005854:	f007 0301 	and.w	r3, r7, #1
 8005858:	107f      	asrs	r7, r7, #1
 800585a:	b153      	cbz	r3, 8005872 <__pow5mult+0x8a>
 800585c:	4629      	mov	r1, r5
 800585e:	4632      	mov	r2, r6
 8005860:	4640      	mov	r0, r8
 8005862:	f7ff ff19 	bl	8005698 <__multiply>
 8005866:	4621      	mov	r1, r4
 8005868:	4605      	mov	r5, r0
 800586a:	4640      	mov	r0, r8
 800586c:	f7ff fe4a 	bl	8005504 <_Bfree>
 8005870:	b167      	cbz	r7, 800588c <__pow5mult+0xa4>
 8005872:	6830      	ldr	r0, [r6, #0]
 8005874:	b938      	cbnz	r0, 8005886 <__pow5mult+0x9e>
 8005876:	4632      	mov	r2, r6
 8005878:	4631      	mov	r1, r6
 800587a:	4640      	mov	r0, r8
 800587c:	f7ff ff0c 	bl	8005698 <__multiply>
 8005880:	6030      	str	r0, [r6, #0]
 8005882:	f8c0 9000 	str.w	r9, [r0]
 8005886:	4606      	mov	r6, r0
 8005888:	462c      	mov	r4, r5
 800588a:	e7e3      	b.n	8005854 <__pow5mult+0x6c>
 800588c:	4628      	mov	r0, r5
 800588e:	e8bd 83f8 	ldmia.w	sp!, {r3, r4, r5, r6, r7, r8, r9, pc}
 8005892:	bf00      	nop
 8005894:	080064d8 	.word	0x080064d8
 8005898:	080063a7 	.word	0x080063a7
 800589c:	08006427 	.word	0x08006427

080058a0 <__lshift>:
 80058a0:	e92d 4ff8 	stmdb	sp!, {r3, r4, r5, r6, r7, r8, r9, sl, fp, lr}
 80058a4:	460c      	mov	r4, r1
 80058a6:	4607      	mov	r7, r0
 80058a8:	4615      	mov	r5, r2
 80058aa:	6923      	ldr	r3, [r4, #16]
 80058ac:	6849      	ldr	r1, [r1, #4]
 80058ae:	eb03 1862 	add.w	r8, r3, r2, asr #5
 80058b2:	68a3      	ldr	r3, [r4, #8]
 80058b4:	ea4f 1a62 	mov.w	sl, r2, asr #5
 80058b8:	f108 0901 	add.w	r9, r8, #1
 80058bc:	454b      	cmp	r3, r9
 80058be:	db0b      	blt.n	80058d8 <__lshift+0x38>
 80058c0:	4638      	mov	r0, r7
 80058c2:	f7ff fde1 	bl	8005488 <_Balloc>
 80058c6:	4606      	mov	r6, r0
 80058c8:	b948      	cbnz	r0, 80058de <__lshift+0x3e>
 80058ca:	4602      	mov	r2, r0
 80058cc:	f44f 71ef 	mov.w	r1, #478	@ 0x1de
 80058d0:	4b27      	ldr	r3, [pc, #156]	@ (8005970 <__lshift+0xd0>)
 80058d2:	4828      	ldr	r0, [pc, #160]	@ (8005974 <__lshift+0xd4>)
 80058d4:	f000 fbee 	bl	80060b4 <__assert_func>
 80058d8:	3101      	adds	r1, #1
 80058da:	005b      	lsls	r3, r3, #1
 80058dc:	e7ee      	b.n	80058bc <__lshift+0x1c>
 80058de:	2300      	movs	r3, #0
 80058e0:	4619      	mov	r1, r3
 80058e2:	f100 0c14 	add.w	ip, r0, #20
 80058e6:	f100 0210 	add.w	r2, r0, #16
 80058ea:	4553      	cmp	r3, sl
 80058ec:	db34      	blt.n	8005958 <__lshift+0xb8>
 80058ee:	6922      	ldr	r2, [r4, #16]
 80058f0:	ea2a 7aea 	bic.w	sl, sl, sl, asr #31
 80058f4:	eb0c 0c8a 	add.w	ip, ip, sl, lsl #2
 80058f8:	f104 0314 	add.w	r3, r4, #20
 80058fc:	f015 0e1f 	ands.w	lr, r5, #31
 8005900:	4661      	mov	r1, ip
 8005902:	eb03 0282 	add.w	r2, r3, r2, lsl #2
 8005906:	d02b      	beq.n	8005960 <__lshift+0xc0>
 8005908:	2500      	movs	r5, #0
 800590a:	f1ce 0a20 	rsb	sl, lr, #32
 800590e:	468b      	mov	fp, r1
 8005910:	6818      	ldr	r0, [r3, #0]
 8005912:	3104      	adds	r1, #4
 8005914:	fa00 f00e 	lsl.w	r0, r0, lr
 8005918:	4328      	orrs	r0, r5
 800591a:	f8cb 0000 	str.w	r0, [fp]
 800591e:	f853 5b04 	ldr.w	r5, [r3], #4
 8005922:	429a      	cmp	r2, r3
 8005924:	fa25 f50a 	lsr.w	r5, r5, sl
 8005928:	d8f1      	bhi.n	800590e <__lshift+0x6e>
 800592a:	1b13      	subs	r3, r2, r4
 800592c:	3b15      	subs	r3, #21
 800592e:	f023 0303 	bic.w	r3, r3, #3
 8005932:	f104 0115 	add.w	r1, r4, #21
 8005936:	428a      	cmp	r2, r1
 8005938:	bf38      	it	cc
 800593a:	2300      	movcc	r3, #0
 800593c:	449c      	add	ip, r3
 800593e:	f8cc 5004 	str.w	r5, [ip, #4]
 8005942:	b905      	cbnz	r5, 8005946 <__lshift+0xa6>
 8005944:	46c1      	mov	r9, r8
 8005946:	4638      	mov	r0, r7
 8005948:	4621      	mov	r1, r4
 800594a:	f8c6 9010 	str.w	r9, [r6, #16]
 800594e:	f7ff fdd9 	bl	8005504 <_Bfree>
 8005952:	4630      	mov	r0, r6
 8005954:	e8bd 8ff8 	ldmia.w	sp!, {r3, r4, r5, r6, r7, r8, r9, sl, fp, pc}
 8005958:	f842 1f04 	str.w	r1, [r2, #4]!
 800595c:	3301      	adds	r3, #1
 800595e:	e7c4      	b.n	80058ea <__lshift+0x4a>
 8005960:	f853 5b04 	ldr.w	r5, [r3], #4
 8005964:	3104      	adds	r1, #4
 8005966:	429a      	cmp	r2, r3
 8005968:	f841 5c04 	str.w	r5, [r1, #-4]
 800596c:	d8f8      	bhi.n	8005960 <__lshift+0xc0>
 800596e:	e7e9      	b.n	8005944 <__lshift+0xa4>
 8005970:	08006416 	.word	0x08006416
 8005974:	08006427 	.word	0x08006427

08005978 <__mcmp>:
 8005978:	4603      	mov	r3, r0
 800597a:	690a      	ldr	r2, [r1, #16]
 800597c:	6900      	ldr	r0, [r0, #16]
 800597e:	b530      	push	{r4, r5, lr}
 8005980:	1a80      	subs	r0, r0, r2
 8005982:	d10e      	bne.n	80059a2 <__mcmp+0x2a>
 8005984:	3314      	adds	r3, #20
 8005986:	3114      	adds	r1, #20
 8005988:	eb03 0482 	add.w	r4, r3, r2, lsl #2
 800598c:	eb01 0182 	add.w	r1, r1, r2, lsl #2
 8005990:	f854 5d04 	ldr.w	r5, [r4, #-4]!
 8005994:	f851 2d04 	ldr.w	r2, [r1, #-4]!
 8005998:	4295      	cmp	r5, r2
 800599a:	d003      	beq.n	80059a4 <__mcmp+0x2c>
 800599c:	d205      	bcs.n	80059aa <__mcmp+0x32>
 800599e:	f04f 30ff 	mov.w	r0, #4294967295	@ 0xffffffff
 80059a2:	bd30      	pop	{r4, r5, pc}
 80059a4:	42a3      	cmp	r3, r4
 80059a6:	d3f3      	bcc.n	8005990 <__mcmp+0x18>
 80059a8:	e7fb      	b.n	80059a2 <__mcmp+0x2a>
 80059aa:	2001      	movs	r0, #1
 80059ac:	e7f9      	b.n	80059a2 <__mcmp+0x2a>
	...

080059b0 <__mdiff>:
 80059b0:	e92d 4ff7 	stmdb	sp!, {r0, r1, r2, r4, r5, r6, r7, r8, r9, sl, fp, lr}
 80059b4:	468a      	mov	sl, r1
 80059b6:	4606      	mov	r6, r0
 80059b8:	4611      	mov	r1, r2
 80059ba:	4650      	mov	r0, sl
 80059bc:	4614      	mov	r4, r2
 80059be:	f7ff ffdb 	bl	8005978 <__mcmp>
 80059c2:	1e05      	subs	r5, r0, #0
 80059c4:	d112      	bne.n	80059ec <__mdiff+0x3c>
 80059c6:	4629      	mov	r1, r5
 80059c8:	4630      	mov	r0, r6
 80059ca:	f7ff fd5d 	bl	8005488 <_Balloc>
 80059ce:	4602      	mov	r2, r0
 80059d0:	b928      	cbnz	r0, 80059de <__mdiff+0x2e>
 80059d2:	f240 2137 	movw	r1, #567	@ 0x237
 80059d6:	4b40      	ldr	r3, [pc, #256]	@ (8005ad8 <__mdiff+0x128>)
 80059d8:	4840      	ldr	r0, [pc, #256]	@ (8005adc <__mdiff+0x12c>)
 80059da:	f000 fb6b 	bl	80060b4 <__assert_func>
 80059de:	2301      	movs	r3, #1
 80059e0:	e9c0 3504 	strd	r3, r5, [r0, #16]
 80059e4:	4610      	mov	r0, r2
 80059e6:	b003      	add	sp, #12
 80059e8:	e8bd 8ff0 	ldmia.w	sp!, {r4, r5, r6, r7, r8, r9, sl, fp, pc}
 80059ec:	bfbc      	itt	lt
 80059ee:	4653      	movlt	r3, sl
 80059f0:	46a2      	movlt	sl, r4
 80059f2:	4630      	mov	r0, r6
 80059f4:	f8da 1004 	ldr.w	r1, [sl, #4]
 80059f8:	bfba      	itte	lt
 80059fa:	461c      	movlt	r4, r3
 80059fc:	2501      	movlt	r5, #1
 80059fe:	2500      	movge	r5, #0
 8005a00:	f7ff fd42 	bl	8005488 <_Balloc>
 8005a04:	4602      	mov	r2, r0
 8005a06:	b918      	cbnz	r0, 8005a10 <__mdiff+0x60>
 8005a08:	f240 2145 	movw	r1, #581	@ 0x245
 8005a0c:	4b32      	ldr	r3, [pc, #200]	@ (8005ad8 <__mdiff+0x128>)
 8005a0e:	e7e3      	b.n	80059d8 <__mdiff+0x28>
 8005a10:	60c5      	str	r5, [r0, #12]
 8005a12:	f100 0514 	add.w	r5, r0, #20
 8005a16:	46ab      	mov	fp, r5
 8005a18:	f04f 0c00 	mov.w	ip, #0
 8005a1c:	f8da 7010 	ldr.w	r7, [sl, #16]
 8005a20:	6926      	ldr	r6, [r4, #16]
 8005a22:	f10a 0914 	add.w	r9, sl, #20
 8005a26:	f104 0e14 	add.w	lr, r4, #20
 8005a2a:	f10a 0310 	add.w	r3, sl, #16
 8005a2e:	eb09 0887 	add.w	r8, r9, r7, lsl #2
 8005a32:	eb0e 0686 	add.w	r6, lr, r6, lsl #2
 8005a36:	9301      	str	r3, [sp, #4]
 8005a38:	9b01      	ldr	r3, [sp, #4]
 8005a3a:	f85e 0b04 	ldr.w	r0, [lr], #4
 8005a3e:	f853 af04 	ldr.w	sl, [r3, #4]!
 8005a42:	b281      	uxth	r1, r0
 8005a44:	9301      	str	r3, [sp, #4]
 8005a46:	fa1f f38a 	uxth.w	r3, sl
 8005a4a:	1a5b      	subs	r3, r3, r1
 8005a4c:	0c00      	lsrs	r0, r0, #16
 8005a4e:	4463      	add	r3, ip
 8005a50:	ebc0 401a 	rsb	r0, r0, sl, lsr #16
 8005a54:	eb00 4023 	add.w	r0, r0, r3, asr #16
 8005a58:	b29b      	uxth	r3, r3
 8005a5a:	ea43 4300 	orr.w	r3, r3, r0, lsl #16
 8005a5e:	4576      	cmp	r6, lr
 8005a60:	ea4f 4c20 	mov.w	ip, r0, asr #16
 8005a64:	f84b 3b04 	str.w	r3, [fp], #4
 8005a68:	d8e6      	bhi.n	8005a38 <__mdiff+0x88>
 8005a6a:	1b33      	subs	r3, r6, r4
 8005a6c:	3b15      	subs	r3, #21
 8005a6e:	3415      	adds	r4, #21
 8005a70:	f023 0303 	bic.w	r3, r3, #3
 8005a74:	42a6      	cmp	r6, r4
 8005a76:	bf38      	it	cc
 8005a78:	2300      	movcc	r3, #0
 8005a7a:	18e8      	adds	r0, r5, r3
 8005a7c:	444b      	add	r3, r9
 8005a7e:	1d1c      	adds	r4, r3, #4
 8005a80:	4626      	mov	r6, r4
 8005a82:	3004      	adds	r0, #4
 8005a84:	eba5 0509 	sub.w	r5, r5, r9
 8005a88:	4546      	cmp	r6, r8
 8005a8a:	eb06 0e05 	add.w	lr, r6, r5
 8005a8e:	d30e      	bcc.n	8005aae <__mdiff+0xfe>
 8005a90:	f108 0103 	add.w	r1, r8, #3
 8005a94:	1b09      	subs	r1, r1, r4
 8005a96:	f021 0103 	bic.w	r1, r1, #3
 8005a9a:	3301      	adds	r3, #1
 8005a9c:	4598      	cmp	r8, r3
 8005a9e:	bf38      	it	cc
 8005aa0:	2100      	movcc	r1, #0
 8005aa2:	4401      	add	r1, r0
 8005aa4:	f851 3d04 	ldr.w	r3, [r1, #-4]!
 8005aa8:	b1a3      	cbz	r3, 8005ad4 <__mdiff+0x124>
 8005aaa:	6117      	str	r7, [r2, #16]
 8005aac:	e79a      	b.n	80059e4 <__mdiff+0x34>
 8005aae:	46e2      	mov	sl, ip
 8005ab0:	f856 1b04 	ldr.w	r1, [r6], #4
 8005ab4:	fa1f fc81 	uxth.w	ip, r1
 8005ab8:	44d4      	add	ip, sl
 8005aba:	ea4f 4911 	mov.w	r9, r1, lsr #16
 8005abe:	4451      	add	r1, sl
 8005ac0:	eb09 492c 	add.w	r9, r9, ip, asr #16
 8005ac4:	b289      	uxth	r1, r1
 8005ac6:	ea41 4109 	orr.w	r1, r1, r9, lsl #16
 8005aca:	ea4f 4c29 	mov.w	ip, r9, asr #16
 8005ace:	f8ce 1000 	str.w	r1, [lr]
 8005ad2:	e7d9      	b.n	8005a88 <__mdiff+0xd8>
 8005ad4:	3f01      	subs	r7, #1
 8005ad6:	e7e5      	b.n	8005aa4 <__mdiff+0xf4>
 8005ad8:	08006416 	.word	0x08006416
 8005adc:	08006427 	.word	0x08006427

08005ae0 <__d2b>:
 8005ae0:	e92d 4373 	stmdb	sp!, {r0, r1, r4, r5, r6, r8, r9, lr}
 8005ae4:	2101      	movs	r1, #1
 8005ae6:	4690      	mov	r8, r2
 8005ae8:	4699      	mov	r9, r3
 8005aea:	9e08      	ldr	r6, [sp, #32]
 8005aec:	f7ff fccc 	bl	8005488 <_Balloc>
 8005af0:	4604      	mov	r4, r0
 8005af2:	b930      	cbnz	r0, 8005b02 <__d2b+0x22>
 8005af4:	4602      	mov	r2, r0
 8005af6:	f240 310f 	movw	r1, #783	@ 0x30f
 8005afa:	4b23      	ldr	r3, [pc, #140]	@ (8005b88 <__d2b+0xa8>)
 8005afc:	4823      	ldr	r0, [pc, #140]	@ (8005b8c <__d2b+0xac>)
 8005afe:	f000 fad9 	bl	80060b4 <__assert_func>
 8005b02:	f3c9 550a 	ubfx	r5, r9, #20, #11
 8005b06:	f3c9 0313 	ubfx	r3, r9, #0, #20
 8005b0a:	b10d      	cbz	r5, 8005b10 <__d2b+0x30>
 8005b0c:	f443 1380 	orr.w	r3, r3, #1048576	@ 0x100000
 8005b10:	9301      	str	r3, [sp, #4]
 8005b12:	f1b8 0300 	subs.w	r3, r8, #0
 8005b16:	d024      	beq.n	8005b62 <__d2b+0x82>
 8005b18:	4668      	mov	r0, sp
 8005b1a:	9300      	str	r3, [sp, #0]
 8005b1c:	f7ff fd79 	bl	8005612 <__lo0bits>
 8005b20:	9900      	ldr	r1, [sp, #0]
 8005b22:	b1e0      	cbz	r0, 8005b5e <__d2b+0x7e>
 8005b24:	9a01      	ldr	r2, [sp, #4]
 8005b26:	f1c0 0320 	rsb	r3, r0, #32
 8005b2a:	fa02 f303 	lsl.w	r3, r2, r3
 8005b2e:	430b      	orrs	r3, r1
 8005b30:	40c2      	lsrs	r2, r0
 8005b32:	6163      	str	r3, [r4, #20]
 8005b34:	9201      	str	r2, [sp, #4]
 8005b36:	9b01      	ldr	r3, [sp, #4]
 8005b38:	2b00      	cmp	r3, #0
 8005b3a:	bf0c      	ite	eq
 8005b3c:	2201      	moveq	r2, #1
 8005b3e:	2202      	movne	r2, #2
 8005b40:	61a3      	str	r3, [r4, #24]
 8005b42:	6122      	str	r2, [r4, #16]
 8005b44:	b1ad      	cbz	r5, 8005b72 <__d2b+0x92>
 8005b46:	f2a5 4533 	subw	r5, r5, #1075	@ 0x433
 8005b4a:	4405      	add	r5, r0
 8005b4c:	6035      	str	r5, [r6, #0]
 8005b4e:	f1c0 0035 	rsb	r0, r0, #53	@ 0x35
 8005b52:	9b09      	ldr	r3, [sp, #36]	@ 0x24
 8005b54:	6018      	str	r0, [r3, #0]
 8005b56:	4620      	mov	r0, r4
 8005b58:	b002      	add	sp, #8
 8005b5a:	e8bd 8370 	ldmia.w	sp!, {r4, r5, r6, r8, r9, pc}
 8005b5e:	6161      	str	r1, [r4, #20]
 8005b60:	e7e9      	b.n	8005b36 <__d2b+0x56>
 8005b62:	a801      	add	r0, sp, #4
 8005b64:	f7ff fd55 	bl	8005612 <__lo0bits>
 8005b68:	9b01      	ldr	r3, [sp, #4]
 8005b6a:	2201      	movs	r2, #1
 8005b6c:	6163      	str	r3, [r4, #20]
 8005b6e:	3020      	adds	r0, #32
 8005b70:	e7e7      	b.n	8005b42 <__d2b+0x62>
 8005b72:	f2a0 4032 	subw	r0, r0, #1074	@ 0x432
 8005b76:	eb04 0382 	add.w	r3, r4, r2, lsl #2
 8005b7a:	6030      	str	r0, [r6, #0]
 8005b7c:	6918      	ldr	r0, [r3, #16]
 8005b7e:	f7ff fd29 	bl	80055d4 <__hi0bits>
 8005b82:	ebc0 1042 	rsb	r0, r0, r2, lsl #5
 8005b86:	e7e4      	b.n	8005b52 <__d2b+0x72>
 8005b88:	08006416 	.word	0x08006416
 8005b8c:	08006427 	.word	0x08006427

08005b90 <__sfputc_r>:
 8005b90:	6893      	ldr	r3, [r2, #8]
 8005b92:	b410      	push	{r4}
 8005b94:	3b01      	subs	r3, #1
 8005b96:	2b00      	cmp	r3, #0
 8005b98:	6093      	str	r3, [r2, #8]
 8005b9a:	da07      	bge.n	8005bac <__sfputc_r+0x1c>
 8005b9c:	6994      	ldr	r4, [r2, #24]
 8005b9e:	42a3      	cmp	r3, r4
 8005ba0:	db01      	blt.n	8005ba6 <__sfputc_r+0x16>
 8005ba2:	290a      	cmp	r1, #10
 8005ba4:	d102      	bne.n	8005bac <__sfputc_r+0x1c>
 8005ba6:	bc10      	pop	{r4}
 8005ba8:	f000 b9d4 	b.w	8005f54 <__swbuf_r>
 8005bac:	6813      	ldr	r3, [r2, #0]
 8005bae:	1c58      	adds	r0, r3, #1
 8005bb0:	6010      	str	r0, [r2, #0]
 8005bb2:	7019      	strb	r1, [r3, #0]
 8005bb4:	4608      	mov	r0, r1
 8005bb6:	bc10      	pop	{r4}
 8005bb8:	4770      	bx	lr

08005bba <__sfputs_r>:
 8005bba:	b5f8      	push	{r3, r4, r5, r6, r7, lr}
 8005bbc:	4606      	mov	r6, r0
 8005bbe:	460f      	mov	r7, r1
 8005bc0:	4614      	mov	r4, r2
 8005bc2:	18d5      	adds	r5, r2, r3
 8005bc4:	42ac      	cmp	r4, r5
 8005bc6:	d101      	bne.n	8005bcc <__sfputs_r+0x12>
 8005bc8:	2000      	movs	r0, #0
 8005bca:	e007      	b.n	8005bdc <__sfputs_r+0x22>
 8005bcc:	463a      	mov	r2, r7
 8005bce:	4630      	mov	r0, r6
 8005bd0:	f814 1b01 	ldrb.w	r1, [r4], #1
 8005bd4:	f7ff ffdc 	bl	8005b90 <__sfputc_r>
 8005bd8:	1c43      	adds	r3, r0, #1
 8005bda:	d1f3      	bne.n	8005bc4 <__sfputs_r+0xa>
 8005bdc:	bdf8      	pop	{r3, r4, r5, r6, r7, pc}
	...

08005be0 <_vfiprintf_r>:
 8005be0:	e92d 47f0 	stmdb	sp!, {r4, r5, r6, r7, r8, r9, sl, lr}
 8005be4:	460d      	mov	r5, r1
 8005be6:	4614      	mov	r4, r2
 8005be8:	461f      	mov	r7, r3
 8005bea:	4606      	mov	r6, r0
 8005bec:	b09c      	sub	sp, #112	@ 0x70
 8005bee:	b118      	cbz	r0, 8005bf8 <_vfiprintf_r+0x18>
 8005bf0:	6a03      	ldr	r3, [r0, #32]
 8005bf2:	b90b      	cbnz	r3, 8005bf8 <_vfiprintf_r+0x18>
 8005bf4:	f7fe fbc2 	bl	800437c <__sinit>
 8005bf8:	6e6b      	ldr	r3, [r5, #100]	@ 0x64
 8005bfa:	07d9      	lsls	r1, r3, #31
 8005bfc:	d405      	bmi.n	8005c0a <_vfiprintf_r+0x2a>
 8005bfe:	89ab      	ldrh	r3, [r5, #12]
 8005c00:	059a      	lsls	r2, r3, #22
 8005c02:	d402      	bmi.n	8005c0a <_vfiprintf_r+0x2a>
 8005c04:	6da8      	ldr	r0, [r5, #88]	@ 0x58
 8005c06:	f7fe fcc2 	bl	800458e <__retarget_lock_acquire_recursive>
 8005c0a:	89ab      	ldrh	r3, [r5, #12]
 8005c0c:	071b      	lsls	r3, r3, #28
 8005c0e:	d501      	bpl.n	8005c14 <_vfiprintf_r+0x34>
 8005c10:	692b      	ldr	r3, [r5, #16]
 8005c12:	b99b      	cbnz	r3, 8005c3c <_vfiprintf_r+0x5c>
 8005c14:	4629      	mov	r1, r5
 8005c16:	4630      	mov	r0, r6
 8005c18:	f000 f9da 	bl	8005fd0 <__swsetup_r>
 8005c1c:	b170      	cbz	r0, 8005c3c <_vfiprintf_r+0x5c>
 8005c1e:	6e6b      	ldr	r3, [r5, #100]	@ 0x64
 8005c20:	07dc      	lsls	r4, r3, #31
 8005c22:	d504      	bpl.n	8005c2e <_vfiprintf_r+0x4e>
 8005c24:	f04f 30ff 	mov.w	r0, #4294967295	@ 0xffffffff
 8005c28:	b01c      	add	sp, #112	@ 0x70
 8005c2a:	e8bd 87f0 	ldmia.w	sp!, {r4, r5, r6, r7, r8, r9, sl, pc}
 8005c2e:	89ab      	ldrh	r3, [r5, #12]
 8005c30:	0598      	lsls	r0, r3, #22
 8005c32:	d4f7      	bmi.n	8005c24 <_vfiprintf_r+0x44>
 8005c34:	6da8      	ldr	r0, [r5, #88]	@ 0x58
 8005c36:	f7fe fcab 	bl	8004590 <__retarget_lock_release_recursive>
 8005c3a:	e7f3      	b.n	8005c24 <_vfiprintf_r+0x44>
 8005c3c:	2300      	movs	r3, #0
 8005c3e:	9309      	str	r3, [sp, #36]	@ 0x24
 8005c40:	2320      	movs	r3, #32
 8005c42:	f88d 3029 	strb.w	r3, [sp, #41]	@ 0x29
 8005c46:	2330      	movs	r3, #48	@ 0x30
 8005c48:	f04f 0801 	mov.w	r8, #1
 8005c4c:	9703      	str	r7, [sp, #12]
 8005c4e:	4f69      	ldr	r7, [pc, #420]	@ (8005df4 <_vfiprintf_r+0x214>)
 8005c50:	f88d 302a 	strb.w	r3, [sp, #42]	@ 0x2a
 8005c54:	4623      	mov	r3, r4
 8005c56:	4699      	mov	r9, r3
 8005c58:	f813 2b01 	ldrb.w	r2, [r3], #1
 8005c5c:	b10a      	cbz	r2, 8005c62 <_vfiprintf_r+0x82>
 8005c5e:	2a25      	cmp	r2, #37	@ 0x25
 8005c60:	d1f9      	bne.n	8005c56 <_vfiprintf_r+0x76>
 8005c62:	ebb9 0a04 	subs.w	sl, r9, r4
 8005c66:	d00b      	beq.n	8005c80 <_vfiprintf_r+0xa0>
 8005c68:	4653      	mov	r3, sl
 8005c6a:	4622      	mov	r2, r4
 8005c6c:	4629      	mov	r1, r5
 8005c6e:	4630      	mov	r0, r6
 8005c70:	f7ff ffa3 	bl	8005bba <__sfputs_r>
 8005c74:	3001      	adds	r0, #1
 8005c76:	f000 80a4 	beq.w	8005dc2 <_vfiprintf_r+0x1e2>
 8005c7a:	9a09      	ldr	r2, [sp, #36]	@ 0x24
 8005c7c:	4452      	add	r2, sl
 8005c7e:	9209      	str	r2, [sp, #36]	@ 0x24
 8005c80:	f899 3000 	ldrb.w	r3, [r9]
 8005c84:	2b00      	cmp	r3, #0
 8005c86:	f000 809c 	beq.w	8005dc2 <_vfiprintf_r+0x1e2>
 8005c8a:	2300      	movs	r3, #0
 8005c8c:	f04f 32ff 	mov.w	r2, #4294967295	@ 0xffffffff
 8005c90:	e9cd 2305 	strd	r2, r3, [sp, #20]
 8005c94:	f109 0901 	add.w	r9, r9, #1
 8005c98:	9304      	str	r3, [sp, #16]
 8005c9a:	9307      	str	r3, [sp, #28]
 8005c9c:	f88d 3053 	strb.w	r3, [sp, #83]	@ 0x53
 8005ca0:	931a      	str	r3, [sp, #104]	@ 0x68
 8005ca2:	464c      	mov	r4, r9
 8005ca4:	2205      	movs	r2, #5
 8005ca6:	f814 1b01 	ldrb.w	r1, [r4], #1
 8005caa:	4852      	ldr	r0, [pc, #328]	@ (8005df4 <_vfiprintf_r+0x214>)
 8005cac:	f7fe fc71 	bl	8004592 <memchr>
 8005cb0:	9b04      	ldr	r3, [sp, #16]
 8005cb2:	b9d0      	cbnz	r0, 8005cea <_vfiprintf_r+0x10a>
 8005cb4:	06d9      	lsls	r1, r3, #27
 8005cb6:	bf44      	itt	mi
 8005cb8:	2220      	movmi	r2, #32
 8005cba:	f88d 2053 	strbmi.w	r2, [sp, #83]	@ 0x53
 8005cbe:	071a      	lsls	r2, r3, #28
 8005cc0:	bf44      	itt	mi
 8005cc2:	222b      	movmi	r2, #43	@ 0x2b
 8005cc4:	f88d 2053 	strbmi.w	r2, [sp, #83]	@ 0x53
 8005cc8:	f899 2000 	ldrb.w	r2, [r9]
 8005ccc:	2a2a      	cmp	r2, #42	@ 0x2a
 8005cce:	d013      	beq.n	8005cf8 <_vfiprintf_r+0x118>
 8005cd0:	464c      	mov	r4, r9
 8005cd2:	2000      	movs	r0, #0
 8005cd4:	f04f 0c0a 	mov.w	ip, #10
 8005cd8:	9a07      	ldr	r2, [sp, #28]
 8005cda:	4621      	mov	r1, r4
 8005cdc:	f811 3b01 	ldrb.w	r3, [r1], #1
 8005ce0:	3b30      	subs	r3, #48	@ 0x30
 8005ce2:	2b09      	cmp	r3, #9
 8005ce4:	d949      	bls.n	8005d7a <_vfiprintf_r+0x19a>
 8005ce6:	b968      	cbnz	r0, 8005d04 <_vfiprintf_r+0x124>
 8005ce8:	e013      	b.n	8005d12 <_vfiprintf_r+0x132>
 8005cea:	1bc0      	subs	r0, r0, r7
 8005cec:	fa08 f000 	lsl.w	r0, r8, r0
 8005cf0:	4318      	orrs	r0, r3
 8005cf2:	46a1      	mov	r9, r4
 8005cf4:	9004      	str	r0, [sp, #16]
 8005cf6:	e7d4      	b.n	8005ca2 <_vfiprintf_r+0xc2>
 8005cf8:	9a03      	ldr	r2, [sp, #12]
 8005cfa:	1d11      	adds	r1, r2, #4
 8005cfc:	6812      	ldr	r2, [r2, #0]
 8005cfe:	9103      	str	r1, [sp, #12]
 8005d00:	2a00      	cmp	r2, #0
 8005d02:	db01      	blt.n	8005d08 <_vfiprintf_r+0x128>
 8005d04:	9207      	str	r2, [sp, #28]
 8005d06:	e004      	b.n	8005d12 <_vfiprintf_r+0x132>
 8005d08:	4252      	negs	r2, r2
 8005d0a:	f043 0302 	orr.w	r3, r3, #2
 8005d0e:	9207      	str	r2, [sp, #28]
 8005d10:	9304      	str	r3, [sp, #16]
 8005d12:	7823      	ldrb	r3, [r4, #0]
 8005d14:	2b2e      	cmp	r3, #46	@ 0x2e
 8005d16:	d10a      	bne.n	8005d2e <_vfiprintf_r+0x14e>
 8005d18:	7863      	ldrb	r3, [r4, #1]
 8005d1a:	2b2a      	cmp	r3, #42	@ 0x2a
 8005d1c:	d132      	bne.n	8005d84 <_vfiprintf_r+0x1a4>
 8005d1e:	9b03      	ldr	r3, [sp, #12]
 8005d20:	3402      	adds	r4, #2
 8005d22:	1d1a      	adds	r2, r3, #4
 8005d24:	681b      	ldr	r3, [r3, #0]
 8005d26:	9203      	str	r2, [sp, #12]
 8005d28:	ea43 73e3 	orr.w	r3, r3, r3, asr #31
 8005d2c:	9305      	str	r3, [sp, #20]
 8005d2e:	f8df 90c8 	ldr.w	r9, [pc, #200]	@ 8005df8 <_vfiprintf_r+0x218>
 8005d32:	2203      	movs	r2, #3
 8005d34:	4648      	mov	r0, r9
 8005d36:	7821      	ldrb	r1, [r4, #0]
 8005d38:	f7fe fc2b 	bl	8004592 <memchr>
 8005d3c:	b138      	cbz	r0, 8005d4e <_vfiprintf_r+0x16e>
 8005d3e:	2240      	movs	r2, #64	@ 0x40
 8005d40:	9b04      	ldr	r3, [sp, #16]
 8005d42:	eba0 0009 	sub.w	r0, r0, r9
 8005d46:	4082      	lsls	r2, r0
 8005d48:	4313      	orrs	r3, r2
 8005d4a:	3401      	adds	r4, #1
 8005d4c:	9304      	str	r3, [sp, #16]
 8005d4e:	f814 1b01 	ldrb.w	r1, [r4], #1
 8005d52:	2206      	movs	r2, #6
 8005d54:	4829      	ldr	r0, [pc, #164]	@ (8005dfc <_vfiprintf_r+0x21c>)
 8005d56:	f88d 1028 	strb.w	r1, [sp, #40]	@ 0x28
 8005d5a:	f7fe fc1a 	bl	8004592 <memchr>
 8005d5e:	2800      	cmp	r0, #0
 8005d60:	d03e      	beq.n	8005de0 <_vfiprintf_r+0x200>
 8005d62:	4827      	ldr	r0, [pc, #156]	@ (8005e00 <_vfiprintf_r+0x220>)
 8005d64:	bb18      	cbnz	r0, 8005dae <_vfiprintf_r+0x1ce>
 8005d66:	9b03      	ldr	r3, [sp, #12]
 8005d68:	3307      	adds	r3, #7
 8005d6a:	f023 0307 	bic.w	r3, r3, #7
 8005d6e:	3308      	adds	r3, #8
 8005d70:	9303      	str	r3, [sp, #12]
 8005d72:	9b09      	ldr	r3, [sp, #36]	@ 0x24
 8005d74:	4403      	add	r3, r0
 8005d76:	9309      	str	r3, [sp, #36]	@ 0x24
 8005d78:	e76c      	b.n	8005c54 <_vfiprintf_r+0x74>
 8005d7a:	460c      	mov	r4, r1
 8005d7c:	2001      	movs	r0, #1
 8005d7e:	fb0c 3202 	mla	r2, ip, r2, r3
 8005d82:	e7aa      	b.n	8005cda <_vfiprintf_r+0xfa>
 8005d84:	2300      	movs	r3, #0
 8005d86:	f04f 0c0a 	mov.w	ip, #10
 8005d8a:	4619      	mov	r1, r3
 8005d8c:	3401      	adds	r4, #1
 8005d8e:	9305      	str	r3, [sp, #20]
 8005d90:	4620      	mov	r0, r4
 8005d92:	f810 2b01 	ldrb.w	r2, [r0], #1
 8005d96:	3a30      	subs	r2, #48	@ 0x30
 8005d98:	2a09      	cmp	r2, #9
 8005d9a:	d903      	bls.n	8005da4 <_vfiprintf_r+0x1c4>
 8005d9c:	2b00      	cmp	r3, #0
 8005d9e:	d0c6      	beq.n	8005d2e <_vfiprintf_r+0x14e>
 8005da0:	9105      	str	r1, [sp, #20]
 8005da2:	e7c4      	b.n	8005d2e <_vfiprintf_r+0x14e>
 8005da4:	4604      	mov	r4, r0
 8005da6:	2301      	movs	r3, #1
 8005da8:	fb0c 2101 	mla	r1, ip, r1, r2
 8005dac:	e7f0      	b.n	8005d90 <_vfiprintf_r+0x1b0>
 8005dae:	ab03      	add	r3, sp, #12
 8005db0:	9300      	str	r3, [sp, #0]
 8005db2:	462a      	mov	r2, r5
 8005db4:	4630      	mov	r0, r6
 8005db6:	4b13      	ldr	r3, [pc, #76]	@ (8005e04 <_vfiprintf_r+0x224>)
 8005db8:	a904      	add	r1, sp, #16
 8005dba:	f7fd fe8d 	bl	8003ad8 <_printf_float>
 8005dbe:	1c43      	adds	r3, r0, #1
 8005dc0:	d1d7      	bne.n	8005d72 <_vfiprintf_r+0x192>
 8005dc2:	6e6b      	ldr	r3, [r5, #100]	@ 0x64
 8005dc4:	07d9      	lsls	r1, r3, #31
 8005dc6:	d405      	bmi.n	8005dd4 <_vfiprintf_r+0x1f4>
 8005dc8:	89ab      	ldrh	r3, [r5, #12]
 8005dca:	059a      	lsls	r2, r3, #22
 8005dcc:	d402      	bmi.n	8005dd4 <_vfiprintf_r+0x1f4>
 8005dce:	6da8      	ldr	r0, [r5, #88]	@ 0x58
 8005dd0:	f7fe fbde 	bl	8004590 <__retarget_lock_release_recursive>
 8005dd4:	89ab      	ldrh	r3, [r5, #12]
 8005dd6:	065b      	lsls	r3, r3, #25
 8005dd8:	f53f af24 	bmi.w	8005c24 <_vfiprintf_r+0x44>
 8005ddc:	9809      	ldr	r0, [sp, #36]	@ 0x24
 8005dde:	e723      	b.n	8005c28 <_vfiprintf_r+0x48>
 8005de0:	ab03      	add	r3, sp, #12
 8005de2:	9300      	str	r3, [sp, #0]
 8005de4:	462a      	mov	r2, r5
 8005de6:	4630      	mov	r0, r6
 8005de8:	4b06      	ldr	r3, [pc, #24]	@ (8005e04 <_vfiprintf_r+0x224>)
 8005dea:	a904      	add	r1, sp, #16
 8005dec:	f7fe f912 	bl	8004014 <_printf_i>
 8005df0:	e7e5      	b.n	8005dbe <_vfiprintf_r+0x1de>
 8005df2:	bf00      	nop
 8005df4:	08006480 	.word	0x08006480
 8005df8:	08006486 	.word	0x08006486
 8005dfc:	0800648a 	.word	0x0800648a
 8005e00:	08003ad9 	.word	0x08003ad9
 8005e04:	08005bbb 	.word	0x08005bbb

08005e08 <__sflush_r>:
 8005e08:	f9b1 200c 	ldrsh.w	r2, [r1, #12]
 8005e0c:	b5f8      	push	{r3, r4, r5, r6, r7, lr}
 8005e0e:	0716      	lsls	r6, r2, #28
 8005e10:	4605      	mov	r5, r0
 8005e12:	460c      	mov	r4, r1
 8005e14:	d451      	bmi.n	8005eba <__sflush_r+0xb2>
 8005e16:	684b      	ldr	r3, [r1, #4]
 8005e18:	2b00      	cmp	r3, #0
 8005e1a:	dc02      	bgt.n	8005e22 <__sflush_r+0x1a>
 8005e1c:	6c0b      	ldr	r3, [r1, #64]	@ 0x40
 8005e1e:	2b00      	cmp	r3, #0
 8005e20:	dd49      	ble.n	8005eb6 <__sflush_r+0xae>
 8005e22:	6ae6      	ldr	r6, [r4, #44]	@ 0x2c
 8005e24:	2e00      	cmp	r6, #0
 8005e26:	d046      	beq.n	8005eb6 <__sflush_r+0xae>
 8005e28:	2300      	movs	r3, #0
 8005e2a:	f412 5280 	ands.w	r2, r2, #4096	@ 0x1000
 8005e2e:	682f      	ldr	r7, [r5, #0]
 8005e30:	602b      	str	r3, [r5, #0]
 8005e32:	d031      	beq.n	8005e98 <__sflush_r+0x90>
 8005e34:	6d62      	ldr	r2, [r4, #84]	@ 0x54
 8005e36:	89a3      	ldrh	r3, [r4, #12]
 8005e38:	0759      	lsls	r1, r3, #29
 8005e3a:	d505      	bpl.n	8005e48 <__sflush_r+0x40>
 8005e3c:	6863      	ldr	r3, [r4, #4]
 8005e3e:	1ad2      	subs	r2, r2, r3
 8005e40:	6b63      	ldr	r3, [r4, #52]	@ 0x34
 8005e42:	b10b      	cbz	r3, 8005e48 <__sflush_r+0x40>
 8005e44:	6c23      	ldr	r3, [r4, #64]	@ 0x40
 8005e46:	1ad2      	subs	r2, r2, r3
 8005e48:	2300      	movs	r3, #0
 8005e4a:	4628      	mov	r0, r5
 8005e4c:	6ae6      	ldr	r6, [r4, #44]	@ 0x2c
 8005e4e:	6a21      	ldr	r1, [r4, #32]
 8005e50:	47b0      	blx	r6
 8005e52:	1c42      	adds	r2, r0, #1
 8005e54:	f9b4 300c 	ldrsh.w	r3, [r4, #12]
 8005e58:	d106      	bne.n	8005e68 <__sflush_r+0x60>
 8005e5a:	6829      	ldr	r1, [r5, #0]
 8005e5c:	291d      	cmp	r1, #29
 8005e5e:	d845      	bhi.n	8005eec <__sflush_r+0xe4>
 8005e60:	4a27      	ldr	r2, [pc, #156]	@ (8005f00 <__sflush_r+0xf8>)
 8005e62:	40ca      	lsrs	r2, r1
 8005e64:	07d6      	lsls	r6, r2, #31
 8005e66:	d541      	bpl.n	8005eec <__sflush_r+0xe4>
 8005e68:	2200      	movs	r2, #0
 8005e6a:	6062      	str	r2, [r4, #4]
 8005e6c:	6922      	ldr	r2, [r4, #16]
 8005e6e:	04d9      	lsls	r1, r3, #19
 8005e70:	6022      	str	r2, [r4, #0]
 8005e72:	d504      	bpl.n	8005e7e <__sflush_r+0x76>
 8005e74:	1c42      	adds	r2, r0, #1
 8005e76:	d101      	bne.n	8005e7c <__sflush_r+0x74>
 8005e78:	682b      	ldr	r3, [r5, #0]
 8005e7a:	b903      	cbnz	r3, 8005e7e <__sflush_r+0x76>
 8005e7c:	6560      	str	r0, [r4, #84]	@ 0x54
 8005e7e:	6b61      	ldr	r1, [r4, #52]	@ 0x34
 8005e80:	602f      	str	r7, [r5, #0]
 8005e82:	b1c1      	cbz	r1, 8005eb6 <__sflush_r+0xae>
 8005e84:	f104 0344 	add.w	r3, r4, #68	@ 0x44
 8005e88:	4299      	cmp	r1, r3
 8005e8a:	d002      	beq.n	8005e92 <__sflush_r+0x8a>
 8005e8c:	4628      	mov	r0, r5
 8005e8e:	f7ff f9fd 	bl	800528c <_free_r>
 8005e92:	2300      	movs	r3, #0
 8005e94:	6363      	str	r3, [r4, #52]	@ 0x34
 8005e96:	e00e      	b.n	8005eb6 <__sflush_r+0xae>
 8005e98:	2301      	movs	r3, #1
 8005e9a:	4628      	mov	r0, r5
 8005e9c:	6a21      	ldr	r1, [r4, #32]
 8005e9e:	47b0      	blx	r6
 8005ea0:	4602      	mov	r2, r0
 8005ea2:	1c50      	adds	r0, r2, #1
 8005ea4:	d1c7      	bne.n	8005e36 <__sflush_r+0x2e>
 8005ea6:	682b      	ldr	r3, [r5, #0]
 8005ea8:	2b00      	cmp	r3, #0
 8005eaa:	d0c4      	beq.n	8005e36 <__sflush_r+0x2e>
 8005eac:	2b1d      	cmp	r3, #29
 8005eae:	d001      	beq.n	8005eb4 <__sflush_r+0xac>
 8005eb0:	2b16      	cmp	r3, #22
 8005eb2:	d119      	bne.n	8005ee8 <__sflush_r+0xe0>
 8005eb4:	602f      	str	r7, [r5, #0]
 8005eb6:	2000      	movs	r0, #0
 8005eb8:	e01d      	b.n	8005ef6 <__sflush_r+0xee>
 8005eba:	690f      	ldr	r7, [r1, #16]
 8005ebc:	2f00      	cmp	r7, #0
 8005ebe:	d0fa      	beq.n	8005eb6 <__sflush_r+0xae>
 8005ec0:	0793      	lsls	r3, r2, #30
 8005ec2:	bf18      	it	ne
 8005ec4:	2300      	movne	r3, #0
 8005ec6:	680e      	ldr	r6, [r1, #0]
 8005ec8:	bf08      	it	eq
 8005eca:	694b      	ldreq	r3, [r1, #20]
 8005ecc:	1bf6      	subs	r6, r6, r7
 8005ece:	600f      	str	r7, [r1, #0]
 8005ed0:	608b      	str	r3, [r1, #8]
 8005ed2:	2e00      	cmp	r6, #0
 8005ed4:	ddef      	ble.n	8005eb6 <__sflush_r+0xae>
 8005ed6:	4633      	mov	r3, r6
 8005ed8:	463a      	mov	r2, r7
 8005eda:	4628      	mov	r0, r5
 8005edc:	6a21      	ldr	r1, [r4, #32]
 8005ede:	f8d4 c028 	ldr.w	ip, [r4, #40]	@ 0x28
 8005ee2:	47e0      	blx	ip
 8005ee4:	2800      	cmp	r0, #0
 8005ee6:	dc07      	bgt.n	8005ef8 <__sflush_r+0xf0>
 8005ee8:	f9b4 300c 	ldrsh.w	r3, [r4, #12]
 8005eec:	f04f 30ff 	mov.w	r0, #4294967295	@ 0xffffffff
 8005ef0:	f043 0340 	orr.w	r3, r3, #64	@ 0x40
 8005ef4:	81a3      	strh	r3, [r4, #12]
 8005ef6:	bdf8      	pop	{r3, r4, r5, r6, r7, pc}
 8005ef8:	4407      	add	r7, r0
 8005efa:	1a36      	subs	r6, r6, r0
 8005efc:	e7e9      	b.n	8005ed2 <__sflush_r+0xca>
 8005efe:	bf00      	nop
 8005f00:	20400001 	.word	0x20400001

08005f04 <_fflush_r>:
 8005f04:	b538      	push	{r3, r4, r5, lr}
 8005f06:	690b      	ldr	r3, [r1, #16]
 8005f08:	4605      	mov	r5, r0
 8005f0a:	460c      	mov	r4, r1
 8005f0c:	b913      	cbnz	r3, 8005f14 <_fflush_r+0x10>
 8005f0e:	2500      	movs	r5, #0
 8005f10:	4628      	mov	r0, r5
 8005f12:	bd38      	pop	{r3, r4, r5, pc}
 8005f14:	b118      	cbz	r0, 8005f1e <_fflush_r+0x1a>
 8005f16:	6a03      	ldr	r3, [r0, #32]
 8005f18:	b90b      	cbnz	r3, 8005f1e <_fflush_r+0x1a>
 8005f1a:	f7fe fa2f 	bl	800437c <__sinit>
 8005f1e:	f9b4 300c 	ldrsh.w	r3, [r4, #12]
 8005f22:	2b00      	cmp	r3, #0
 8005f24:	d0f3      	beq.n	8005f0e <_fflush_r+0xa>
 8005f26:	6e62      	ldr	r2, [r4, #100]	@ 0x64
 8005f28:	07d0      	lsls	r0, r2, #31
 8005f2a:	d404      	bmi.n	8005f36 <_fflush_r+0x32>
 8005f2c:	0599      	lsls	r1, r3, #22
 8005f2e:	d402      	bmi.n	8005f36 <_fflush_r+0x32>
 8005f30:	6da0      	ldr	r0, [r4, #88]	@ 0x58
 8005f32:	f7fe fb2c 	bl	800458e <__retarget_lock_acquire_recursive>
 8005f36:	4628      	mov	r0, r5
 8005f38:	4621      	mov	r1, r4
 8005f3a:	f7ff ff65 	bl	8005e08 <__sflush_r>
 8005f3e:	6e63      	ldr	r3, [r4, #100]	@ 0x64
 8005f40:	4605      	mov	r5, r0
 8005f42:	07da      	lsls	r2, r3, #31
 8005f44:	d4e4      	bmi.n	8005f10 <_fflush_r+0xc>
 8005f46:	89a3      	ldrh	r3, [r4, #12]
 8005f48:	059b      	lsls	r3, r3, #22
 8005f4a:	d4e1      	bmi.n	8005f10 <_fflush_r+0xc>
 8005f4c:	6da0      	ldr	r0, [r4, #88]	@ 0x58
 8005f4e:	f7fe fb1f 	bl	8004590 <__retarget_lock_release_recursive>
 8005f52:	e7dd      	b.n	8005f10 <_fflush_r+0xc>

08005f54 <__swbuf_r>:
 8005f54:	b5f8      	push	{r3, r4, r5, r6, r7, lr}
 8005f56:	460e      	mov	r6, r1
 8005f58:	4614      	mov	r4, r2
 8005f5a:	4605      	mov	r5, r0
 8005f5c:	b118      	cbz	r0, 8005f66 <__swbuf_r+0x12>
 8005f5e:	6a03      	ldr	r3, [r0, #32]
 8005f60:	b90b      	cbnz	r3, 8005f66 <__swbuf_r+0x12>
 8005f62:	f7fe fa0b 	bl	800437c <__sinit>
 8005f66:	69a3      	ldr	r3, [r4, #24]
 8005f68:	60a3      	str	r3, [r4, #8]
 8005f6a:	89a3      	ldrh	r3, [r4, #12]
 8005f6c:	071a      	lsls	r2, r3, #28
 8005f6e:	d501      	bpl.n	8005f74 <__swbuf_r+0x20>
 8005f70:	6923      	ldr	r3, [r4, #16]
 8005f72:	b943      	cbnz	r3, 8005f86 <__swbuf_r+0x32>
 8005f74:	4621      	mov	r1, r4
 8005f76:	4628      	mov	r0, r5
 8005f78:	f000 f82a 	bl	8005fd0 <__swsetup_r>
 8005f7c:	b118      	cbz	r0, 8005f86 <__swbuf_r+0x32>
 8005f7e:	f04f 37ff 	mov.w	r7, #4294967295	@ 0xffffffff
 8005f82:	4638      	mov	r0, r7
 8005f84:	bdf8      	pop	{r3, r4, r5, r6, r7, pc}
 8005f86:	6823      	ldr	r3, [r4, #0]
 8005f88:	6922      	ldr	r2, [r4, #16]
 8005f8a:	b2f6      	uxtb	r6, r6
 8005f8c:	1a98      	subs	r0, r3, r2
 8005f8e:	6963      	ldr	r3, [r4, #20]
 8005f90:	4637      	mov	r7, r6
 8005f92:	4283      	cmp	r3, r0
 8005f94:	dc05      	bgt.n	8005fa2 <__swbuf_r+0x4e>
 8005f96:	4621      	mov	r1, r4
 8005f98:	4628      	mov	r0, r5
 8005f9a:	f7ff ffb3 	bl	8005f04 <_fflush_r>
 8005f9e:	2800      	cmp	r0, #0
 8005fa0:	d1ed      	bne.n	8005f7e <__swbuf_r+0x2a>
 8005fa2:	68a3      	ldr	r3, [r4, #8]
 8005fa4:	3b01      	subs	r3, #1
 8005fa6:	60a3      	str	r3, [r4, #8]
 8005fa8:	6823      	ldr	r3, [r4, #0]
 8005faa:	1c5a      	adds	r2, r3, #1
 8005fac:	6022      	str	r2, [r4, #0]
 8005fae:	701e      	strb	r6, [r3, #0]
 8005fb0:	6962      	ldr	r2, [r4, #20]
 8005fb2:	1c43      	adds	r3, r0, #1
 8005fb4:	429a      	cmp	r2, r3
 8005fb6:	d004      	beq.n	8005fc2 <__swbuf_r+0x6e>
 8005fb8:	89a3      	ldrh	r3, [r4, #12]
 8005fba:	07db      	lsls	r3, r3, #31
 8005fbc:	d5e1      	bpl.n	8005f82 <__swbuf_r+0x2e>
 8005fbe:	2e0a      	cmp	r6, #10
 8005fc0:	d1df      	bne.n	8005f82 <__swbuf_r+0x2e>
 8005fc2:	4621      	mov	r1, r4
 8005fc4:	4628      	mov	r0, r5
 8005fc6:	f7ff ff9d 	bl	8005f04 <_fflush_r>
 8005fca:	2800      	cmp	r0, #0
 8005fcc:	d0d9      	beq.n	8005f82 <__swbuf_r+0x2e>
 8005fce:	e7d6      	b.n	8005f7e <__swbuf_r+0x2a>

08005fd0 <__swsetup_r>:
 8005fd0:	b538      	push	{r3, r4, r5, lr}
 8005fd2:	4b28      	ldr	r3, [pc, #160]	@ (8006074 <__swsetup_r+0xa4>)
 8005fd4:	4605      	mov	r5, r0
 8005fd6:	6818      	ldr	r0, [r3, #0]
 8005fd8:	460c      	mov	r4, r1
 8005fda:	b118      	cbz	r0, 8005fe4 <__swsetup_r+0x14>
 8005fdc:	6a03      	ldr	r3, [r0, #32]
 8005fde:	b90b      	cbnz	r3, 8005fe4 <__swsetup_r+0x14>
 8005fe0:	f7fe f9cc 	bl	800437c <__sinit>
 8005fe4:	f9b4 300c 	ldrsh.w	r3, [r4, #12]
 8005fe8:	071a      	lsls	r2, r3, #28
 8005fea:	d421      	bmi.n	8006030 <__swsetup_r+0x60>
 8005fec:	06d8      	lsls	r0, r3, #27
 8005fee:	d407      	bmi.n	8006000 <__swsetup_r+0x30>
 8005ff0:	2209      	movs	r2, #9
 8005ff2:	602a      	str	r2, [r5, #0]
 8005ff4:	f043 0340 	orr.w	r3, r3, #64	@ 0x40
 8005ff8:	f04f 30ff 	mov.w	r0, #4294967295	@ 0xffffffff
 8005ffc:	81a3      	strh	r3, [r4, #12]
 8005ffe:	e030      	b.n	8006062 <__swsetup_r+0x92>
 8006000:	0759      	lsls	r1, r3, #29
 8006002:	d512      	bpl.n	800602a <__swsetup_r+0x5a>
 8006004:	6b61      	ldr	r1, [r4, #52]	@ 0x34
 8006006:	b141      	cbz	r1, 800601a <__swsetup_r+0x4a>
 8006008:	f104 0344 	add.w	r3, r4, #68	@ 0x44
 800600c:	4299      	cmp	r1, r3
 800600e:	d002      	beq.n	8006016 <__swsetup_r+0x46>
 8006010:	4628      	mov	r0, r5
 8006012:	f7ff f93b 	bl	800528c <_free_r>
 8006016:	2300      	movs	r3, #0
 8006018:	6363      	str	r3, [r4, #52]	@ 0x34
 800601a:	2200      	movs	r2, #0
 800601c:	f9b4 300c 	ldrsh.w	r3, [r4, #12]
 8006020:	6062      	str	r2, [r4, #4]
 8006022:	6922      	ldr	r2, [r4, #16]
 8006024:	f023 0324 	bic.w	r3, r3, #36	@ 0x24
 8006028:	6022      	str	r2, [r4, #0]
 800602a:	f043 0308 	orr.w	r3, r3, #8
 800602e:	81a3      	strh	r3, [r4, #12]
 8006030:	6922      	ldr	r2, [r4, #16]
 8006032:	b93a      	cbnz	r2, 8006044 <__swsetup_r+0x74>
 8006034:	059a      	lsls	r2, r3, #22
 8006036:	d501      	bpl.n	800603c <__swsetup_r+0x6c>
 8006038:	0618      	lsls	r0, r3, #24
 800603a:	d503      	bpl.n	8006044 <__swsetup_r+0x74>
 800603c:	4621      	mov	r1, r4
 800603e:	4628      	mov	r0, r5
 8006040:	f000 f8c0 	bl	80061c4 <__smakebuf_r>
 8006044:	f9b4 300c 	ldrsh.w	r3, [r4, #12]
 8006048:	f013 0201 	ands.w	r2, r3, #1
 800604c:	d00a      	beq.n	8006064 <__swsetup_r+0x94>
 800604e:	2200      	movs	r2, #0
 8006050:	60a2      	str	r2, [r4, #8]
 8006052:	6962      	ldr	r2, [r4, #20]
 8006054:	4252      	negs	r2, r2
 8006056:	61a2      	str	r2, [r4, #24]
 8006058:	6922      	ldr	r2, [r4, #16]
 800605a:	b942      	cbnz	r2, 800606e <__swsetup_r+0x9e>
 800605c:	f013 0080 	ands.w	r0, r3, #128	@ 0x80
 8006060:	d1c8      	bne.n	8005ff4 <__swsetup_r+0x24>
 8006062:	bd38      	pop	{r3, r4, r5, pc}
 8006064:	0799      	lsls	r1, r3, #30
 8006066:	bf58      	it	pl
 8006068:	6962      	ldrpl	r2, [r4, #20]
 800606a:	60a2      	str	r2, [r4, #8]
 800606c:	e7f4      	b.n	8006058 <__swsetup_r+0x88>
 800606e:	2000      	movs	r0, #0
 8006070:	e7f7      	b.n	8006062 <__swsetup_r+0x92>
 8006072:	bf00      	nop
 8006074:	2000001c 	.word	0x2000001c

08006078 <_sbrk_r>:
 8006078:	b538      	push	{r3, r4, r5, lr}
 800607a:	2300      	movs	r3, #0
 800607c:	4d05      	ldr	r5, [pc, #20]	@ (8006094 <_sbrk_r+0x1c>)
 800607e:	4604      	mov	r4, r0
 8006080:	4608      	mov	r0, r1
 8006082:	602b      	str	r3, [r5, #0]
 8006084:	f7fb fb30 	bl	80016e8 <_sbrk>
 8006088:	1c43      	adds	r3, r0, #1
 800608a:	d102      	bne.n	8006092 <_sbrk_r+0x1a>
 800608c:	682b      	ldr	r3, [r5, #0]
 800608e:	b103      	cbz	r3, 8006092 <_sbrk_r+0x1a>
 8006090:	6023      	str	r3, [r4, #0]
 8006092:	bd38      	pop	{r3, r4, r5, pc}
 8006094:	2000041c 	.word	0x2000041c

08006098 <memcpy>:
 8006098:	440a      	add	r2, r1
 800609a:	4291      	cmp	r1, r2
 800609c:	f100 33ff 	add.w	r3, r0, #4294967295	@ 0xffffffff
 80060a0:	d100      	bne.n	80060a4 <memcpy+0xc>
 80060a2:	4770      	bx	lr
 80060a4:	b510      	push	{r4, lr}
 80060a6:	f811 4b01 	ldrb.w	r4, [r1], #1
 80060aa:	4291      	cmp	r1, r2
 80060ac:	f803 4f01 	strb.w	r4, [r3, #1]!
 80060b0:	d1f9      	bne.n	80060a6 <memcpy+0xe>
 80060b2:	bd10      	pop	{r4, pc}

080060b4 <__assert_func>:
 80060b4:	b51f      	push	{r0, r1, r2, r3, r4, lr}
 80060b6:	4614      	mov	r4, r2
 80060b8:	461a      	mov	r2, r3
 80060ba:	4b09      	ldr	r3, [pc, #36]	@ (80060e0 <__assert_func+0x2c>)
 80060bc:	4605      	mov	r5, r0
 80060be:	681b      	ldr	r3, [r3, #0]
 80060c0:	68d8      	ldr	r0, [r3, #12]
 80060c2:	b14c      	cbz	r4, 80060d8 <__assert_func+0x24>
 80060c4:	4b07      	ldr	r3, [pc, #28]	@ (80060e4 <__assert_func+0x30>)
 80060c6:	e9cd 3401 	strd	r3, r4, [sp, #4]
 80060ca:	9100      	str	r1, [sp, #0]
 80060cc:	462b      	mov	r3, r5
 80060ce:	4906      	ldr	r1, [pc, #24]	@ (80060e8 <__assert_func+0x34>)
 80060d0:	f000 f842 	bl	8006158 <fiprintf>
 80060d4:	f000 f8d2 	bl	800627c <abort>
 80060d8:	4b04      	ldr	r3, [pc, #16]	@ (80060ec <__assert_func+0x38>)
 80060da:	461c      	mov	r4, r3
 80060dc:	e7f3      	b.n	80060c6 <__assert_func+0x12>
 80060de:	bf00      	nop
 80060e0:	2000001c 	.word	0x2000001c
 80060e4:	0800649b 	.word	0x0800649b
 80060e8:	080064a8 	.word	0x080064a8
 80060ec:	080064d6 	.word	0x080064d6

080060f0 <_calloc_r>:
 80060f0:	b570      	push	{r4, r5, r6, lr}
 80060f2:	fba1 5402 	umull	r5, r4, r1, r2
 80060f6:	b934      	cbnz	r4, 8006106 <_calloc_r+0x16>
 80060f8:	4629      	mov	r1, r5
 80060fa:	f7ff f939 	bl	8005370 <_malloc_r>
 80060fe:	4606      	mov	r6, r0
 8006100:	b928      	cbnz	r0, 800610e <_calloc_r+0x1e>
 8006102:	4630      	mov	r0, r6
 8006104:	bd70      	pop	{r4, r5, r6, pc}
 8006106:	220c      	movs	r2, #12
 8006108:	2600      	movs	r6, #0
 800610a:	6002      	str	r2, [r0, #0]
 800610c:	e7f9      	b.n	8006102 <_calloc_r+0x12>
 800610e:	462a      	mov	r2, r5
 8006110:	4621      	mov	r1, r4
 8006112:	f7fe f9bf 	bl	8004494 <memset>
 8006116:	e7f4      	b.n	8006102 <_calloc_r+0x12>

08006118 <__ascii_mbtowc>:
 8006118:	b082      	sub	sp, #8
 800611a:	b901      	cbnz	r1, 800611e <__ascii_mbtowc+0x6>
 800611c:	a901      	add	r1, sp, #4
 800611e:	b142      	cbz	r2, 8006132 <__ascii_mbtowc+0x1a>
 8006120:	b14b      	cbz	r3, 8006136 <__ascii_mbtowc+0x1e>
 8006122:	7813      	ldrb	r3, [r2, #0]
 8006124:	600b      	str	r3, [r1, #0]
 8006126:	7812      	ldrb	r2, [r2, #0]
 8006128:	1e10      	subs	r0, r2, #0
 800612a:	bf18      	it	ne
 800612c:	2001      	movne	r0, #1
 800612e:	b002      	add	sp, #8
 8006130:	4770      	bx	lr
 8006132:	4610      	mov	r0, r2
 8006134:	e7fb      	b.n	800612e <__ascii_mbtowc+0x16>
 8006136:	f06f 0001 	mvn.w	r0, #1
 800613a:	e7f8      	b.n	800612e <__ascii_mbtowc+0x16>

0800613c <__ascii_wctomb>:
 800613c:	4603      	mov	r3, r0
 800613e:	4608      	mov	r0, r1
 8006140:	b141      	cbz	r1, 8006154 <__ascii_wctomb+0x18>
 8006142:	2aff      	cmp	r2, #255	@ 0xff
 8006144:	d904      	bls.n	8006150 <__ascii_wctomb+0x14>
 8006146:	228a      	movs	r2, #138	@ 0x8a
 8006148:	f04f 30ff 	mov.w	r0, #4294967295	@ 0xffffffff
 800614c:	601a      	str	r2, [r3, #0]
 800614e:	4770      	bx	lr
 8006150:	2001      	movs	r0, #1
 8006152:	700a      	strb	r2, [r1, #0]
 8006154:	4770      	bx	lr
	...

08006158 <fiprintf>:
 8006158:	b40e      	push	{r1, r2, r3}
 800615a:	b503      	push	{r0, r1, lr}
 800615c:	4601      	mov	r1, r0
 800615e:	ab03      	add	r3, sp, #12
 8006160:	4805      	ldr	r0, [pc, #20]	@ (8006178 <fiprintf+0x20>)
 8006162:	f853 2b04 	ldr.w	r2, [r3], #4
 8006166:	6800      	ldr	r0, [r0, #0]
 8006168:	9301      	str	r3, [sp, #4]
 800616a:	f7ff fd39 	bl	8005be0 <_vfiprintf_r>
 800616e:	b002      	add	sp, #8
 8006170:	f85d eb04 	ldr.w	lr, [sp], #4
 8006174:	b003      	add	sp, #12
 8006176:	4770      	bx	lr
 8006178:	2000001c 	.word	0x2000001c

0800617c <__swhatbuf_r>:
 800617c:	b570      	push	{r4, r5, r6, lr}
 800617e:	460c      	mov	r4, r1
 8006180:	f9b1 100e 	ldrsh.w	r1, [r1, #14]
 8006184:	4615      	mov	r5, r2
 8006186:	2900      	cmp	r1, #0
 8006188:	461e      	mov	r6, r3
 800618a:	b096      	sub	sp, #88	@ 0x58
 800618c:	da0a      	bge.n	80061a4 <__swhatbuf_r+0x28>
 800618e:	89a1      	ldrh	r1, [r4, #12]
 8006190:	f011 0180 	ands.w	r1, r1, #128	@ 0x80
 8006194:	d113      	bne.n	80061be <__swhatbuf_r+0x42>
 8006196:	f44f 6280 	mov.w	r2, #1024	@ 0x400
 800619a:	2000      	movs	r0, #0
 800619c:	6031      	str	r1, [r6, #0]
 800619e:	602a      	str	r2, [r5, #0]
 80061a0:	b016      	add	sp, #88	@ 0x58
 80061a2:	bd70      	pop	{r4, r5, r6, pc}
 80061a4:	466a      	mov	r2, sp
 80061a6:	f000 f847 	bl	8006238 <_fstat_r>
 80061aa:	2800      	cmp	r0, #0
 80061ac:	dbef      	blt.n	800618e <__swhatbuf_r+0x12>
 80061ae:	9901      	ldr	r1, [sp, #4]
 80061b0:	f401 4170 	and.w	r1, r1, #61440	@ 0xf000
 80061b4:	f5a1 5300 	sub.w	r3, r1, #8192	@ 0x2000
 80061b8:	4259      	negs	r1, r3
 80061ba:	4159      	adcs	r1, r3
 80061bc:	e7eb      	b.n	8006196 <__swhatbuf_r+0x1a>
 80061be:	2100      	movs	r1, #0
 80061c0:	2240      	movs	r2, #64	@ 0x40
 80061c2:	e7ea      	b.n	800619a <__swhatbuf_r+0x1e>

080061c4 <__smakebuf_r>:
 80061c4:	898b      	ldrh	r3, [r1, #12]
 80061c6:	b573      	push	{r0, r1, r4, r5, r6, lr}
 80061c8:	079e      	lsls	r6, r3, #30
 80061ca:	4605      	mov	r5, r0
 80061cc:	460c      	mov	r4, r1
 80061ce:	d507      	bpl.n	80061e0 <__smakebuf_r+0x1c>
 80061d0:	f104 0347 	add.w	r3, r4, #71	@ 0x47
 80061d4:	6023      	str	r3, [r4, #0]
 80061d6:	6123      	str	r3, [r4, #16]
 80061d8:	2301      	movs	r3, #1
 80061da:	6163      	str	r3, [r4, #20]
 80061dc:	b002      	add	sp, #8
 80061de:	bd70      	pop	{r4, r5, r6, pc}
 80061e0:	ab01      	add	r3, sp, #4
 80061e2:	466a      	mov	r2, sp
 80061e4:	f7ff ffca 	bl	800617c <__swhatbuf_r>
 80061e8:	9e00      	ldr	r6, [sp, #0]
 80061ea:	4628      	mov	r0, r5
 80061ec:	4631      	mov	r1, r6
 80061ee:	f7ff f8bf 	bl	8005370 <_malloc_r>
 80061f2:	f9b4 300c 	ldrsh.w	r3, [r4, #12]
 80061f6:	b938      	cbnz	r0, 8006208 <__smakebuf_r+0x44>
 80061f8:	059a      	lsls	r2, r3, #22
 80061fa:	d4ef      	bmi.n	80061dc <__smakebuf_r+0x18>
 80061fc:	f023 0303 	bic.w	r3, r3, #3
 8006200:	f043 0302 	orr.w	r3, r3, #2
 8006204:	81a3      	strh	r3, [r4, #12]
 8006206:	e7e3      	b.n	80061d0 <__smakebuf_r+0xc>
 8006208:	f043 0380 	orr.w	r3, r3, #128	@ 0x80
 800620c:	81a3      	strh	r3, [r4, #12]
 800620e:	9b01      	ldr	r3, [sp, #4]
 8006210:	e9c4 0604 	strd	r0, r6, [r4, #16]
 8006214:	6020      	str	r0, [r4, #0]
 8006216:	2b00      	cmp	r3, #0
 8006218:	d0e0      	beq.n	80061dc <__smakebuf_r+0x18>
 800621a:	4628      	mov	r0, r5
 800621c:	f9b4 100e 	ldrsh.w	r1, [r4, #14]
 8006220:	f000 f81c 	bl	800625c <_isatty_r>
 8006224:	2800      	cmp	r0, #0
 8006226:	d0d9      	beq.n	80061dc <__smakebuf_r+0x18>
 8006228:	89a3      	ldrh	r3, [r4, #12]
 800622a:	f023 0303 	bic.w	r3, r3, #3
 800622e:	f043 0301 	orr.w	r3, r3, #1
 8006232:	81a3      	strh	r3, [r4, #12]
 8006234:	e7d2      	b.n	80061dc <__smakebuf_r+0x18>
	...

08006238 <_fstat_r>:
 8006238:	b538      	push	{r3, r4, r5, lr}
 800623a:	2300      	movs	r3, #0
 800623c:	4d06      	ldr	r5, [pc, #24]	@ (8006258 <_fstat_r+0x20>)
 800623e:	4604      	mov	r4, r0
 8006240:	4608      	mov	r0, r1
 8006242:	4611      	mov	r1, r2
 8006244:	602b      	str	r3, [r5, #0]
 8006246:	f7fb fa29 	bl	800169c <_fstat>
 800624a:	1c43      	adds	r3, r0, #1
 800624c:	d102      	bne.n	8006254 <_fstat_r+0x1c>
 800624e:	682b      	ldr	r3, [r5, #0]
 8006250:	b103      	cbz	r3, 8006254 <_fstat_r+0x1c>
 8006252:	6023      	str	r3, [r4, #0]
 8006254:	bd38      	pop	{r3, r4, r5, pc}
 8006256:	bf00      	nop
 8006258:	2000041c 	.word	0x2000041c

0800625c <_isatty_r>:
 800625c:	b538      	push	{r3, r4, r5, lr}
 800625e:	2300      	movs	r3, #0
 8006260:	4d05      	ldr	r5, [pc, #20]	@ (8006278 <_isatty_r+0x1c>)
 8006262:	4604      	mov	r4, r0
 8006264:	4608      	mov	r0, r1
 8006266:	602b      	str	r3, [r5, #0]
 8006268:	f7fb fa27 	bl	80016ba <_isatty>
 800626c:	1c43      	adds	r3, r0, #1
 800626e:	d102      	bne.n	8006276 <_isatty_r+0x1a>
 8006270:	682b      	ldr	r3, [r5, #0]
 8006272:	b103      	cbz	r3, 8006276 <_isatty_r+0x1a>
 8006274:	6023      	str	r3, [r4, #0]
 8006276:	bd38      	pop	{r3, r4, r5, pc}
 8006278:	2000041c 	.word	0x2000041c

0800627c <abort>:
 800627c:	2006      	movs	r0, #6
 800627e:	b508      	push	{r3, lr}
 8006280:	f000 f82c 	bl	80062dc <raise>
 8006284:	2001      	movs	r0, #1
 8006286:	f7fb f9ba 	bl	80015fe <_exit>

0800628a <_raise_r>:
 800628a:	291f      	cmp	r1, #31
 800628c:	b538      	push	{r3, r4, r5, lr}
 800628e:	4605      	mov	r5, r0
 8006290:	460c      	mov	r4, r1
 8006292:	d904      	bls.n	800629e <_raise_r+0x14>
 8006294:	2316      	movs	r3, #22
 8006296:	6003      	str	r3, [r0, #0]
 8006298:	f04f 30ff 	mov.w	r0, #4294967295	@ 0xffffffff
 800629c:	bd38      	pop	{r3, r4, r5, pc}
 800629e:	6bc2      	ldr	r2, [r0, #60]	@ 0x3c
 80062a0:	b112      	cbz	r2, 80062a8 <_raise_r+0x1e>
 80062a2:	f852 3021 	ldr.w	r3, [r2, r1, lsl #2]
 80062a6:	b94b      	cbnz	r3, 80062bc <_raise_r+0x32>
 80062a8:	4628      	mov	r0, r5
 80062aa:	f000 f831 	bl	8006310 <_getpid_r>
 80062ae:	4622      	mov	r2, r4
 80062b0:	4601      	mov	r1, r0
 80062b2:	4628      	mov	r0, r5
 80062b4:	e8bd 4038 	ldmia.w	sp!, {r3, r4, r5, lr}
 80062b8:	f000 b818 	b.w	80062ec <_kill_r>
 80062bc:	2b01      	cmp	r3, #1
 80062be:	d00a      	beq.n	80062d6 <_raise_r+0x4c>
 80062c0:	1c59      	adds	r1, r3, #1
 80062c2:	d103      	bne.n	80062cc <_raise_r+0x42>
 80062c4:	2316      	movs	r3, #22
 80062c6:	6003      	str	r3, [r0, #0]
 80062c8:	2001      	movs	r0, #1
 80062ca:	e7e7      	b.n	800629c <_raise_r+0x12>
 80062cc:	2100      	movs	r1, #0
 80062ce:	4620      	mov	r0, r4
 80062d0:	f842 1024 	str.w	r1, [r2, r4, lsl #2]
 80062d4:	4798      	blx	r3
 80062d6:	2000      	movs	r0, #0
 80062d8:	e7e0      	b.n	800629c <_raise_r+0x12>
	...

080062dc <raise>:
 80062dc:	4b02      	ldr	r3, [pc, #8]	@ (80062e8 <raise+0xc>)
 80062de:	4601      	mov	r1, r0
 80062e0:	6818      	ldr	r0, [r3, #0]
 80062e2:	f7ff bfd2 	b.w	800628a <_raise_r>
 80062e6:	bf00      	nop
 80062e8:	2000001c 	.word	0x2000001c

080062ec <_kill_r>:
 80062ec:	b538      	push	{r3, r4, r5, lr}
 80062ee:	2300      	movs	r3, #0
 80062f0:	4d06      	ldr	r5, [pc, #24]	@ (800630c <_kill_r+0x20>)
 80062f2:	4604      	mov	r4, r0
 80062f4:	4608      	mov	r0, r1
 80062f6:	4611      	mov	r1, r2
 80062f8:	602b      	str	r3, [r5, #0]
 80062fa:	f7fb f970 	bl	80015de <_kill>
 80062fe:	1c43      	adds	r3, r0, #1
 8006300:	d102      	bne.n	8006308 <_kill_r+0x1c>
 8006302:	682b      	ldr	r3, [r5, #0]
 8006304:	b103      	cbz	r3, 8006308 <_kill_r+0x1c>
 8006306:	6023      	str	r3, [r4, #0]
 8006308:	bd38      	pop	{r3, r4, r5, pc}
 800630a:	bf00      	nop
 800630c:	2000041c 	.word	0x2000041c

08006310 <_getpid_r>:
 8006310:	f7fb b95e 	b.w	80015d0 <_getpid>

08006314 <_init>:
 8006314:	b5f8      	push	{r3, r4, r5, r6, r7, lr}
 8006316:	bf00      	nop
 8006318:	bcf8      	pop	{r3, r4, r5, r6, r7}
 800631a:	bc08      	pop	{r3}
 800631c:	469e      	mov	lr, r3
 800631e:	4770      	bx	lr

08006320 <_fini>:
 8006320:	b5f8      	push	{r3, r4, r5, r6, r7, lr}
 8006322:	bf00      	nop
 8006324:	bcf8      	pop	{r3, r4, r5, r6, r7}
 8006326:	bc08      	pop	{r3}
 8006328:	469e      	mov	lr, r3
 800632a:	4770      	bx	lr
